Archive member included to satisfy reference by file (symbol)

/media/ram/363029d1-6365-487a-b2e3-bd8d034c2ea4/fastcv/hexagondsp/Hexagon_SDK/3.5.2/tools/linaro/bin/../arm-linux-gnueabihf/libc/usr/lib/libc_nonshared.a(elf-init.oS)
                              /media/ram/363029d1-6365-487a-b2e3-bd8d034c2ea4/fastcv/hexagondsp/Hexagon_SDK/3.5.2/tools/linaro/bin/../arm-linux-gnueabihf/libc/usr/lib/crt1.o (__libc_csu_init)
lib/libfastcv.a(libfastcv_la-fastcvManager.o)
                              UbuntuARM_Release/ImageEnhance.o (fcvBoxFilterNxNf32)
lib/libfastcv.a(libfastcv_la-fastcvMemAndroid.o)
                              UbuntuARM_Release/ImageEnhance.o (fcvMemAlloc)
lib/libfastcv.a(libfastcv_la-fastcvMem.o)
                              UbuntuARM_Release/ImageEnhance.o (fcvMemInit)
lib/libfastcv.a(libfastcv_la-fastcv.o)
                              lib/libfastcv.a(libfastcv_la-fastcvManager.o) (libLogPrint)
lib/libfastcv.a(libfastcv_la-fastcvHeapStats.o)
                              lib/libfastcv.a(libfastcv_la-fastcvMemAndroid.o) (fcvHeapStatsMalloc(void*, unsigned int))
lib/libfastcv.a(libfastcv_la-fastcvHelper.o)
                              lib/libfastcv.a(libfastcv_la-fastcv.o) (uCHelper())
lib/libfastcv.a(libfastcv_la-fastcvHW.o)
                              lib/libfastcv.a(libfastcv_la-fastcv.o) (fcvSetHWFlag(unsigned int))
lib/libfastcv.a(libfastcv_la-fastcvAbsDiffC.o)
                              lib/libfastcv.a(libfastcv_la-fastcv.o) (fcvAbsDiffu8C)
lib/libfastcv.a(libfastcv_la-fastcvAdaptiveThresholdC.o)
                              lib/libfastcv.a(libfastcv_la-fastcvHelper.o) (adaptiveThresholdC)
lib/libfastcv.a(libfastcv_la-fastcvAffineC.o)
                              lib/libfastcv.a(libfastcv_la-fastcv.o) (fcvGeomAffineFitf32C)
lib/libfastcv.a(libfastcv_la-fastcvArithmC.o)
                              lib/libfastcv.a(libfastcv_la-fastcv.o) (fcvTransposeu8C)
lib/libfastcv.a(libfastcv_la-fastcvAverageC.o)
                              lib/libfastcv.a(libfastcv_la-fastcv.o) (fcvAverages32C)
lib/libfastcv.a(libfastcv_la-fastcvBGCodeBookC.o)
                              lib/libfastcv.a(libfastcv_la-fastcv.o) (fcvCreateBGCodeBookModelC)
lib/libfastcv.a(libfastcv_la-fastcvBitCntC.o)
                              lib/libfastcv.a(libfastcv_la-fastcv.o) (fcvBitCountu8C)
lib/libfastcv.a(libfastcv_la-fastcvBitwiseOpC.o)
                              lib/libfastcv.a(libfastcv_la-fastcv.o) (fcvBitwiseOru8C)
lib/libfastcv.a(libfastcv_la-fastcvCalib3DC.o)
                              lib/libfastcv.a(libfastcv_la-fastcv.o) (fcvUndistortDisparityConvertDepthf32C)
lib/libfastcv.a(libfastcv_la-fastcvCalibrateC.o)
                              lib/libfastcv.a(libfastcv_la-fastcv.o) (fcvGeomDistortPoint2x1f32C)
lib/libfastcv.a(libfastcv_la-fastcvChannelC.o)
                              lib/libfastcv.a(libfastcv_la-fastcv.o) (fcvChannelCombine2Planesu8C)
lib/libfastcv.a(libfastcv_la-fastcvColor2C.o)
                              lib/libfastcv.a(libfastcv_la-fastcv.o) (fcvColorRGB565ToYCbCr444Planaru8C)
lib/libfastcv.a(libfastcv_la-fastcvColorC.o)
                              lib/libfastcv.a(libfastcv_la-fastcv.o) (fcvColorYCrCb420PseudoPlanarToRGB8888u8C)
lib/libfastcv.a(libfastcv_la-fastcvColorPpfYuvUtilsC.o)
                              lib/libfastcv.a(libfastcv_la-fastcvHelper.o) (ifcv_yuv_deinterleave_cbcrC)
lib/libfastcv.a(libfastcv_la-fastcvColorRgb2LabC.o)
                              lib/libfastcv.a(libfastcv_la-fastcvHelper.o) (rgb2labC)
lib/libfastcv.a(libfastcv_la-fastcvColorRgb2YuvC.o)
                              lib/libfastcv.a(libfastcv_la-fastcvHelper.o) (rgb5652yuvpC)
lib/libfastcv.a(libfastcv_la-fastcvColorRgbConversionC.o)
                              lib/libfastcv.a(libfastcv_la-fastcvHelper.o) (rgb565_to_rgb888C)
lib/libfastcv.a(libfastcv_la-fastcvColorYuvConversionC.o)
                              lib/libfastcv.a(libfastcv_la-fastcvHelper.o) (downsample_horizontalC)
lib/libfastcv.a(libfastcv_la-fastcvContourC.o)
                              lib/libfastcv.a(libfastcv_la-fastcvHelper.o) (fcvPreProcessu8C)
lib/libfastcv.a(libfastcv_la-fastcvCopyC.o)
                              lib/libfastcv.a(libfastcv_la-fastcv.o) (fcvCopyC)
lib/libfastcv.a(libfastcv_la-fastcvCornerSubPixelC.o)
                              lib/libfastcv.a(libfastcv_la-fastcv.o) (fcvCornerRefineSubPixu8C)
lib/libfastcv.a(libfastcv_la-fastcvDepthFusionC.o)
                              lib/libfastcv.a(libfastcv_la-fastcv.o) (fcvDepthFusion8x8x8xNs16C)
lib/libfastcv.a(libfastcv_la-fastcvDescriptor2C.o)
                              lib/libfastcv.a(libfastcv_la-fastcv.o) (fcvDescriptorSampledMeanAndVar36f32C)
lib/libfastcv.a(libfastcv_la-fastcvDescriptorC.o)
                              lib/libfastcv.a(libfastcv_la-fastcv.o) (fcvDescriptor17x17u8To36s8C)
lib/libfastcv.a(libfastcv_la-fastcvEucldeanC.o)
                              lib/libfastcv.a(libfastcv_la-fastcv.o) (fcvClusterEuclideanf32C)
lib/libfastcv.a(libfastcv_la-fastcvFloodFillC.o)
                              lib/libfastcv.a(libfastcv_la-fastcv.o) (fcvFloodfillSimpleu8C)
lib/libfastcv.a(libfastcv_la-fastcvGeomC.o)
                              lib/libfastcv.a(libfastcv_la-fastcv.o) (fcvGeomPoseUpdatef32C)
lib/libfastcv.a(libfastcv_la-fastcvHarrisC.o)
                              lib/libfastcv.a(libfastcv_la-fastcv.o) (fcvCornerHarrisu8C)
lib/libfastcv.a(libfastcv_la-fastcvHOGC.o)
                              lib/libfastcv.a(libfastcv_la-fastcv.o) (fcvHOGInitC)
lib/libfastcv.a(libfastcv_la-fastcvHoughCircleC.o)
                              lib/libfastcv.a(libfastcv_la-fastcvHelper.o) (calc_accumDataC)
lib/libfastcv.a(libfastcv_la-fastcvHoughLineC.o)
                              lib/libfastcv.a(libfastcv_la-fastcv.o) (fcvHoughLineu8C)
lib/libfastcv.a(libfastcv_la-fastcvImageDiffC.o)
                              lib/libfastcv.a(libfastcv_la-fastcv.o) (fcvImageDiffu8C)
lib/libfastcv.a(libfastcv_la-fastcvImageIntensityC.o)
                              lib/libfastcv.a(libfastcv_la-fastcv.o) (fcvImageIntensityStats_v2C)
lib/libfastcv.a(libfastcv_la-fastcvImagePostProcC.o)
                              lib/libfastcv.a(libfastcv_la-fastcv.o) (fcvUpsampleVerticalu8C)
lib/libfastcv.a(libfastcv_la-fastcvImageSegmentationC.o)
                              lib/libfastcv.a(libfastcv_la-fastcv.o) (fcvImageSegmentationSeedRegionGrows16C)
lib/libfastcv.a(libfastcv_la-fastcvIntegrateImageC.o)
                              lib/libfastcv.a(libfastcv_la-fastcv.o) (fcvIntegrateImageu8_v2C)
lib/libfastcv.a(libfastcv_la-fastcvIntegrateImageYuvC.o)
                              lib/libfastcv.a(libfastcv_la-fastcv.o) (fcvIntegrateImageYCbCr420PseudoPlanaru8C)
lib/libfastcv.a(libfastcv_la-fastcvIppScaleC.o)
                              lib/libfastcv.a(libfastcv_la-fastcv.o) (fcvScaleUpPolyu8C)
lib/libfastcv.a(libfastcv_la-fastcvIppTransformC.o)
                              lib/libfastcv.a(libfastcv_la-fastcv.o) (fcvDWTHaarTransposeu8C)
lib/libfastcv.a(libfastcv_la-fastcvKDTree36s8f32C.o)
                              lib/libfastcv.a(libfastcv_la-fastcv.o) (fcvKDTreeCreate36s8f32C)
lib/libfastcv.a(libfastcv_la-fastcvKMeansTreeSearchC.o)
                              lib/libfastcv.a(libfastcv_la-fastcv.o) (fcvKMeansTreeSearch36x10s8C)
lib/libfastcv.a(libfastcv_la-fastcvLBPC.o)
                              lib/libfastcv.a(libfastcv_la-fastcv.o) (fcvGLBPu8C)
lib/libfastcv.a(libfastcv_la-fastcvLinearSearchC.o)
                              lib/libfastcv.a(libfastcv_la-fastcv.o) (fcvLinearSearch8x36s8C)
lib/libfastcv.a(libfastcv_la-fastcvMotionHistoryC.o)
                              lib/libfastcv.a(libfastcv_la-fastcv.o) (fcvUpdateMotionHistoryu8s32C)
lib/libfastcv.a(libfastcv_la-fastcvMserFxpC.o)
                              lib/libfastcv.a(libfastcv_la-fastcvHelper.o) (MSER_PreProcessPlusC)
lib/libfastcv.a(libfastcv_la-fastcvNCCPatchC.o)
                              lib/libfastcv.a(libfastcv_la-fastcv.o) (fcvNCCPatchOnCircle8x8u8C)
lib/libfastcv.a(libfastcv_la-fastcvPolygonC.o)
                              lib/libfastcv.a(libfastcv_la-fastcv.o) (fcvFillConvexPolyu8C)
lib/libfastcv.a(libfastcv_la-fastcvRemapC.o)
                              lib/libfastcv.a(libfastcv_la-fastcv.o) (fcvRemapRGBA8888NNu8C)
lib/libfastcv.a(libfastcv_la-fastcvSADC.o)
                              lib/libfastcv.a(libfastcv_la-fastcv.o) (fcvSumOfAbsoluteDiff8x8u8C)
lib/libfastcv.a(libfastcv_la-fastcvScaleC.o)
                              lib/libfastcv.a(libfastcv_la-fastcv.o) (fcvScaleDownBy2u8C)
lib/libfastcv.a(libfastcv_la-fastcvSegmentMaskC.o)
                              lib/libfastcv.a(libfastcv_la-fastcv.o) (fcvDrawContouru8C)
lib/libfastcv.a(libfastcv_la-fastcvSetC.o)
                              lib/libfastcv.a(libfastcv_la-fastcv.o) (fcvSetElementsu8C)
lib/libfastcv.a(libfastcv_la-fastcvSmoothC.o)
                              lib/libfastcv.a(libfastcv_la-fastcv.o) (fcvBoxFilter3x3u8C)
lib/libfastcv.a(libfastcv_la-fastcvSolveC.o)
                              lib/libfastcv.a(libfastcv_la-fastcv.o) (fcvSolvef32C)
lib/libfastcv.a(libfastcv_la-fastcvSVDC.o)
                              lib/libfastcv.a(libfastcv_la-fastcv.o) (fcvSVDf32C)
lib/libfastcv.a(libfastcv_la-fastcvSVMPredictC.o)
                              lib/libfastcv.a(libfastcv_la-fastcv.o) (fcvSVMPredict2Classf32C)
lib/libfastcv.a(libfastcv_la-fastcvTrackC.o)
                              lib/libfastcv.a(libfastcv_la-fastcvCornerSubPixelC.o) (getRectSubPix)
lib/libfastcv.a(libfastcv_la-fastcvTransformC.o)
                              lib/libfastcv.a(libfastcv_la-fastcv.o) (fcvFFTu8C)
lib/libfastcv.a(libfastcv_la-fastcvUpsampleC.o)
                              lib/libfastcv.a(libfastcv_la-fastcvHelper.o) (chroma_up_2d_planarC)
lib/libfastcv.a(libfastcv_la-fastcvVectorC.o)
                              lib/libfastcv.a(libfastcv_la-fastcv.o) (fcvVecNormalize36s8f32C)
lib/libfastcv.a(libfastcv_la-fastcvWarpC.o)
                              lib/libfastcv.a(libfastcv_la-fastcv.o) (fcvTransformAffine8x8u8C)
lib/libfastcv.a(libfastcv_la-fastcvHwAndroid.o)
                              lib/libfastcv.a(libfastcv_la-fastcv.o) (fcv_check_only_cpu)
lib/libfastcv.a(libfastcv_la-fastcvRemoteLibAndroid.o)
                              lib/libfastcv.a(libfastcv_la-fastcvHwAndroid.o) (fcvCheckRemoteLibSupport())
lib/libfastcv.a(libfastcv_la-fastcvTrigonometricTable.o)
                              lib/libfastcv.a(libfastcv_la-fastcvContourC.o) (atan2fInt16)
lib/libfastcv.a(libfastcv_la-fastcvDotC.o)
                              lib/libfastcv.a(libfastcv_la-fastcv.o) (fcvDotProducts8C)
lib/libfastcv.a(libfastcv_la-fastcvEdgeC.o)
                              lib/libfastcv.a(libfastcv_la-fastcv.o) (fcvFilterSobel3x3u8C)
lib/libfastcv.a(libfastcv_la-fastcvFastC.o)
                              lib/libfastcv.a(libfastcv_la-fastcv.o) (fcvCornerFast9u8C)
lib/libfastcv.a(libfastcv_la-fastcvRectangleC.o)
                              lib/libfastcv.a(libfastcv_la-fastcv.o) (fcvImageDetectEdgePixelsu8C)
lib/libfastcv.a(libfastcv_la-fastcvSSDC.o)
                              lib/libfastcv.a(libfastcv_la-fastcv.o) (fcvSumOfSquaredDiffs36x4s8C)
lib/libfastcv.a(fastcvCalibrateV.o)
                              lib/libfastcv.a(libfastcv_la-fastcv.o) (fcvV8v)
lib/libfastcv.a(fastcvEdgeV2.o)
                              lib/libfastcv.a(libfastcv_la-fastcv.o) (fcvV71)
lib/libfastcv.a(libfastcvAbsDiffV_la-fastcvAbsDiffV.o)
                              lib/libfastcv.a(libfastcv_la-fastcv.o) (fcvV6k)
lib/libfastcv.a(libfastcvAdaptiveThresholdV_la-fastcvAdaptiveThresholdV.o)
                              lib/libfastcv.a(libfastcv_la-fastcvHelper.o) (fcvV10h1)
lib/libfastcv.a(libfastcvBlurV_la-fastcvBlurV.o)
                              lib/libfastcv.a(libfastcv_la-fastcv.o) (fcvV1)
lib/libfastcv.a(libfastcvDescriptorV_la-fastcvDescriptorV.o)
                              lib/libfastcv.a(libfastcv_la-fastcv.o) (fcvV9)
lib/libfastcv.a(libfastcvDotV_la-fastcvDotV.o)
                              lib/libfastcv.a(libfastcv_la-fastcv.o) (fcvVa)
lib/libfastcv.a(libfastcvFast10V_la-fastcvFast10V.o)
                              lib/libfastcv.a(libfastcv_la-fastcvHelper.o) (fcvV3g10H)
lib/libfastcv.a(libfastcvFastV_la-fastcvFastV.o)
                              lib/libfastcv.a(libfastcv_la-fastcvHelper.o) (fcvV3gH)
lib/libfastcv.a(libfastcvFilter1V_la-fastcvFilter1V.o)
                              lib/libfastcv.a(libfastcv_la-fastcv.o) (fcvV16)
lib/libfastcv.a(libfastcvFilterV_la-fastcvFilterV.o)
                              lib/libfastcv.a(libfastcv_la-fastcv.o) (fcvV6y)
lib/libfastcv.a(libfastcvMeanShiftV_la-fastcvMeanShiftV.o)
                              lib/libfastcv.a(libfastcv_la-fastcvHelper.o) (fcvV0bhH)
lib/libfastcv.a(libfastcvSVDV_la-fastcvSVDV.o)
                              lib/libfastcv.a(libfastcv_la-fastcv.o) (fcvVa6)
lib/libfastcv.a(libfastcvScaleV_la-fastcvScaleV.o)
                              lib/libfastcv.a(libfastcv_la-fastcv.o) (fcvV5r)
lib/libfastcv.a(libfastcvWarpV_la-fastcvWarpV.o)
                              lib/libfastcv.a(libfastcv_la-fastcv.o) (fcvV1h)
lib/libfastcv.a(libfastcvv_la-fastcvAffineV1.o)
                              lib/libfastcv.a(libfastcv_la-fastcv.o) (fcvV0a)
lib/libfastcv.a(libfastcvv_la-fastcvArithmV.o)
                              lib/libfastcv.a(libfastcv_la-fastcv.o) (fcvVaa)
lib/libfastcv.a(libfastcvv_la-fastcvAverageV.o)
                              lib/libfastcv.a(libfastcv_la-fastcv.o) (fcvV9a)
lib/libfastcv.a(libfastcvv_la-fastcvBitCntWrapV.o)
                              lib/libfastcv.a(libfastcv_la-fastcv.o) (fcvV2d)
lib/libfastcv.a(libfastcvv_la-fastcvBitwiseOpV.o)
                              lib/libfastcv.a(libfastcv_la-fastcv.o) (fcvV5n)
lib/libfastcv.a(libfastcvv_la-fastcvBoundingRectV.o)
                              lib/libfastcv.a(libfastcv_la-fastcv.o) (fcvV3k)
lib/libfastcv.a(libfastcvv_la-fastcvCalib3DV.o)
                              lib/libfastcv.a(libfastcv_la-fastcv.o) (fcvVz2o)
lib/libfastcv.a(libfastcvv_la-fastcvCalibrateV1.o)
                              lib/libfastcv.a(libfastcv_la-fastcv.o) (fcvV9y)
lib/libfastcv.a(libfastcvv_la-fastcvChannelV.o)
                              lib/libfastcv.a(libfastcv_la-fastcv.o) (fcvV0bkb)
lib/libfastcv.a(libfastcvv_la-fastcvColorPpfYuvUtilsV.o)
                              lib/libfastcv.a(libfastcv_la-fastcvHelper.o) (fcvVHcc01)
lib/libfastcv.a(libfastcvv_la-fastcvColorRgb2LabV.o)
                              lib/libfastcv.a(libfastcv_la-fastcvHelper.o) (fcvVHcc09)
lib/libfastcv.a(libfastcvv_la-fastcvColorRgb2YuvV.o)
                              lib/libfastcv.a(libfastcv_la-fastcvHelper.o) (fcvVHcc0)
lib/libfastcv.a(libfastcvv_la-fastcvColorRgbConversionV.o)
                              lib/libfastcv.a(libfastcv_la-fastcvHelper.o) (fcvVHccf)
lib/libfastcv.a(libfastcvv_la-fastcvColorV.o)
                              lib/libfastcv.a(libfastcv_la-fastcv.o) (fcvV6)
lib/libfastcv.a(libfastcvv_la-fastcvColorYuvConversionV.o)
                              lib/libfastcv.a(libfastcv_la-fastcvHelper.o) (fcvVHccu)
lib/libfastcv.a(libfastcvv_la-fastcvContourV.o)
                              lib/libfastcv.a(libfastcv_la-fastcvHelper.o) (fcvPreProcessu8V)
lib/libfastcv.a(libfastcvv_la-fastcvCopyV.o)
                              lib/libfastcv.a(libfastcv_la-fastcv.o) (fcvV1j)
lib/libfastcv.a(libfastcvv_la-fastcvCornerSubPixelV.o)
                              lib/libfastcv.a(libfastcv_la-fastcv.o) (fcvV0cp)
lib/libfastcv.a(libfastcvv_la-fastcvDepthFusionV.o)
                              lib/libfastcv.a(libfastcv_la-fastcv.o) (fcvVz2g)
lib/libfastcv.a(libfastcvv_la-fastcvDescriptor2V.o)
                              lib/libfastcv.a(libfastcv_la-fastcv.o) (fcvV9c)
lib/libfastcv.a(libfastcvv_la-fastcvEdgeV.o)
                              lib/libfastcv.a(libfastcv_la-fastcv.o) (fcvVc)
lib/libfastcv.a(libfastcvv_la-fastcvEucldeanV.o)
                              lib/libfastcv.a(libfastcv_la-fastcv.o) (fcvV2r)
lib/libfastcv.a(libfastcvv_la-fastcvFloodFillV.o)
                              lib/libfastcv.a(libfastcv_la-fastcv.o) (fcvV8r)
lib/libfastcv.a(libfastcvv_la-fastcvGeomV.o)
                              lib/libfastcv.a(libfastcv_la-fastcv.o) (fcvVv)
lib/libfastcv.a(libfastcvv_la-fastcvHOGV.o)
                              lib/libfastcv.a(libfastcv_la-fastcvHelper.o) (fcvVHa05)
lib/libfastcv.a(libfastcvv_la-fastcvHarrisV.o)
                              lib/libfastcv.a(libfastcv_la-fastcv.o) (fcvVo)
lib/libfastcv.a(libfastcvv_la-fastcvHomographyV.o)
                              lib/libfastcv.a(libfastcv_la-fastcv.o) (fcvVq2)
lib/libfastcv.a(libfastcvv_la-fastcvHoughCircleV.o)
                              lib/libfastcv.a(libfastcv_la-fastcvHelper.o) (fcvVHhc01)
lib/libfastcv.a(libfastcvv_la-fastcvHoughLineV.o)
                              lib/libfastcv.a(libfastcv_la-fastcvHelper.o) (fcvV0bn)
lib/libfastcv.a(libfastcvv_la-fastcvImageDiffV.o)
                              lib/libfastcv.a(libfastcv_la-fastcv.o) (fcvV3a)
lib/libfastcv.a(libfastcvv_la-fastcvImageIntensityV.o)
                              lib/libfastcv.a(libfastcv_la-fastcv.o) (fcvVz2j)
lib/libfastcv.a(libfastcvv_la-fastcvImagePostProcV.o)
                              lib/libfastcv.a(libfastcv_la-fastcv.o) (fcvV4s)
lib/libfastcv.a(libfastcvv_la-fastcvIntegrateImageV.o)
                              lib/libfastcv.a(libfastcv_la-fastcv.o) (fcvV6g)
lib/libfastcv.a(libfastcvv_la-fastcvIntegrateImageYuvV.o)
                              lib/libfastcv.a(libfastcv_la-fastcv.o) (fcvV8t)
lib/libfastcv.a(libfastcvv_la-fastcvIppScaleV.o)
                              lib/libfastcv.a(libfastcv_la-fastcv.o) (fcvV5a)
lib/libfastcv.a(libfastcvv_la-fastcvIppTransformV.o)
                              lib/libfastcv.a(libfastcv_la-fastcv.o) (fcvV4w)
lib/libfastcv.a(libfastcvv_la-fastcvLBPV.o)
                              lib/libfastcv.a(libfastcv_la-fastcv.o) (fcvV0bs)
lib/libfastcv.a(libfastcvv_la-fastcvMotionHistoryV.o)
                              lib/libfastcv.a(libfastcv_la-fastcv.o) (fcvV8s)
lib/libfastcv.a(libfastcvv_la-fastcvMserFxpV.o)
                              lib/libfastcv.a(libfastcv_la-fastcvHelper.o) (fcvVHms00)
lib/libfastcv.a(libfastcvv_la-fastcvNCCPatchV.o)
                              lib/libfastcv.a(libfastcv_la-fastcv.o) (fcvV18)
lib/libfastcv.a(libfastcvv_la-fastcvPolygonV.o)
                              lib/libfastcv.a(libfastcv_la-fastcv.o) (fcvV8y)
lib/libfastcv.a(libfastcvv_la-fastcvPyramidV.o)
                              lib/libfastcv.a(libfastcv_la-fastcv.o) (fcvV2w)
lib/libfastcv.a(libfastcvv_la-fastcvRemapV.o)
                              lib/libfastcv.a(libfastcv_la-fastcv.o) (fcvVa1)
lib/libfastcv.a(libfastcvv_la-fastcvSADV.o)
                              lib/libfastcv.a(libfastcv_la-fastcv.o) (fcvV1a2)
lib/libfastcv.a(libfastcvv_la-fastcvSSDV.o)
                              lib/libfastcv.a(libfastcv_la-fastcv.o) (fcvV0bg)
lib/libfastcv.a(libfastcvv_la-fastcvSVMPredictV.o)
                              lib/libfastcv.a(libfastcv_la-fastcv.o) (fcvV0bkf)
lib/libfastcv.a(libfastcvv_la-fastcvSetV.o)
                              lib/libfastcv.a(libfastcv_la-fastcv.o) (fcvV5e)
lib/libfastcv.a(libfastcvv_la-fastcvSmoothV.o)
                              lib/libfastcv.a(libfastcv_la-fastcv.o) (fcvV10g)
lib/libfastcv.a(libfastcvv_la-fastcvThresholdV.o)
                              lib/libfastcv.a(libfastcv_la-fastcv.o) (fcvV1g)
lib/libfastcv.a(libfastcvv_la-fastcvTrackV.o)
                              lib/libfastcv.a(libfastcv_la-fastcvHelper.o) (fcvVHlk00)
lib/libfastcv.a(libfastcvv_la-fastcvTransformV.o)
                              lib/libfastcv.a(libfastcv_la-fastcv.o) (fcvV0cn)
lib/libfastcv.a(libfastcvv_la-fastcvUpsampleV.o)
                              lib/libfastcv.a(libfastcv_la-fastcvHelper.o) (fcvVHcc04)
lib/libfastcv.a(libfastcvv_la-fastcvVectorV.o)
                              lib/libfastcv.a(libfastcv_la-fastcv.o) (fcvV3r)
lib/libfastcv.a(libIlpsources_la-fastcvBitCntIlpC.o)
                              lib/libfastcv.a(libfastcv_la-fastcv.o) (fcvHammingDistance64x4u8a4C)
lib/libfastcv.a(libIlpsources_la-fastcvBlurIlpC.o)
                              lib/libfastcv.a(libfastcv_la-fastcv.o) (fcvFilterMedian3x3u8C)
lib/libfastcv.a(libIlpsources_la-fastcvBoundingRectC.o)
                              lib/libfastcv.a(libfastcv_la-fastcv.o) (fcvBoundingRectangleC)
lib/libfastcv.a(libIlpsources_la-fastcvFilter1C.o)
                              lib/libfastcv.a(libfastcv_la-fastcv.o) (fcvFilterDilate3x3u8C)
lib/libfastcv.a(libIlpsources_la-fastcvImagePostProcIlpC.o)
                              lib/libfastcv.a(libfastcv_la-fastcvHelper.o) (chroma_up_hori_planarC)
lib/libfastcv.a(libIlpsources_la-fastcvScaleIlpC.o)
                              lib/libfastcv.a(libfastcv_la-fastcv.o) (fcvScaleDownBy4u8C)
lib/libfastcv.a(libfastcvIlpC_la-fastcvFastIlpC.o)
                              lib/libfastcv.a(libfastcv_la-fastcvHelper.o) (fast9_corner_scoreC)
lib/libfastcv.a(libfastcvFast10C_la-fastcvFast10C.o)
                              lib/libfastcv.a(libfastcv_la-fastcvHelper.o) (fast10_corner_scoreC)
lib/libfastcv.a(libfastcvMeanShiftC_la-fastcvMeanShiftC.o)
                              lib/libfastcv.a(libfastcv_la-fastcvHelper.o) (fcvMomentsInTileu8C)
lib/libfastcv.a(libfastcvPyramidC_la-fastcvPyramidC.o)
                              lib/libfastcv.a(libfastcv_la-fastcv.o) (fcvPyramidAllocateC)
lib/libfastcv.a(libfastcvHomographyC_la-fastcvHomographyC.o)
                              lib/libfastcv.a(libfastcvv_la-fastcvHomographyV.o) (fcvGeomHomographyFitDPf32C)
lib/libfastcv.a(libfastcvThresholdC_la-fastcvThresholdC.o)
                              lib/libfastcv.a(libfastcv_la-fastcv.o) (fcvFilterThresholdu8C)
lib/libfastcv.a(libfastcvBlurC_la-fastcvBlurC.o)
                              lib/libfastcv.a(libfastcv_la-fastcv.o) (fcvFilterGaussian3x3u8C)
lib/libfastcv.a(libfastcvFilterC_la-fastcvFilterC.o)
                              lib/libfastcv.a(libfastcv_la-fastcv.o) (fcvFilterCorr3x3s8_v2C)
lib/libfastcv.a(libfastcv_la-fastcvManager_.o)
                              lib/libfastcv.a(libfastcv_la-fastcvTrackC.o) (fcvSumOfAbsoluteDiff16x16u8)
lib/libfastcv.a(libfastcv_la-fastcvUtils.o)
                              lib/libfastcv.a(libfastcv_la-fastcvArithmC.o) (fcvIsqrt(float))
lib/libfastcv.a(fastcvIntegrateImageV2.o)
                              lib/libfastcv.a(libfastcvv_la-fastcvIntegrateImageV.o) (fcvV5w_1)
lib/libfastcv.a(fastcvIppDctV.o)
                              lib/libfastcv.a(libfastcvv_la-fastcvIppTransformV.o) (jpege_engine_sw_fdct_u8V)
lib/libfastcv.a(fastcvIppIdctV.o)
                              lib/libfastcv.a(libfastcvv_la-fastcvIppTransformV.o) (jpegd_engine_sw_idct_8x8_s16V)
lib/libfastcv.a(libfastcvv_la-fastcvColorIppPlanarV.o)
                              lib/libfastcv.a(libfastcvv_la-fastcvColorV.o) (fcvccbgr2)
lib/libfastcv.a(libfastcvv_la-fastcvColorIppV.o)
                              lib/libfastcv.a(libfastcvv_la-fastcvColorV.o) (fcvccbgr8)
lib/libfastcv.a(libfastcvv_la-fastcvColorRgb2RgbV.o)
                              lib/libfastcv.a(libfastcvv_la-fastcvColorV.o) (fcvccbgr14)
lib/libfastcv.a(libfastcvv_la-fastcvIppDwtV.o)
                              lib/libfastcv.a(libfastcvv_la-fastcvIppTransformV.o) (fcvippt0)
lib/libfastcv.a(libfastcvv_la-fastcvIppIdwtV.o)
                              lib/libfastcv.a(libfastcvv_la-fastcvIppTransformV.o) (idwt_haar_uint8_randomwriteV)
/media/ram/363029d1-6365-487a-b2e3-bd8d034c2ea4/fastcv/hexagondsp/Hexagon_SDK/3.5.2/tools/linaro/bin/../lib/gcc/arm-linux-gnueabihf/8.2.1/libgcc_eh.a(unwind-arm.o)
                              UbuntuARM_Release/ImageEnhance.o (__aeabi_unwind_cpp_pr0)
/media/ram/363029d1-6365-487a-b2e3-bd8d034c2ea4/fastcv/hexagondsp/Hexagon_SDK/3.5.2/tools/linaro/bin/../lib/gcc/arm-linux-gnueabihf/8.2.1/libgcc_eh.a(libunwind.o)
                              /media/ram/363029d1-6365-487a-b2e3-bd8d034c2ea4/fastcv/hexagondsp/Hexagon_SDK/3.5.2/tools/linaro/bin/../lib/gcc/arm-linux-gnueabihf/8.2.1/libgcc_eh.a(unwind-arm.o) (restore_core_regs)
/media/ram/363029d1-6365-487a-b2e3-bd8d034c2ea4/fastcv/hexagondsp/Hexagon_SDK/3.5.2/tools/linaro/bin/../lib/gcc/arm-linux-gnueabihf/8.2.1/libgcc_eh.a(pr-support.o)
                              /media/ram/363029d1-6365-487a-b2e3-bd8d034c2ea4/fastcv/hexagondsp/Hexagon_SDK/3.5.2/tools/linaro/bin/../lib/gcc/arm-linux-gnueabihf/8.2.1/libgcc_eh.a(unwind-arm.o) (__gnu_unwind_execute)
/media/ram/363029d1-6365-487a-b2e3-bd8d034c2ea4/fastcv/hexagondsp/Hexagon_SDK/3.5.2/tools/linaro/bin/../lib/gcc/arm-linux-gnueabihf/8.2.1/libgcc.a(_udivsi3.o)
                              lib/libfastcv.a(libfastcv_la-fastcvManager.o) (__aeabi_uidiv)
/media/ram/363029d1-6365-487a-b2e3-bd8d034c2ea4/fastcv/hexagondsp/Hexagon_SDK/3.5.2/tools/linaro/bin/../lib/gcc/arm-linux-gnueabihf/8.2.1/libgcc.a(_divsi3.o)
                              lib/libfastcv.a(libfastcv_la-fastcvHarrisC.o) (__aeabi_idiv)
/media/ram/363029d1-6365-487a-b2e3-bd8d034c2ea4/fastcv/hexagondsp/Hexagon_SDK/3.5.2/tools/linaro/bin/../lib/gcc/arm-linux-gnueabihf/8.2.1/libgcc.a(_arm_addsubdf3.o)
                              lib/libfastcv.a(libfastcv_la-fastcvHOGC.o) (__aeabi_ul2d)
/media/ram/363029d1-6365-487a-b2e3-bd8d034c2ea4/fastcv/hexagondsp/Hexagon_SDK/3.5.2/tools/linaro/bin/../lib/gcc/arm-linux-gnueabihf/8.2.1/libgcc.a(_arm_addsubsf3.o)
                              lib/libfastcv.a(libfastcv_la-fastcvHOGC.o) (__aeabi_ul2f)
/media/ram/363029d1-6365-487a-b2e3-bd8d034c2ea4/fastcv/hexagondsp/Hexagon_SDK/3.5.2/tools/linaro/bin/../lib/gcc/arm-linux-gnueabihf/8.2.1/libgcc.a(_aeabi_ldivmod.o)
                              lib/libfastcv.a(libfastcv_la-fastcvPolygonC.o) (__aeabi_ldivmod)
/media/ram/363029d1-6365-487a-b2e3-bd8d034c2ea4/fastcv/hexagondsp/Hexagon_SDK/3.5.2/tools/linaro/bin/../lib/gcc/arm-linux-gnueabihf/8.2.1/libgcc.a(_dvmd_lnx.o)
                              /media/ram/363029d1-6365-487a-b2e3-bd8d034c2ea4/fastcv/hexagondsp/Hexagon_SDK/3.5.2/tools/linaro/bin/../lib/gcc/arm-linux-gnueabihf/8.2.1/libgcc.a(_aeabi_ldivmod.o) (__aeabi_ldiv0)
/media/ram/363029d1-6365-487a-b2e3-bd8d034c2ea4/fastcv/hexagondsp/Hexagon_SDK/3.5.2/tools/linaro/bin/../lib/gcc/arm-linux-gnueabihf/8.2.1/libgcc.a(_powisf2.o)
                              lib/libfastcv.a(libfastcvHomographyC_la-fastcvHomographyC.o) (__powisf2)
/media/ram/363029d1-6365-487a-b2e3-bd8d034c2ea4/fastcv/hexagondsp/Hexagon_SDK/3.5.2/tools/linaro/bin/../lib/gcc/arm-linux-gnueabihf/8.2.1/libgcc.a(_udivmoddi4.o)
                              /media/ram/363029d1-6365-487a-b2e3-bd8d034c2ea4/fastcv/hexagondsp/Hexagon_SDK/3.5.2/tools/linaro/bin/../lib/gcc/arm-linux-gnueabihf/8.2.1/libgcc.a(_aeabi_ldivmod.o) (__udivmoddi4)

As-needed library included to satisfy reference by file (symbol)

ld-linux-armhf.so.3           lib/libfastcv.a(libfastcv_la-fastcv.o) (__stack_chk_guard@@GLIBC_2.4)

Discarded input sections

 .note.GNU-stack
                0x0000000000000000        0x0 /media/ram/363029d1-6365-487a-b2e3-bd8d034c2ea4/fastcv/hexagondsp/Hexagon_SDK/3.5.2/tools/linaro/bin/../arm-linux-gnueabihf/libc/usr/lib/crt1.o
 .note.GNU-stack
                0x0000000000000000        0x0 /media/ram/363029d1-6365-487a-b2e3-bd8d034c2ea4/fastcv/hexagondsp/Hexagon_SDK/3.5.2/tools/linaro/bin/../arm-linux-gnueabihf/libc/usr/lib/crti.o
 .note.GNU-stack
                0x0000000000000000        0x0 /media/ram/363029d1-6365-487a-b2e3-bd8d034c2ea4/fastcv/hexagondsp/Hexagon_SDK/3.5.2/tools/linaro/bin/../lib/gcc/arm-linux-gnueabihf/8.2.1/crtbegin.o
 .note.GNU-stack
                0x0000000000000000        0x0 /media/ram/363029d1-6365-487a-b2e3-bd8d034c2ea4/fastcv/hexagondsp/Hexagon_SDK/3.5.2/tools/linaro/bin/../arm-linux-gnueabihf/libc/usr/lib/libc_nonshared.a(elf-init.oS)
 .group         0x0000000000000000       0x28 UbuntuARM_Release/ImageEnhance.o
 .group         0x0000000000000000       0x28 UbuntuARM_Release/ImageEnhance.o
 .group         0x0000000000000000       0x28 UbuntuARM_Release/ImageEnhance.o
 .group         0x0000000000000000       0x28 UbuntuARM_Release/ImageEnhance.o
 .group         0x0000000000000000       0x28 UbuntuARM_Release/ImageEnhance.o
 .group         0x0000000000000000       0x28 UbuntuARM_Release/ImageEnhance.o
 .group         0x0000000000000000       0x28 UbuntuARM_Release/ImageEnhance.o
 .group         0x0000000000000000       0x28 UbuntuARM_Release/ImageEnhance.o
 .group         0x0000000000000000       0x28 UbuntuARM_Release/ImageEnhance.o
 .group         0x0000000000000000       0x14 UbuntuARM_Release/ImageEnhance.o
 .group         0x0000000000000000       0x14 UbuntuARM_Release/ImageEnhance.o
 .group         0x0000000000000000       0x14 UbuntuARM_Release/ImageEnhance.o
 .group         0x0000000000000000       0x14 UbuntuARM_Release/ImageEnhance.o
 .group         0x0000000000000000       0x14 UbuntuARM_Release/ImageEnhance.o
 .group         0x0000000000000000       0x14 UbuntuARM_Release/ImageEnhance.o
 .group         0x0000000000000000       0x14 UbuntuARM_Release/ImageEnhance.o
 .group         0x0000000000000000       0x18 UbuntuARM_Release/ImageEnhance.o
 .group         0x0000000000000000       0x14 UbuntuARM_Release/ImageEnhance.o
 .group         0x0000000000000000       0x14 UbuntuARM_Release/ImageEnhance.o
 .group         0x0000000000000000       0x14 UbuntuARM_Release/ImageEnhance.o
 .group         0x0000000000000000       0x14 UbuntuARM_Release/ImageEnhance.o
 .group         0x0000000000000000       0x14 UbuntuARM_Release/ImageEnhance.o
 .group         0x0000000000000000       0x14 UbuntuARM_Release/ImageEnhance.o
 .group         0x0000000000000000       0x14 UbuntuARM_Release/ImageEnhance.o
 .group         0x0000000000000000       0x18 UbuntuARM_Release/ImageEnhance.o
 .group         0x0000000000000000       0x14 UbuntuARM_Release/ImageEnhance.o
 .group         0x0000000000000000       0x14 UbuntuARM_Release/ImageEnhance.o
 .group         0x0000000000000000       0x14 UbuntuARM_Release/ImageEnhance.o
 .group         0x0000000000000000       0x14 UbuntuARM_Release/ImageEnhance.o
 .group         0x0000000000000000       0x14 UbuntuARM_Release/ImageEnhance.o
 .group         0x0000000000000000       0x14 UbuntuARM_Release/ImageEnhance.o
 .group         0x0000000000000000       0x14 UbuntuARM_Release/ImageEnhance.o
 .group         0x0000000000000000       0x18 UbuntuARM_Release/ImageEnhance.o
 .group         0x0000000000000000       0x14 UbuntuARM_Release/ImageEnhance.o
 .group         0x0000000000000000       0x14 UbuntuARM_Release/ImageEnhance.o
 .group         0x0000000000000000       0x14 UbuntuARM_Release/ImageEnhance.o
 .group         0x0000000000000000       0x14 UbuntuARM_Release/ImageEnhance.o
 .group         0x0000000000000000       0x14 UbuntuARM_Release/ImageEnhance.o
 .group         0x0000000000000000       0x14 UbuntuARM_Release/ImageEnhance.o
 .group         0x0000000000000000       0x14 UbuntuARM_Release/ImageEnhance.o
 .group         0x0000000000000000       0x18 UbuntuARM_Release/ImageEnhance.o
 .group         0x0000000000000000       0x14 UbuntuARM_Release/ImageEnhance.o
 .group         0x0000000000000000       0x14 UbuntuARM_Release/ImageEnhance.o
 .group         0x0000000000000000       0x14 UbuntuARM_Release/ImageEnhance.o
 .group         0x0000000000000000       0x14 UbuntuARM_Release/ImageEnhance.o
 .group         0x0000000000000000       0x14 UbuntuARM_Release/ImageEnhance.o
 .group         0x0000000000000000       0x14 UbuntuARM_Release/ImageEnhance.o
 .group         0x0000000000000000       0x14 UbuntuARM_Release/ImageEnhance.o
 .group         0x0000000000000000       0x18 UbuntuARM_Release/ImageEnhance.o
 .group         0x0000000000000000       0x14 UbuntuARM_Release/ImageEnhance.o
 .group         0x0000000000000000       0x14 UbuntuARM_Release/ImageEnhance.o
 .group         0x0000000000000000       0x14 UbuntuARM_Release/ImageEnhance.o
 .group         0x0000000000000000       0x14 UbuntuARM_Release/ImageEnhance.o
 .group         0x0000000000000000       0x18 UbuntuARM_Release/ImageEnhance.o
 .group         0x0000000000000000       0x14 UbuntuARM_Release/ImageEnhance.o
 .group         0x0000000000000000       0x14 UbuntuARM_Release/ImageEnhance.o
 .group         0x0000000000000000       0x14 UbuntuARM_Release/ImageEnhance.o
 .group         0x0000000000000000       0x18 UbuntuARM_Release/ImageEnhance.o
 .group         0x0000000000000000       0x14 UbuntuARM_Release/ImageEnhance.o
 .group         0x0000000000000000       0x14 UbuntuARM_Release/ImageEnhance.o
 .group         0x0000000000000000       0x14 UbuntuARM_Release/ImageEnhance.o
 .group         0x0000000000000000       0x14 UbuntuARM_Release/ImageEnhance.o
 .group         0x0000000000000000       0x18 UbuntuARM_Release/ImageEnhance.o
 .group         0x0000000000000000       0x14 UbuntuARM_Release/ImageEnhance.o
 .group         0x0000000000000000       0x14 UbuntuARM_Release/ImageEnhance.o
 .group         0x0000000000000000       0x14 UbuntuARM_Release/ImageEnhance.o
 .group         0x0000000000000000       0x14 UbuntuARM_Release/ImageEnhance.o
 .group         0x0000000000000000       0x18 UbuntuARM_Release/ImageEnhance.o
 .group         0x0000000000000000       0x18 UbuntuARM_Release/ImageEnhance.o
 .group         0x0000000000000000       0x18 UbuntuARM_Release/ImageEnhance.o
 .group         0x0000000000000000       0x18 UbuntuARM_Release/ImageEnhance.o
 .group         0x0000000000000000       0x18 UbuntuARM_Release/ImageEnhance.o
 .group         0x0000000000000000       0x18 UbuntuARM_Release/ImageEnhance.o
 .group         0x0000000000000000       0x18 UbuntuARM_Release/ImageEnhance.o
 .group         0x0000000000000000       0x18 UbuntuARM_Release/ImageEnhance.o
 .group         0x0000000000000000       0x18 UbuntuARM_Release/ImageEnhance.o
 .group         0x0000000000000000       0x18 UbuntuARM_Release/ImageEnhance.o
 .group         0x0000000000000000       0x18 UbuntuARM_Release/ImageEnhance.o
 .group         0x0000000000000000       0x18 UbuntuARM_Release/ImageEnhance.o
 .group         0x0000000000000000       0x1c UbuntuARM_Release/ImageEnhance.o
 .group         0x0000000000000000       0x18 UbuntuARM_Release/ImageEnhance.o
 .group         0x0000000000000000       0x18 UbuntuARM_Release/ImageEnhance.o
 .group         0x0000000000000000       0x18 UbuntuARM_Release/ImageEnhance.o
 .group         0x0000000000000000       0x18 UbuntuARM_Release/ImageEnhance.o
 .group         0x0000000000000000       0x18 UbuntuARM_Release/ImageEnhance.o
 .group         0x0000000000000000       0x18 UbuntuARM_Release/ImageEnhance.o
 .group         0x0000000000000000       0x1c UbuntuARM_Release/ImageEnhance.o
 .group         0x0000000000000000       0x18 UbuntuARM_Release/ImageEnhance.o
 .group         0x0000000000000000       0x18 UbuntuARM_Release/ImageEnhance.o
 .group         0x0000000000000000       0x18 UbuntuARM_Release/ImageEnhance.o
 .group         0x0000000000000000       0x18 UbuntuARM_Release/ImageEnhance.o
 .group         0x0000000000000000       0x1c UbuntuARM_Release/ImageEnhance.o
 .group         0x0000000000000000       0x18 UbuntuARM_Release/ImageEnhance.o
 .group         0x0000000000000000       0x1c UbuntuARM_Release/ImageEnhance.o
 .group         0x0000000000000000       0x1c UbuntuARM_Release/ImageEnhance.o
 .group         0x0000000000000000        0x8 UbuntuARM_Release/ImageEnhance.o
 .group         0x0000000000000000        0xc UbuntuARM_Release/ImageEnhance.o
 .group         0x0000000000000000        0x8 UbuntuARM_Release/ImageEnhance.o
 .group         0x0000000000000000        0xc UbuntuARM_Release/ImageEnhance.o
 .group         0x0000000000000000        0x8 UbuntuARM_Release/ImageEnhance.o
 .group         0x0000000000000000        0xc UbuntuARM_Release/ImageEnhance.o
 .group         0x0000000000000000        0x8 UbuntuARM_Release/ImageEnhance.o
 .group         0x0000000000000000        0x8 UbuntuARM_Release/ImageEnhance.o
 .group         0x0000000000000000        0x8 UbuntuARM_Release/ImageEnhance.o
 .group         0x0000000000000000        0x8 UbuntuARM_Release/ImageEnhance.o
 .group         0x0000000000000000        0x8 UbuntuARM_Release/ImageEnhance.o
 .group         0x0000000000000000        0x8 UbuntuARM_Release/ImageEnhance.o
 .group         0x0000000000000000        0x8 UbuntuARM_Release/ImageEnhance.o
 .group         0x0000000000000000        0x8 UbuntuARM_Release/ImageEnhance.o
 .group         0x0000000000000000        0x8 UbuntuARM_Release/ImageEnhance.o
 .group         0x0000000000000000        0xc UbuntuARM_Release/ImageEnhance.o
 .group         0x0000000000000000        0xc UbuntuARM_Release/ImageEnhance.o
 .group         0x0000000000000000        0xc UbuntuARM_Release/ImageEnhance.o
 .group         0x0000000000000000        0xc UbuntuARM_Release/ImageEnhance.o
 .group         0x0000000000000000        0xc UbuntuARM_Release/ImageEnhance.o
 .group         0x0000000000000000        0xc UbuntuARM_Release/ImageEnhance.o
 .group         0x0000000000000000        0xc UbuntuARM_Release/ImageEnhance.o
 .group         0x0000000000000000        0xc UbuntuARM_Release/ImageEnhance.o
 .group         0x0000000000000000        0xc UbuntuARM_Release/ImageEnhance.o
 .group         0x0000000000000000        0x8 UbuntuARM_Release/ImageEnhance.o
 .group         0x0000000000000000        0xc UbuntuARM_Release/ImageEnhance.o
 .group         0x0000000000000000        0x8 UbuntuARM_Release/ImageEnhance.o
 .group         0x0000000000000000        0xc UbuntuARM_Release/ImageEnhance.o
 .group         0x0000000000000000        0x8 UbuntuARM_Release/ImageEnhance.o
 .group         0x0000000000000000        0xc UbuntuARM_Release/ImageEnhance.o
 .group         0x0000000000000000        0x8 UbuntuARM_Release/ImageEnhance.o
 .group         0x0000000000000000        0xc UbuntuARM_Release/ImageEnhance.o
 .group         0x0000000000000000        0x8 UbuntuARM_Release/ImageEnhance.o
 .group         0x0000000000000000        0xc UbuntuARM_Release/ImageEnhance.o
 .group         0x0000000000000000        0x8 UbuntuARM_Release/ImageEnhance.o
 .group         0x0000000000000000        0xc UbuntuARM_Release/ImageEnhance.o
 .group         0x0000000000000000        0x8 UbuntuARM_Release/ImageEnhance.o
 .group         0x0000000000000000        0xc UbuntuARM_Release/ImageEnhance.o
 .group         0x0000000000000000        0x8 UbuntuARM_Release/ImageEnhance.o
 .group         0x0000000000000000        0xc UbuntuARM_Release/ImageEnhance.o
 .group         0x0000000000000000        0x8 UbuntuARM_Release/ImageEnhance.o
 .group         0x0000000000000000        0xc UbuntuARM_Release/ImageEnhance.o
 .group         0x0000000000000000        0x8 UbuntuARM_Release/ImageEnhance.o
 .group         0x0000000000000000        0xc UbuntuARM_Release/ImageEnhance.o
 .group         0x0000000000000000        0x8 UbuntuARM_Release/ImageEnhance.o
 .group         0x0000000000000000        0xc UbuntuARM_Release/ImageEnhance.o
 .group         0x0000000000000000        0x8 UbuntuARM_Release/ImageEnhance.o
 .group         0x0000000000000000        0xc UbuntuARM_Release/ImageEnhance.o
 .group         0x0000000000000000        0x8 UbuntuARM_Release/ImageEnhance.o
 .group         0x0000000000000000        0xc UbuntuARM_Release/ImageEnhance.o
 .group         0x0000000000000000        0x8 UbuntuARM_Release/ImageEnhance.o
 .group         0x0000000000000000        0xc UbuntuARM_Release/ImageEnhance.o
 .group         0x0000000000000000        0x8 UbuntuARM_Release/ImageEnhance.o
 .group         0x0000000000000000        0xc UbuntuARM_Release/ImageEnhance.o
 .group         0x0000000000000000        0x8 UbuntuARM_Release/ImageEnhance.o
 .group         0x0000000000000000        0xc UbuntuARM_Release/ImageEnhance.o
 .group         0x0000000000000000        0x8 UbuntuARM_Release/ImageEnhance.o
 .group         0x0000000000000000        0xc UbuntuARM_Release/ImageEnhance.o
 .group         0x0000000000000000        0x8 UbuntuARM_Release/ImageEnhance.o
 .group         0x0000000000000000        0xc UbuntuARM_Release/ImageEnhance.o
 .group         0x0000000000000000        0x8 UbuntuARM_Release/ImageEnhance.o
 .group         0x0000000000000000        0xc UbuntuARM_Release/ImageEnhance.o
 .group         0x0000000000000000        0x8 UbuntuARM_Release/ImageEnhance.o
 .group         0x0000000000000000        0xc UbuntuARM_Release/ImageEnhance.o
 .group         0x0000000000000000        0xc UbuntuARM_Release/ImageEnhance.o
 .group         0x0000000000000000        0xc UbuntuARM_Release/ImageEnhance.o
 .group         0x0000000000000000        0xc UbuntuARM_Release/ImageEnhance.o
 .group         0x0000000000000000        0xc UbuntuARM_Release/ImageEnhance.o
 .group         0x0000000000000000        0xc UbuntuARM_Release/ImageEnhance.o
 .group         0x0000000000000000        0xc UbuntuARM_Release/ImageEnhance.o
 .group         0x0000000000000000        0xc UbuntuARM_Release/ImageEnhance.o
 .group         0x0000000000000000        0xc UbuntuARM_Release/ImageEnhance.o
 .group         0x0000000000000000        0xc UbuntuARM_Release/ImageEnhance.o
 .note.GNU-stack
                0x0000000000000000        0x0 UbuntuARM_Release/ImageEnhance.o
 .note.GNU-stack
                0x0000000000000000        0x0 lib/libfastcv.a(libfastcv_la-fastcvManager.o)
 .note.GNU-stack
                0x0000000000000000        0x0 lib/libfastcv.a(libfastcv_la-fastcvMemAndroid.o)
 .note.GNU-stack
                0x0000000000000000        0x0 lib/libfastcv.a(libfastcv_la-fastcvMem.o)
 .note.GNU-stack
                0x0000000000000000        0x0 lib/libfastcv.a(libfastcv_la-fastcv.o)
 .note.GNU-stack
                0x0000000000000000        0x0 lib/libfastcv.a(libfastcv_la-fastcvHeapStats.o)
 .note.GNU-stack
                0x0000000000000000        0x0 lib/libfastcv.a(libfastcv_la-fastcvHelper.o)
 .note.GNU-stack
                0x0000000000000000        0x0 lib/libfastcv.a(libfastcv_la-fastcvHW.o)
 .note.GNU-stack
                0x0000000000000000        0x0 lib/libfastcv.a(libfastcv_la-fastcvAbsDiffC.o)
 .note.GNU-stack
                0x0000000000000000        0x0 lib/libfastcv.a(libfastcv_la-fastcvAdaptiveThresholdC.o)
 .note.GNU-stack
                0x0000000000000000        0x0 lib/libfastcv.a(libfastcv_la-fastcvAffineC.o)
 .note.GNU-stack
                0x0000000000000000        0x0 lib/libfastcv.a(libfastcv_la-fastcvArithmC.o)
 .note.GNU-stack
                0x0000000000000000        0x0 lib/libfastcv.a(libfastcv_la-fastcvAverageC.o)
 .note.GNU-stack
                0x0000000000000000        0x0 lib/libfastcv.a(libfastcv_la-fastcvBGCodeBookC.o)
 .note.GNU-stack
                0x0000000000000000        0x0 lib/libfastcv.a(libfastcv_la-fastcvBitCntC.o)
 .note.GNU-stack
                0x0000000000000000        0x0 lib/libfastcv.a(libfastcv_la-fastcvBitwiseOpC.o)
 .note.GNU-stack
                0x0000000000000000        0x0 lib/libfastcv.a(libfastcv_la-fastcvCalib3DC.o)
 .note.GNU-stack
                0x0000000000000000        0x0 lib/libfastcv.a(libfastcv_la-fastcvCalibrateC.o)
 .note.GNU-stack
                0x0000000000000000        0x0 lib/libfastcv.a(libfastcv_la-fastcvChannelC.o)
 .note.GNU-stack
                0x0000000000000000        0x0 lib/libfastcv.a(libfastcv_la-fastcvColor2C.o)
 .note.GNU-stack
                0x0000000000000000        0x0 lib/libfastcv.a(libfastcv_la-fastcvColorC.o)
 .note.GNU-stack
                0x0000000000000000        0x0 lib/libfastcv.a(libfastcv_la-fastcvColorPpfYuvUtilsC.o)
 .note.GNU-stack
                0x0000000000000000        0x0 lib/libfastcv.a(libfastcv_la-fastcvColorRgb2LabC.o)
 .note.GNU-stack
                0x0000000000000000        0x0 lib/libfastcv.a(libfastcv_la-fastcvColorRgb2YuvC.o)
 .note.GNU-stack
                0x0000000000000000        0x0 lib/libfastcv.a(libfastcv_la-fastcvColorRgbConversionC.o)
 .note.GNU-stack
                0x0000000000000000        0x0 lib/libfastcv.a(libfastcv_la-fastcvColorYuvConversionC.o)
 .note.GNU-stack
                0x0000000000000000        0x0 lib/libfastcv.a(libfastcv_la-fastcvContourC.o)
 .note.GNU-stack
                0x0000000000000000        0x0 lib/libfastcv.a(libfastcv_la-fastcvCopyC.o)
 .note.GNU-stack
                0x0000000000000000        0x0 lib/libfastcv.a(libfastcv_la-fastcvCornerSubPixelC.o)
 .note.GNU-stack
                0x0000000000000000        0x0 lib/libfastcv.a(libfastcv_la-fastcvDepthFusionC.o)
 .note.GNU-stack
                0x0000000000000000        0x0 lib/libfastcv.a(libfastcv_la-fastcvDescriptor2C.o)
 .note.GNU-stack
                0x0000000000000000        0x0 lib/libfastcv.a(libfastcv_la-fastcvDescriptorC.o)
 .note.GNU-stack
                0x0000000000000000        0x0 lib/libfastcv.a(libfastcv_la-fastcvEucldeanC.o)
 .note.GNU-stack
                0x0000000000000000        0x0 lib/libfastcv.a(libfastcv_la-fastcvFloodFillC.o)
 .note.GNU-stack
                0x0000000000000000        0x0 lib/libfastcv.a(libfastcv_la-fastcvGeomC.o)
 .note.GNU-stack
                0x0000000000000000        0x0 lib/libfastcv.a(libfastcv_la-fastcvHarrisC.o)
 .note.GNU-stack
                0x0000000000000000        0x0 lib/libfastcv.a(libfastcv_la-fastcvHOGC.o)
 .note.GNU-stack
                0x0000000000000000        0x0 lib/libfastcv.a(libfastcv_la-fastcvHoughCircleC.o)
 .note.GNU-stack
                0x0000000000000000        0x0 lib/libfastcv.a(libfastcv_la-fastcvHoughLineC.o)
 .note.GNU-stack
                0x0000000000000000        0x0 lib/libfastcv.a(libfastcv_la-fastcvImageDiffC.o)
 .note.GNU-stack
                0x0000000000000000        0x0 lib/libfastcv.a(libfastcv_la-fastcvImageIntensityC.o)
 .note.GNU-stack
                0x0000000000000000        0x0 lib/libfastcv.a(libfastcv_la-fastcvImagePostProcC.o)
 .note.GNU-stack
                0x0000000000000000        0x0 lib/libfastcv.a(libfastcv_la-fastcvImageSegmentationC.o)
 .note.GNU-stack
                0x0000000000000000        0x0 lib/libfastcv.a(libfastcv_la-fastcvIntegrateImageC.o)
 .note.GNU-stack
                0x0000000000000000        0x0 lib/libfastcv.a(libfastcv_la-fastcvIntegrateImageYuvC.o)
 .note.GNU-stack
                0x0000000000000000        0x0 lib/libfastcv.a(libfastcv_la-fastcvIppScaleC.o)
 .note.GNU-stack
                0x0000000000000000        0x0 lib/libfastcv.a(libfastcv_la-fastcvIppTransformC.o)
 .note.GNU-stack
                0x0000000000000000        0x0 lib/libfastcv.a(libfastcv_la-fastcvKDTree36s8f32C.o)
 .note.GNU-stack
                0x0000000000000000        0x0 lib/libfastcv.a(libfastcv_la-fastcvKMeansTreeSearchC.o)
 .note.GNU-stack
                0x0000000000000000        0x0 lib/libfastcv.a(libfastcv_la-fastcvLBPC.o)
 .note.GNU-stack
                0x0000000000000000        0x0 lib/libfastcv.a(libfastcv_la-fastcvLinearSearchC.o)
 .note.GNU-stack
                0x0000000000000000        0x0 lib/libfastcv.a(libfastcv_la-fastcvMotionHistoryC.o)
 .note.GNU-stack
                0x0000000000000000        0x0 lib/libfastcv.a(libfastcv_la-fastcvMserFxpC.o)
 .note.GNU-stack
                0x0000000000000000        0x0 lib/libfastcv.a(libfastcv_la-fastcvNCCPatchC.o)
 .note.GNU-stack
                0x0000000000000000        0x0 lib/libfastcv.a(libfastcv_la-fastcvPolygonC.o)
 .note.GNU-stack
                0x0000000000000000        0x0 lib/libfastcv.a(libfastcv_la-fastcvRemapC.o)
 .note.GNU-stack
                0x0000000000000000        0x0 lib/libfastcv.a(libfastcv_la-fastcvSADC.o)
 .note.GNU-stack
                0x0000000000000000        0x0 lib/libfastcv.a(libfastcv_la-fastcvScaleC.o)
 .group         0x0000000000000000       0x10 lib/libfastcv.a(libfastcv_la-fastcvSegmentMaskC.o)
 .note.GNU-stack
                0x0000000000000000        0x0 lib/libfastcv.a(libfastcv_la-fastcvSegmentMaskC.o)
 .note.GNU-stack
                0x0000000000000000        0x0 lib/libfastcv.a(libfastcv_la-fastcvSetC.o)
 .note.GNU-stack
                0x0000000000000000        0x0 lib/libfastcv.a(libfastcv_la-fastcvSmoothC.o)
 .note.GNU-stack
                0x0000000000000000        0x0 lib/libfastcv.a(libfastcv_la-fastcvSolveC.o)
 .note.GNU-stack
                0x0000000000000000        0x0 lib/libfastcv.a(libfastcv_la-fastcvSVDC.o)
 .note.GNU-stack
                0x0000000000000000        0x0 lib/libfastcv.a(libfastcv_la-fastcvSVMPredictC.o)
 .note.GNU-stack
                0x0000000000000000        0x0 lib/libfastcv.a(libfastcv_la-fastcvTrackC.o)
 .group         0x0000000000000000       0x10 lib/libfastcv.a(libfastcv_la-fastcvTransformC.o)
 .note.GNU-stack
                0x0000000000000000        0x0 lib/libfastcv.a(libfastcv_la-fastcvTransformC.o)
 .note.GNU-stack
                0x0000000000000000        0x0 lib/libfastcv.a(libfastcv_la-fastcvUpsampleC.o)
 .note.GNU-stack
                0x0000000000000000        0x0 lib/libfastcv.a(libfastcv_la-fastcvVectorC.o)
 .group         0x0000000000000000       0x10 lib/libfastcv.a(libfastcv_la-fastcvWarpC.o)
 .note.GNU-stack
                0x0000000000000000        0x0 lib/libfastcv.a(libfastcv_la-fastcvWarpC.o)
 .note.GNU-stack
                0x0000000000000000        0x0 lib/libfastcv.a(libfastcv_la-fastcvHwAndroid.o)
 .note.GNU-stack
                0x0000000000000000        0x0 lib/libfastcv.a(libfastcv_la-fastcvRemoteLibAndroid.o)
 .note.GNU-stack
                0x0000000000000000        0x0 lib/libfastcv.a(libfastcv_la-fastcvTrigonometricTable.o)
 .note.GNU-stack
                0x0000000000000000        0x0 lib/libfastcv.a(libfastcv_la-fastcvDotC.o)
 .note.GNU-stack
                0x0000000000000000        0x0 lib/libfastcv.a(libfastcv_la-fastcvEdgeC.o)
 .note.GNU-stack
                0x0000000000000000        0x0 lib/libfastcv.a(libfastcv_la-fastcvFastC.o)
 .note.GNU-stack
                0x0000000000000000        0x0 lib/libfastcv.a(libfastcv_la-fastcvRectangleC.o)
 .note.GNU-stack
                0x0000000000000000        0x0 lib/libfastcv.a(libfastcv_la-fastcvSSDC.o)
 .note.GNU-stack
                0x0000000000000000        0x0 lib/libfastcv.a(fastcvCalibrateV.o)
 .note.GNU-stack
                0x0000000000000000        0x0 lib/libfastcv.a(fastcvEdgeV2.o)
 .note.GNU-stack
                0x0000000000000000        0x0 lib/libfastcv.a(libfastcvAbsDiffV_la-fastcvAbsDiffV.o)
 .note.GNU-stack
                0x0000000000000000        0x0 lib/libfastcv.a(libfastcvAdaptiveThresholdV_la-fastcvAdaptiveThresholdV.o)
 .note.GNU-stack
                0x0000000000000000        0x0 lib/libfastcv.a(libfastcvBlurV_la-fastcvBlurV.o)
 .note.GNU-stack
                0x0000000000000000        0x0 lib/libfastcv.a(libfastcvDescriptorV_la-fastcvDescriptorV.o)
 .note.GNU-stack
                0x0000000000000000        0x0 lib/libfastcv.a(libfastcvDotV_la-fastcvDotV.o)
 .note.GNU-stack
                0x0000000000000000        0x0 lib/libfastcv.a(libfastcvFast10V_la-fastcvFast10V.o)
 .note.GNU-stack
                0x0000000000000000        0x0 lib/libfastcv.a(libfastcvFastV_la-fastcvFastV.o)
 .note.GNU-stack
                0x0000000000000000        0x0 lib/libfastcv.a(libfastcvFilter1V_la-fastcvFilter1V.o)
 .note.GNU-stack
                0x0000000000000000        0x0 lib/libfastcv.a(libfastcvFilterV_la-fastcvFilterV.o)
 .note.GNU-stack
                0x0000000000000000        0x0 lib/libfastcv.a(libfastcvMeanShiftV_la-fastcvMeanShiftV.o)
 .note.GNU-stack
                0x0000000000000000        0x0 lib/libfastcv.a(libfastcvSVDV_la-fastcvSVDV.o)
 .note.GNU-stack
                0x0000000000000000        0x0 lib/libfastcv.a(libfastcvScaleV_la-fastcvScaleV.o)
 .note.GNU-stack
                0x0000000000000000        0x0 lib/libfastcv.a(libfastcvWarpV_la-fastcvWarpV.o)
 .note.GNU-stack
                0x0000000000000000        0x0 lib/libfastcv.a(libfastcvv_la-fastcvAffineV1.o)
 .note.GNU-stack
                0x0000000000000000        0x0 lib/libfastcv.a(libfastcvv_la-fastcvArithmV.o)
 .note.GNU-stack
                0x0000000000000000        0x0 lib/libfastcv.a(libfastcvv_la-fastcvAverageV.o)
 .note.GNU-stack
                0x0000000000000000        0x0 lib/libfastcv.a(libfastcvv_la-fastcvBitCntWrapV.o)
 .note.GNU-stack
                0x0000000000000000        0x0 lib/libfastcv.a(libfastcvv_la-fastcvBitwiseOpV.o)
 .note.GNU-stack
                0x0000000000000000        0x0 lib/libfastcv.a(libfastcvv_la-fastcvBoundingRectV.o)
 .note.GNU-stack
                0x0000000000000000        0x0 lib/libfastcv.a(libfastcvv_la-fastcvCalib3DV.o)
 .note.GNU-stack
                0x0000000000000000        0x0 lib/libfastcv.a(libfastcvv_la-fastcvCalibrateV1.o)
 .note.GNU-stack
                0x0000000000000000        0x0 lib/libfastcv.a(libfastcvv_la-fastcvChannelV.o)
 .note.GNU-stack
                0x0000000000000000        0x0 lib/libfastcv.a(libfastcvv_la-fastcvColorPpfYuvUtilsV.o)
 .note.GNU-stack
                0x0000000000000000        0x0 lib/libfastcv.a(libfastcvv_la-fastcvColorRgb2LabV.o)
 .note.GNU-stack
                0x0000000000000000        0x0 lib/libfastcv.a(libfastcvv_la-fastcvColorRgb2YuvV.o)
 .note.GNU-stack
                0x0000000000000000        0x0 lib/libfastcv.a(libfastcvv_la-fastcvColorRgbConversionV.o)
 .note.GNU-stack
                0x0000000000000000        0x0 lib/libfastcv.a(libfastcvv_la-fastcvColorV.o)
 .note.GNU-stack
                0x0000000000000000        0x0 lib/libfastcv.a(libfastcvv_la-fastcvColorYuvConversionV.o)
 .note.GNU-stack
                0x0000000000000000        0x0 lib/libfastcv.a(libfastcvv_la-fastcvContourV.o)
 .note.GNU-stack
                0x0000000000000000        0x0 lib/libfastcv.a(libfastcvv_la-fastcvCopyV.o)
 .note.GNU-stack
                0x0000000000000000        0x0 lib/libfastcv.a(libfastcvv_la-fastcvCornerSubPixelV.o)
 .note.GNU-stack
                0x0000000000000000        0x0 lib/libfastcv.a(libfastcvv_la-fastcvDepthFusionV.o)
 .note.GNU-stack
                0x0000000000000000        0x0 lib/libfastcv.a(libfastcvv_la-fastcvDescriptor2V.o)
 .note.GNU-stack
                0x0000000000000000        0x0 lib/libfastcv.a(libfastcvv_la-fastcvEdgeV.o)
 .note.GNU-stack
                0x0000000000000000        0x0 lib/libfastcv.a(libfastcvv_la-fastcvEucldeanV.o)
 .note.GNU-stack
                0x0000000000000000        0x0 lib/libfastcv.a(libfastcvv_la-fastcvFloodFillV.o)
 .note.GNU-stack
                0x0000000000000000        0x0 lib/libfastcv.a(libfastcvv_la-fastcvGeomV.o)
 .note.GNU-stack
                0x0000000000000000        0x0 lib/libfastcv.a(libfastcvv_la-fastcvHOGV.o)
 .note.GNU-stack
                0x0000000000000000        0x0 lib/libfastcv.a(libfastcvv_la-fastcvHarrisV.o)
 .note.GNU-stack
                0x0000000000000000        0x0 lib/libfastcv.a(libfastcvv_la-fastcvHomographyV.o)
 .note.GNU-stack
                0x0000000000000000        0x0 lib/libfastcv.a(libfastcvv_la-fastcvHoughCircleV.o)
 .note.GNU-stack
                0x0000000000000000        0x0 lib/libfastcv.a(libfastcvv_la-fastcvHoughLineV.o)
 .note.GNU-stack
                0x0000000000000000        0x0 lib/libfastcv.a(libfastcvv_la-fastcvImageDiffV.o)
 .note.GNU-stack
                0x0000000000000000        0x0 lib/libfastcv.a(libfastcvv_la-fastcvImageIntensityV.o)
 .note.GNU-stack
                0x0000000000000000        0x0 lib/libfastcv.a(libfastcvv_la-fastcvImagePostProcV.o)
 .note.GNU-stack
                0x0000000000000000        0x0 lib/libfastcv.a(libfastcvv_la-fastcvIntegrateImageV.o)
 .note.GNU-stack
                0x0000000000000000        0x0 lib/libfastcv.a(libfastcvv_la-fastcvIntegrateImageYuvV.o)
 .note.GNU-stack
                0x0000000000000000        0x0 lib/libfastcv.a(libfastcvv_la-fastcvIppScaleV.o)
 .note.GNU-stack
                0x0000000000000000        0x0 lib/libfastcv.a(libfastcvv_la-fastcvIppTransformV.o)
 .note.GNU-stack
                0x0000000000000000        0x0 lib/libfastcv.a(libfastcvv_la-fastcvLBPV.o)
 .note.GNU-stack
                0x0000000000000000        0x0 lib/libfastcv.a(libfastcvv_la-fastcvMotionHistoryV.o)
 .note.GNU-stack
                0x0000000000000000        0x0 lib/libfastcv.a(libfastcvv_la-fastcvMserFxpV.o)
 .note.GNU-stack
                0x0000000000000000        0x0 lib/libfastcv.a(libfastcvv_la-fastcvNCCPatchV.o)
 .note.GNU-stack
                0x0000000000000000        0x0 lib/libfastcv.a(libfastcvv_la-fastcvPolygonV.o)
 .note.GNU-stack
                0x0000000000000000        0x0 lib/libfastcv.a(libfastcvv_la-fastcvPyramidV.o)
 .note.GNU-stack
                0x0000000000000000        0x0 lib/libfastcv.a(libfastcvv_la-fastcvRemapV.o)
 .note.GNU-stack
                0x0000000000000000        0x0 lib/libfastcv.a(libfastcvv_la-fastcvSADV.o)
 .note.GNU-stack
                0x0000000000000000        0x0 lib/libfastcv.a(libfastcvv_la-fastcvSSDV.o)
 .note.GNU-stack
                0x0000000000000000        0x0 lib/libfastcv.a(libfastcvv_la-fastcvSVMPredictV.o)
 .note.GNU-stack
                0x0000000000000000        0x0 lib/libfastcv.a(libfastcvv_la-fastcvSetV.o)
 .note.GNU-stack
                0x0000000000000000        0x0 lib/libfastcv.a(libfastcvv_la-fastcvSmoothV.o)
 .note.GNU-stack
                0x0000000000000000        0x0 lib/libfastcv.a(libfastcvv_la-fastcvThresholdV.o)
 .note.GNU-stack
                0x0000000000000000        0x0 lib/libfastcv.a(libfastcvv_la-fastcvTrackV.o)
 .note.GNU-stack
                0x0000000000000000        0x0 lib/libfastcv.a(libfastcvv_la-fastcvTransformV.o)
 .note.GNU-stack
                0x0000000000000000        0x0 lib/libfastcv.a(libfastcvv_la-fastcvUpsampleV.o)
 .note.GNU-stack
                0x0000000000000000        0x0 lib/libfastcv.a(libfastcvv_la-fastcvVectorV.o)
 .note.GNU-stack
                0x0000000000000000        0x0 lib/libfastcv.a(libIlpsources_la-fastcvBitCntIlpC.o)
 .group         0x0000000000000000       0x10 lib/libfastcv.a(libIlpsources_la-fastcvBlurIlpC.o)
 .note.GNU-stack
                0x0000000000000000        0x0 lib/libfastcv.a(libIlpsources_la-fastcvBlurIlpC.o)
 .note.GNU-stack
                0x0000000000000000        0x0 lib/libfastcv.a(libIlpsources_la-fastcvBoundingRectC.o)
 .note.GNU-stack
                0x0000000000000000        0x0 lib/libfastcv.a(libIlpsources_la-fastcvFilter1C.o)
 .note.GNU-stack
                0x0000000000000000        0x0 lib/libfastcv.a(libIlpsources_la-fastcvImagePostProcIlpC.o)
 .note.GNU-stack
                0x0000000000000000        0x0 lib/libfastcv.a(libIlpsources_la-fastcvScaleIlpC.o)
 .note.GNU-stack
                0x0000000000000000        0x0 lib/libfastcv.a(libfastcvIlpC_la-fastcvFastIlpC.o)
 .note.GNU-stack
                0x0000000000000000        0x0 lib/libfastcv.a(libfastcvFast10C_la-fastcvFast10C.o)
 .note.GNU-stack
                0x0000000000000000        0x0 lib/libfastcv.a(libfastcvMeanShiftC_la-fastcvMeanShiftC.o)
 .note.GNU-stack
                0x0000000000000000        0x0 lib/libfastcv.a(libfastcvPyramidC_la-fastcvPyramidC.o)
 .note.GNU-stack
                0x0000000000000000        0x0 lib/libfastcv.a(libfastcvHomographyC_la-fastcvHomographyC.o)
 .note.GNU-stack
                0x0000000000000000        0x0 lib/libfastcv.a(libfastcvThresholdC_la-fastcvThresholdC.o)
 .note.GNU-stack
                0x0000000000000000        0x0 lib/libfastcv.a(libfastcvBlurC_la-fastcvBlurC.o)
 .note.GNU-stack
                0x0000000000000000        0x0 lib/libfastcv.a(libfastcvFilterC_la-fastcvFilterC.o)
 .note.GNU-stack
                0x0000000000000000        0x0 lib/libfastcv.a(libfastcv_la-fastcvManager_.o)
 .note.GNU-stack
                0x0000000000000000        0x0 lib/libfastcv.a(libfastcv_la-fastcvUtils.o)
 .note.GNU-stack
                0x0000000000000000        0x0 lib/libfastcv.a(fastcvIntegrateImageV2.o)
 .note.GNU-stack
                0x0000000000000000        0x0 lib/libfastcv.a(fastcvIppDctV.o)
 .note.GNU-stack
                0x0000000000000000        0x0 lib/libfastcv.a(fastcvIppIdctV.o)
 .note.GNU-stack
                0x0000000000000000        0x0 lib/libfastcv.a(libfastcvv_la-fastcvColorIppPlanarV.o)
 .note.GNU-stack
                0x0000000000000000        0x0 lib/libfastcv.a(libfastcvv_la-fastcvColorIppV.o)
 .note.GNU-stack
                0x0000000000000000        0x0 lib/libfastcv.a(libfastcvv_la-fastcvColorRgb2RgbV.o)
 .note.GNU-stack
                0x0000000000000000        0x0 lib/libfastcv.a(libfastcvv_la-fastcvIppDwtV.o)
 .note.GNU-stack
                0x0000000000000000        0x0 lib/libfastcv.a(libfastcvv_la-fastcvIppIdwtV.o)
 .note.GNU-stack
                0x0000000000000000        0x0 /media/ram/363029d1-6365-487a-b2e3-bd8d034c2ea4/fastcv/hexagondsp/Hexagon_SDK/3.5.2/tools/linaro/bin/../lib/gcc/arm-linux-gnueabihf/8.2.1/libgcc_eh.a(unwind-arm.o)
 .note.GNU-stack
                0x0000000000000000        0x0 /media/ram/363029d1-6365-487a-b2e3-bd8d034c2ea4/fastcv/hexagondsp/Hexagon_SDK/3.5.2/tools/linaro/bin/../lib/gcc/arm-linux-gnueabihf/8.2.1/libgcc_eh.a(libunwind.o)
 .note.GNU-stack
                0x0000000000000000        0x0 /media/ram/363029d1-6365-487a-b2e3-bd8d034c2ea4/fastcv/hexagondsp/Hexagon_SDK/3.5.2/tools/linaro/bin/../lib/gcc/arm-linux-gnueabihf/8.2.1/libgcc_eh.a(pr-support.o)
 .note.GNU-stack
                0x0000000000000000        0x0 /media/ram/363029d1-6365-487a-b2e3-bd8d034c2ea4/fastcv/hexagondsp/Hexagon_SDK/3.5.2/tools/linaro/bin/../lib/gcc/arm-linux-gnueabihf/8.2.1/libgcc.a(_udivsi3.o)
 .note.GNU-stack
                0x0000000000000000        0x0 /media/ram/363029d1-6365-487a-b2e3-bd8d034c2ea4/fastcv/hexagondsp/Hexagon_SDK/3.5.2/tools/linaro/bin/../lib/gcc/arm-linux-gnueabihf/8.2.1/libgcc.a(_divsi3.o)
 .note.GNU-stack
                0x0000000000000000        0x0 /media/ram/363029d1-6365-487a-b2e3-bd8d034c2ea4/fastcv/hexagondsp/Hexagon_SDK/3.5.2/tools/linaro/bin/../lib/gcc/arm-linux-gnueabihf/8.2.1/libgcc.a(_arm_addsubdf3.o)
 .note.GNU-stack
                0x0000000000000000        0x0 /media/ram/363029d1-6365-487a-b2e3-bd8d034c2ea4/fastcv/hexagondsp/Hexagon_SDK/3.5.2/tools/linaro/bin/../lib/gcc/arm-linux-gnueabihf/8.2.1/libgcc.a(_arm_addsubsf3.o)
 .note.GNU-stack
                0x0000000000000000        0x0 /media/ram/363029d1-6365-487a-b2e3-bd8d034c2ea4/fastcv/hexagondsp/Hexagon_SDK/3.5.2/tools/linaro/bin/../lib/gcc/arm-linux-gnueabihf/8.2.1/libgcc.a(_aeabi_ldivmod.o)
 .note.GNU-stack
                0x0000000000000000        0x0 /media/ram/363029d1-6365-487a-b2e3-bd8d034c2ea4/fastcv/hexagondsp/Hexagon_SDK/3.5.2/tools/linaro/bin/../lib/gcc/arm-linux-gnueabihf/8.2.1/libgcc.a(_dvmd_lnx.o)
 .note.GNU-stack
                0x0000000000000000        0x0 /media/ram/363029d1-6365-487a-b2e3-bd8d034c2ea4/fastcv/hexagondsp/Hexagon_SDK/3.5.2/tools/linaro/bin/../lib/gcc/arm-linux-gnueabihf/8.2.1/libgcc.a(_powisf2.o)
 .note.GNU-stack
                0x0000000000000000        0x0 /media/ram/363029d1-6365-487a-b2e3-bd8d034c2ea4/fastcv/hexagondsp/Hexagon_SDK/3.5.2/tools/linaro/bin/../lib/gcc/arm-linux-gnueabihf/8.2.1/libgcc.a(_udivmoddi4.o)
 .note.GNU-stack
                0x0000000000000000        0x0 /media/ram/363029d1-6365-487a-b2e3-bd8d034c2ea4/fastcv/hexagondsp/Hexagon_SDK/3.5.2/tools/linaro/bin/../lib/gcc/arm-linux-gnueabihf/8.2.1/crtend.o
 .note.GNU-stack
                0x0000000000000000        0x0 /media/ram/363029d1-6365-487a-b2e3-bd8d034c2ea4/fastcv/hexagondsp/Hexagon_SDK/3.5.2/tools/linaro/bin/../arm-linux-gnueabihf/libc/usr/lib/crtn.o

Memory Configuration

Name             Origin             Length             Attributes
*default*        0x0000000000000000 0xffffffffffffffff

Linker script and memory map

LOAD /media/ram/363029d1-6365-487a-b2e3-bd8d034c2ea4/fastcv/hexagondsp/Hexagon_SDK/3.5.2/tools/linaro/bin/../arm-linux-gnueabihf/libc/usr/lib/crt1.o
LOAD /media/ram/363029d1-6365-487a-b2e3-bd8d034c2ea4/fastcv/hexagondsp/Hexagon_SDK/3.5.2/tools/linaro/bin/../arm-linux-gnueabihf/libc/usr/lib/crti.o
LOAD /media/ram/363029d1-6365-487a-b2e3-bd8d034c2ea4/fastcv/hexagondsp/Hexagon_SDK/3.5.2/tools/linaro/bin/../lib/gcc/arm-linux-gnueabihf/8.2.1/crtbegin.o
LOAD /media/ram/363029d1-6365-487a-b2e3-bd8d034c2ea4/fastcv/hexagondsp/Hexagon_SDK/3.5.2/tools/linaro/bin/../arm-linux-gnueabihf/libc/usr/lib/libpthread.so
LOAD /media/ram/363029d1-6365-487a-b2e3-bd8d034c2ea4/fastcv/hexagondsp/Hexagon_SDK/3.5.2/tools/linaro/bin/../arm-linux-gnueabihf/libc/usr/lib/libc.so
START GROUP
LOAD /media/ram/363029d1-6365-487a-b2e3-bd8d034c2ea4/fastcv/hexagondsp/Hexagon_SDK/3.5.2/tools/linaro/bin/../arm-linux-gnueabihf/libc/lib/libc.so.6
LOAD /media/ram/363029d1-6365-487a-b2e3-bd8d034c2ea4/fastcv/hexagondsp/Hexagon_SDK/3.5.2/tools/linaro/bin/../arm-linux-gnueabihf/libc/usr/lib/libc_nonshared.a
LOAD /media/ram/363029d1-6365-487a-b2e3-bd8d034c2ea4/fastcv/hexagondsp/Hexagon_SDK/3.5.2/tools/linaro/bin/../arm-linux-gnueabihf/libc/lib/ld-linux-armhf.so.3
END GROUP
LOAD /media/ram/363029d1-6365-487a-b2e3-bd8d034c2ea4/fastcv/hexagondsp/Hexagon_SDK/3.5.2/tools/linaro/bin/../arm-linux-gnueabihf/libc/usr/lib/libdl.so
LOAD /media/ram/363029d1-6365-487a-b2e3-bd8d034c2ea4/fastcv/hexagondsp/Hexagon_SDK/3.5.2/tools/linaro/bin/../lib/gcc/arm-linux-gnueabihf/8.2.1/../../../../arm-linux-gnueabihf/lib/libstdc++.so
START GROUP
LOAD UbuntuARM_Release/ImageEnhance.o
LOAD lib/libfastcv.a
LOAD lib/libopencv_videoio.so.3.4.3
LOAD lib/libopencv_objdetect.so.3.4.3
LOAD lib/libopencv_highgui.so.3.4.3
LOAD lib/libopencv_core.so.3.4.3
LOAD lib/libopencv_imgproc.so.3.4.3
LOAD lib/libopencv_imgcodecs.so.3.4.3
END GROUP
LOAD /media/ram/363029d1-6365-487a-b2e3-bd8d034c2ea4/fastcv/hexagondsp/Hexagon_SDK/3.5.2/tools/linaro/bin/../arm-linux-gnueabihf/libc/usr/lib/libm.so
LOAD /media/ram/363029d1-6365-487a-b2e3-bd8d034c2ea4/fastcv/hexagondsp/Hexagon_SDK/3.5.2/tools/linaro/bin/../arm-linux-gnueabihf/libc/usr/lib/libc.so
START GROUP
LOAD /media/ram/363029d1-6365-487a-b2e3-bd8d034c2ea4/fastcv/hexagondsp/Hexagon_SDK/3.5.2/tools/linaro/bin/../arm-linux-gnueabihf/libc/lib/libc.so.6
LOAD /media/ram/363029d1-6365-487a-b2e3-bd8d034c2ea4/fastcv/hexagondsp/Hexagon_SDK/3.5.2/tools/linaro/bin/../arm-linux-gnueabihf/libc/usr/lib/libc_nonshared.a
LOAD /media/ram/363029d1-6365-487a-b2e3-bd8d034c2ea4/fastcv/hexagondsp/Hexagon_SDK/3.5.2/tools/linaro/bin/../arm-linux-gnueabihf/libc/lib/ld-linux-armhf.so.3
END GROUP
LOAD /media/ram/363029d1-6365-487a-b2e3-bd8d034c2ea4/fastcv/hexagondsp/Hexagon_SDK/3.5.2/tools/linaro/bin/../lib/gcc/arm-linux-gnueabihf/8.2.1/../../../../arm-linux-gnueabihf/lib/libsupc++.a
LOAD /media/ram/363029d1-6365-487a-b2e3-bd8d034c2ea4/fastcv/hexagondsp/Hexagon_SDK/3.5.2/tools/linaro/bin/../lib/gcc/arm-linux-gnueabihf/8.2.1/libgcc_eh.a
LOAD /media/ram/363029d1-6365-487a-b2e3-bd8d034c2ea4/fastcv/hexagondsp/Hexagon_SDK/3.5.2/tools/linaro/bin/../lib/gcc/arm-linux-gnueabihf/8.2.1/libgcc.a
LOAD /media/ram/363029d1-6365-487a-b2e3-bd8d034c2ea4/fastcv/hexagondsp/Hexagon_SDK/3.5.2/tools/linaro/bin/../lib/gcc/arm-linux-gnueabihf/8.2.1/libgcc.a
LOAD /media/ram/363029d1-6365-487a-b2e3-bd8d034c2ea4/fastcv/hexagondsp/Hexagon_SDK/3.5.2/tools/linaro/bin/../lib/gcc/arm-linux-gnueabihf/8.2.1/../../../../arm-linux-gnueabihf/lib/libgcc_s.so
START GROUP
LOAD /media/ram/363029d1-6365-487a-b2e3-bd8d034c2ea4/fastcv/hexagondsp/Hexagon_SDK/3.5.2/tools/linaro/bin/../lib/gcc/arm-linux-gnueabihf/8.2.1/../../../../arm-linux-gnueabihf/lib/libgcc_s.so.1
LOAD /media/ram/363029d1-6365-487a-b2e3-bd8d034c2ea4/fastcv/hexagondsp/Hexagon_SDK/3.5.2/tools/linaro/bin/../lib/gcc/arm-linux-gnueabihf/8.2.1/libgcc.a
END GROUP
LOAD /media/ram/363029d1-6365-487a-b2e3-bd8d034c2ea4/fastcv/hexagondsp/Hexagon_SDK/3.5.2/tools/linaro/bin/../arm-linux-gnueabihf/libc/usr/lib/libc.so
START GROUP
LOAD /media/ram/363029d1-6365-487a-b2e3-bd8d034c2ea4/fastcv/hexagondsp/Hexagon_SDK/3.5.2/tools/linaro/bin/../arm-linux-gnueabihf/libc/lib/libc.so.6
LOAD /media/ram/363029d1-6365-487a-b2e3-bd8d034c2ea4/fastcv/hexagondsp/Hexagon_SDK/3.5.2/tools/linaro/bin/../arm-linux-gnueabihf/libc/usr/lib/libc_nonshared.a
LOAD /media/ram/363029d1-6365-487a-b2e3-bd8d034c2ea4/fastcv/hexagondsp/Hexagon_SDK/3.5.2/tools/linaro/bin/../arm-linux-gnueabihf/libc/lib/ld-linux-armhf.so.3
END GROUP
LOAD /media/ram/363029d1-6365-487a-b2e3-bd8d034c2ea4/fastcv/hexagondsp/Hexagon_SDK/3.5.2/tools/linaro/bin/../lib/gcc/arm-linux-gnueabihf/8.2.1/libgcc.a
LOAD /media/ram/363029d1-6365-487a-b2e3-bd8d034c2ea4/fastcv/hexagondsp/Hexagon_SDK/3.5.2/tools/linaro/bin/../lib/gcc/arm-linux-gnueabihf/8.2.1/../../../../arm-linux-gnueabihf/lib/libgcc_s.so
START GROUP
LOAD /media/ram/363029d1-6365-487a-b2e3-bd8d034c2ea4/fastcv/hexagondsp/Hexagon_SDK/3.5.2/tools/linaro/bin/../lib/gcc/arm-linux-gnueabihf/8.2.1/../../../../arm-linux-gnueabihf/lib/libgcc_s.so.1
LOAD /media/ram/363029d1-6365-487a-b2e3-bd8d034c2ea4/fastcv/hexagondsp/Hexagon_SDK/3.5.2/tools/linaro/bin/../lib/gcc/arm-linux-gnueabihf/8.2.1/libgcc.a
END GROUP
LOAD /media/ram/363029d1-6365-487a-b2e3-bd8d034c2ea4/fastcv/hexagondsp/Hexagon_SDK/3.5.2/tools/linaro/bin/../lib/gcc/arm-linux-gnueabihf/8.2.1/crtend.o
LOAD /media/ram/363029d1-6365-487a-b2e3-bd8d034c2ea4/fastcv/hexagondsp/Hexagon_SDK/3.5.2/tools/linaro/bin/../arm-linux-gnueabihf/libc/usr/lib/crtn.o
                [!provide]                        PROVIDE (__executable_start = SEGMENT_START ("text-segment", 0x10000))
                0x0000000000010154                . = (SEGMENT_START ("text-segment", 0x10000) + SIZEOF_HEADERS)

.interp         0x0000000000010154       0x19
 *(.interp)
 .interp        0x0000000000010154       0x19 /media/ram/363029d1-6365-487a-b2e3-bd8d034c2ea4/fastcv/hexagondsp/Hexagon_SDK/3.5.2/tools/linaro/bin/../arm-linux-gnueabihf/libc/usr/lib/crt1.o

.note.ABI-tag   0x0000000000010170       0x20
 .note.ABI-tag  0x0000000000010170       0x20 /media/ram/363029d1-6365-487a-b2e3-bd8d034c2ea4/fastcv/hexagondsp/Hexagon_SDK/3.5.2/tools/linaro/bin/../arm-linux-gnueabihf/libc/usr/lib/crt1.o

.note.gnu.build-id
 *(.note.gnu.build-id)

.hash           0x0000000000010190      0x37c
 *(.hash)
 .hash          0x0000000000010190      0x37c /media/ram/363029d1-6365-487a-b2e3-bd8d034c2ea4/fastcv/hexagondsp/Hexagon_SDK/3.5.2/tools/linaro/bin/../arm-linux-gnueabihf/libc/usr/lib/crt1.o

.gnu.hash       0x000000000001050c      0x3c4
 *(.gnu.hash)
 .gnu.hash      0x000000000001050c      0x3c4 /media/ram/363029d1-6365-487a-b2e3-bd8d034c2ea4/fastcv/hexagondsp/Hexagon_SDK/3.5.2/tools/linaro/bin/../arm-linux-gnueabihf/libc/usr/lib/crt1.o

.dynsym         0x00000000000108d0      0x7c0
 *(.dynsym)
 .dynsym        0x00000000000108d0      0x7c0 /media/ram/363029d1-6365-487a-b2e3-bd8d034c2ea4/fastcv/hexagondsp/Hexagon_SDK/3.5.2/tools/linaro/bin/../arm-linux-gnueabihf/libc/usr/lib/crt1.o

.dynstr         0x0000000000011090      0x91c
 *(.dynstr)
 .dynstr        0x0000000000011090      0x91c /media/ram/363029d1-6365-487a-b2e3-bd8d034c2ea4/fastcv/hexagondsp/Hexagon_SDK/3.5.2/tools/linaro/bin/../arm-linux-gnueabihf/libc/usr/lib/crt1.o

.gnu.version    0x00000000000119ac       0xf8
 *(.gnu.version)
 .gnu.version   0x00000000000119ac       0xf8 /media/ram/363029d1-6365-487a-b2e3-bd8d034c2ea4/fastcv/hexagondsp/Hexagon_SDK/3.5.2/tools/linaro/bin/../arm-linux-gnueabihf/libc/usr/lib/crt1.o

.gnu.version_d  0x0000000000011aa4        0x0
 *(.gnu.version_d)
 .gnu.version_d
                0x0000000000011aa4        0x0 /media/ram/363029d1-6365-487a-b2e3-bd8d034c2ea4/fastcv/hexagondsp/Hexagon_SDK/3.5.2/tools/linaro/bin/../arm-linux-gnueabihf/libc/usr/lib/crt1.o

.gnu.version_r  0x0000000000011aa4       0xb0
 *(.gnu.version_r)
 .gnu.version_r
                0x0000000000011aa4       0xb0 /media/ram/363029d1-6365-487a-b2e3-bd8d034c2ea4/fastcv/hexagondsp/Hexagon_SDK/3.5.2/tools/linaro/bin/../arm-linux-gnueabihf/libc/usr/lib/crt1.o

.rel.dyn        0x0000000000011b54       0x88
 *(.rel.init)
 *(.rel.text .rel.text.* .rel.gnu.linkonce.t.*)
 *(.rel.fini)
 *(.rel.rodata .rel.rodata.* .rel.gnu.linkonce.r.*)
 *(.rel.data.rel.ro .rel.data.rel.ro.* .rel.gnu.linkonce.d.rel.ro.*)
 .rel.data.rel.ro
                0x0000000000011b54       0x18 /media/ram/363029d1-6365-487a-b2e3-bd8d034c2ea4/fastcv/hexagondsp/Hexagon_SDK/3.5.2/tools/linaro/bin/../arm-linux-gnueabihf/libc/usr/lib/crt1.o
 *(.rel.data .rel.data.* .rel.gnu.linkonce.d.*)
 *(.rel.tdata .rel.tdata.* .rel.gnu.linkonce.td.*)
 *(.rel.tbss .rel.tbss.* .rel.gnu.linkonce.tb.*)
 *(.rel.ctors)
 *(.rel.dtors)
 *(.rel.got)
 .rel.got       0x0000000000011b6c       0x70 /media/ram/363029d1-6365-487a-b2e3-bd8d034c2ea4/fastcv/hexagondsp/Hexagon_SDK/3.5.2/tools/linaro/bin/../arm-linux-gnueabihf/libc/usr/lib/crt1.o
 *(.rel.bss .rel.bss.* .rel.gnu.linkonce.b.*)
 .rel.bss       0x0000000000011bdc        0x0 /media/ram/363029d1-6365-487a-b2e3-bd8d034c2ea4/fastcv/hexagondsp/Hexagon_SDK/3.5.2/tools/linaro/bin/../arm-linux-gnueabihf/libc/usr/lib/crt1.o
                [!provide]                        PROVIDE (__rel_iplt_start = .)
 *(.rel.iplt)
 .rel.iplt      0x0000000000011bdc        0x0 /media/ram/363029d1-6365-487a-b2e3-bd8d034c2ea4/fastcv/hexagondsp/Hexagon_SDK/3.5.2/tools/linaro/bin/../arm-linux-gnueabihf/libc/usr/lib/crt1.o
                [!provide]                        PROVIDE (__rel_iplt_end = .)

.rela.dyn       0x0000000000011bdc        0x0
 *(.rela.init)
 *(.rela.text .rela.text.* .rela.gnu.linkonce.t.*)
 *(.rela.fini)
 *(.rela.rodata .rela.rodata.* .rela.gnu.linkonce.r.*)
 *(.rela.data .rela.data.* .rela.gnu.linkonce.d.*)
 *(.rela.tdata .rela.tdata.* .rela.gnu.linkonce.td.*)
 *(.rela.tbss .rela.tbss.* .rela.gnu.linkonce.tb.*)
 *(.rela.ctors)
 *(.rela.dtors)
 *(.rela.got)
 *(.rela.bss .rela.bss.* .rela.gnu.linkonce.b.*)
                [!provide]                        PROVIDE (__rela_iplt_start = .)
 *(.rela.iplt)
                [!provide]                        PROVIDE (__rela_iplt_end = .)

.rel.plt        0x0000000000011bdc      0x2d8
 *(.rel.plt)
 .rel.plt       0x0000000000011bdc      0x2d8 /media/ram/363029d1-6365-487a-b2e3-bd8d034c2ea4/fastcv/hexagondsp/Hexagon_SDK/3.5.2/tools/linaro/bin/../arm-linux-gnueabihf/libc/usr/lib/crt1.o

.rela.plt
 *(.rela.plt)

.init           0x0000000000011eb4        0xc
 *(SORT_NONE(.init))
 .init          0x0000000000011eb4        0x8 /media/ram/363029d1-6365-487a-b2e3-bd8d034c2ea4/fastcv/hexagondsp/Hexagon_SDK/3.5.2/tools/linaro/bin/../arm-linux-gnueabihf/libc/usr/lib/crti.o
                0x0000000000011eb4                _init
 .init          0x0000000000011ebc        0x4 /media/ram/363029d1-6365-487a-b2e3-bd8d034c2ea4/fastcv/hexagondsp/Hexagon_SDK/3.5.2/tools/linaro/bin/../arm-linux-gnueabihf/libc/usr/lib/crtn.o

.plt            0x0000000000011ec0      0x470
 *(.plt)
 .plt           0x0000000000011ec0      0x470 /media/ram/363029d1-6365-487a-b2e3-bd8d034c2ea4/fastcv/hexagondsp/Hexagon_SDK/3.5.2/tools/linaro/bin/../arm-linux-gnueabihf/libc/usr/lib/crt1.o
                0x0000000000011ed4                pthread_mutex_lock@@GLIBC_2.4
                0x0000000000011ee0                pthread_mutex_init@@GLIBC_2.4
                0x0000000000011eec                cv::fastFree(void*)
                0x0000000000011ef8                dlerror@@GLIBC_2.4
                0x0000000000011f04                cv::VideoCapture::VideoCapture()
                0x0000000000011f10                strtol@@GLIBC_2.4
                0x0000000000011f20                free@@GLIBC_2.4
                0x0000000000011f2c                atan2f@@GLIBC_2.4
                0x0000000000011f38                atanf@@GLIBC_2.4
                0x0000000000011f44                tanf@@GLIBC_2.4
                0x0000000000011f50                cv::VideoCapture::release()
                0x0000000000011f5c                strncmp@@GLIBC_2.4
                0x0000000000011f68                __cxa_rethrow
                0x0000000000011f74                __gxx_personality_v0
                0x0000000000011f80                pthread_join@@GLIBC_2.4
                0x0000000000011f8c                ceilf@@GLIBC_2.4
                0x0000000000011f98                std::ios_base::Init::Init()
                0x0000000000011fa4                exit@@GLIBC_2.4
                0x0000000000011fb0                printf@@GLIBC_2.4
                0x0000000000011fbc                cosf@@GLIBC_2.4
                0x0000000000011fc8                dlclose@@GLIBC_2.4
                0x0000000000011fd4                puts@@GLIBC_2.4
                0x0000000000011fe0                cv::VideoCapture::~VideoCapture()
                0x0000000000011fec                cv::split(cv::Mat const&, cv::Mat*)
                0x0000000000011ff8                operator delete(void*)
                0x0000000000012004                strtoul@@GLIBC_2.4
                0x0000000000012014                putchar@@GLIBC_2.4
                0x0000000000012024                memset@@GLIBC_2.4
                0x0000000000012030                acosf@@GLIBC_2.4
                0x000000000001203c                pthread_mutex_trylock@@GLIBC_2.4
                0x0000000000012048                close@@GLIBC_2.4
                0x0000000000012054                read@@GLIBC_2.4
                0x0000000000012060                abort@@GLIBC_2.4
                0x000000000001206c                cv::Mat::create(int, int const*, int)
                0x0000000000012078                __cxa_type_match
                0x0000000000012084                pthread_once@@GLIBC_2.4
                0x0000000000012090                std::basic_ostream<char, std::char_traits<char> >& std::__ostream_insert<char, std::char_traits<char> >(std::basic_ostream<char, std::char_traits<char> >&, char const*, int)
                0x000000000001209c                __gnu_Unwind_Find_exidx@@GLIBC_2.4
                0x00000000000120a8                cv::String::deallocate()
                0x00000000000120b4                std::istream::get()
                0x00000000000120c0                dlopen@@GLIBC_2.4
                0x00000000000120cc                __assert_fail@@GLIBC_2.4
                0x00000000000120d8                ceil@@GLIBC_2.4
                0x00000000000120e4                open@@GLIBC_2.4
                0x00000000000120f0                sincosf@@GLIBC_2.4
                0x00000000000120fc                cv::VideoCapture::read(cv::_OutputArray const&)
                0x000000000001210c                pthread_mutex_destroy@@GLIBC_2.4
                0x0000000000012118                __stack_chk_fail@@GLIBC_2.4
                0x0000000000012124                std::basic_ostream<char, std::char_traits<char> >& std::endl<char, std::char_traits<char> >(std::basic_ostream<char, std::char_traits<char> >&)
                0x0000000000012130                std::ostream& std::ostream::_M_insert<double>(double)
                0x000000000001213c                strstr@@GLIBC_2.4
                0x0000000000012148                operator new(unsigned int)
                0x0000000000012154                cv::imwrite(cv::String const&, cv::_InputArray const&, std::vector<int, std::allocator<int> > const&)
                0x0000000000012160                raise@@GLIBC_2.4
                0x000000000001216c                __aeabi_atexit@@GLIBC_2.4
                0x0000000000012178                cv::imread(cv::String const&, int)
                0x0000000000012184                __cxa_begin_catch
                0x0000000000012190                sysconf@@GLIBC_2.4
                0x000000000001219c                fwrite@@GLIBC_2.4
                0x00000000000121ac                memcpy@@GLIBC_2.4
                0x00000000000121b8                __cxa_end_catch
                0x00000000000121c4                cv::VideoCapture::open(cv::String const&, int)
                0x00000000000121d0                malloc@@GLIBC_2.4
                0x00000000000121dc                strlen@@GLIBC_2.4
                0x00000000000121e8                powf@@GLIBC_2.27
                0x00000000000121f4                fprintf@@GLIBC_2.4
                0x0000000000012200                floorf@@GLIBC_2.4
                0x000000000001220c                cv::merge(cv::_InputArray const&, cv::_OutputArray const&)
                0x0000000000012218                std::ostream::operator<<(int)
                0x0000000000012224                expf@@GLIBC_2.27
                0x0000000000012230                pthread_create@@GLIBC_2.4
                0x000000000001223c                __cxa_begin_cleanup
                0x0000000000012248                strcmp@@GLIBC_2.4
                0x0000000000012254                __errno_location@@GLIBC_2.4
                0x0000000000012260                memchr@@GLIBC_2.4
                0x000000000001226c                sscanf@@GLIBC_2.4
                0x0000000000012278                memcmp@@GLIBC_2.4
                0x0000000000012284                std::basic_ios<char, std::char_traits<char> >::clear(std::_Ios_Iostate)
                0x0000000000012290                cv::String::allocate(unsigned int)
                0x000000000001229c                memmem@@GLIBC_2.4
                0x00000000000122a8                __cxa_end_cleanup
                0x00000000000122b4                logf@@GLIBC_2.27
                0x00000000000122c0                __libc_start_main@@GLIBC_2.4
                0x00000000000122cc                dlsym@@GLIBC_2.4
                0x00000000000122d8                cv::Mat::copySize(cv::Mat const&)
                0x00000000000122e4                std::ostream& std::ostream::_M_insert<unsigned long>(unsigned long)
                0x00000000000122fc                std::ostream& std::ostream::_M_insert<bool>(bool)
                0x0000000000012308                cv::Mat::deallocate()
                0x0000000000012318                pthread_mutex_unlock@@GLIBC_2.4
                0x0000000000012324                floor@@GLIBC_2.4

.iplt           0x0000000000012330        0x0
 *(.iplt)
 .iplt          0x0000000000012330        0x0 /media/ram/363029d1-6365-487a-b2e3-bd8d034c2ea4/fastcv/hexagondsp/Hexagon_SDK/3.5.2/tools/linaro/bin/../arm-linux-gnueabihf/libc/usr/lib/crt1.o

.text           0x0000000000012340   0x283248
 *(.text.unlikely .text.*_unlikely .text.unlikely.*)
 .text.unlikely
                0x0000000000012340       0x10 /media/ram/363029d1-6365-487a-b2e3-bd8d034c2ea4/fastcv/hexagondsp/Hexagon_SDK/3.5.2/tools/linaro/bin/../lib/gcc/arm-linux-gnueabihf/8.2.1/libgcc_eh.a(pr-support.o)
                0x0000000000012340                _Unwind_GetDataRelBase
                0x0000000000012348                _Unwind_GetTextRelBase
 *(.text.exit .text.exit.*)
 *(.text.startup .text.startup.*)
 .text.startup  0x0000000000012350      0xcb4 UbuntuARM_Release/ImageEnhance.o
                0x000000000001263c                main
 *(.text.hot .text.hot.*)
 *(.text .stub .text.* .gnu.linkonce.t.*)
 .text          0x0000000000013004       0x3c /media/ram/363029d1-6365-487a-b2e3-bd8d034c2ea4/fastcv/hexagondsp/Hexagon_SDK/3.5.2/tools/linaro/bin/../arm-linux-gnueabihf/libc/usr/lib/crt1.o
                0x0000000000013004                _start
 .text          0x0000000000013040       0x24 /media/ram/363029d1-6365-487a-b2e3-bd8d034c2ea4/fastcv/hexagondsp/Hexagon_SDK/3.5.2/tools/linaro/bin/../arm-linux-gnueabihf/libc/usr/lib/crti.o
 .text          0x0000000000013064       0x90 /media/ram/363029d1-6365-487a-b2e3-bd8d034c2ea4/fastcv/hexagondsp/Hexagon_SDK/3.5.2/tools/linaro/bin/../lib/gcc/arm-linux-gnueabihf/8.2.1/crtbegin.o
 .text          0x00000000000130f4       0x68 /media/ram/363029d1-6365-487a-b2e3-bd8d034c2ea4/fastcv/hexagondsp/Hexagon_SDK/3.5.2/tools/linaro/bin/../arm-linux-gnueabihf/libc/usr/lib/libc_nonshared.a(elf-init.oS)
                0x00000000000130f4                __libc_csu_init
                0x0000000000013158                __libc_csu_fini
 .text          0x000000000001315c     0x1dc8 UbuntuARM_Release/ImageEnhance.o
                0x000000000001315c                guidedFilterMono(cv::Mat, float, float, bool)
                0x0000000000013768                bilateralfilterMono(cv::Mat)
                0x00000000000138c0                medianfilterMono(cv::Mat)
                0x0000000000013a14                guidedFilterColor(cv::Mat, float, float)
                0x00000000000147c8                guidedFilter(cv::Mat, float, float, bool)
 .text._ZN7cvflann7anyimpl14big_any_policyINS0_9empty_anyEED2Ev
                0x0000000000014f24        0x4 UbuntuARM_Release/ImageEnhance.o
                0x0000000000014f24                cvflann::anyimpl::big_any_policy<cvflann::anyimpl::empty_any>::~big_any_policy()
                0x0000000000014f24                cvflann::anyimpl::big_any_policy<cvflann::anyimpl::empty_any>::~big_any_policy()
 .text._ZN7cvflann7anyimpl16small_any_policyIPKcED2Ev
                0x0000000000014f28        0x4 UbuntuARM_Release/ImageEnhance.o
                0x0000000000014f28                cvflann::anyimpl::small_any_policy<char const*>::~small_any_policy()
                0x0000000000014f28                cvflann::anyimpl::small_any_policy<char const*>::~small_any_policy()
 .text._ZN7cvflann7anyimpl16small_any_policyIiED2Ev
                0x0000000000014f2c        0x4 UbuntuARM_Release/ImageEnhance.o
                0x0000000000014f2c                cvflann::anyimpl::small_any_policy<int>::~small_any_policy()
                0x0000000000014f2c                cvflann::anyimpl::small_any_policy<int>::~small_any_policy()
 .text._ZN7cvflann7anyimpl16small_any_policyIfED2Ev
                0x0000000000014f30        0x4 UbuntuARM_Release/ImageEnhance.o
                0x0000000000014f30                cvflann::anyimpl::small_any_policy<float>::~small_any_policy()
                0x0000000000014f30                cvflann::anyimpl::small_any_policy<float>::~small_any_policy()
 .text._ZN7cvflann7anyimpl16small_any_policyIbED2Ev
                0x0000000000014f34        0x4 UbuntuARM_Release/ImageEnhance.o
                0x0000000000014f34                cvflann::anyimpl::small_any_policy<bool>::~small_any_policy()
                0x0000000000014f34                cvflann::anyimpl::small_any_policy<bool>::~small_any_policy()
 .text._ZN7cvflann7anyimpl14big_any_policyINS_17flann_algorithm_tEED2Ev
                0x0000000000014f38        0x4 UbuntuARM_Release/ImageEnhance.o
                0x0000000000014f38                cvflann::anyimpl::big_any_policy<cvflann::flann_algorithm_t>::~big_any_policy()
                0x0000000000014f38                cvflann::anyimpl::big_any_policy<cvflann::flann_algorithm_t>::~big_any_policy()
 .text._ZN7cvflann7anyimpl14big_any_policyINS_20flann_centers_init_tEED2Ev
                0x0000000000014f3c        0x4 UbuntuARM_Release/ImageEnhance.o
                0x0000000000014f3c                cvflann::anyimpl::big_any_policy<cvflann::flann_centers_init_t>::~big_any_policy()
                0x0000000000014f3c                cvflann::anyimpl::big_any_policy<cvflann::flann_centers_init_t>::~big_any_policy()
 .text._ZN7cvflann7anyimpl16small_any_policyIjED2Ev
                0x0000000000014f40        0x4 UbuntuARM_Release/ImageEnhance.o
                0x0000000000014f40                cvflann::anyimpl::small_any_policy<unsigned int>::~small_any_policy()
                0x0000000000014f40                cvflann::anyimpl::small_any_policy<unsigned int>::~small_any_policy()
 .text._ZN7cvflann7anyimpl14big_any_policyIN2cv6StringEED2Ev
                0x0000000000014f44        0x4 UbuntuARM_Release/ImageEnhance.o
                0x0000000000014f44                cvflann::anyimpl::big_any_policy<cv::String>::~big_any_policy()
                0x0000000000014f44                cvflann::anyimpl::big_any_policy<cv::String>::~big_any_policy()
 .text._ZN7cvflann7anyimpl16small_any_policyIjE13static_deleteEPPv
                0x0000000000014f48        0x4 UbuntuARM_Release/ImageEnhance.o
                0x0000000000014f48                cvflann::anyimpl::small_any_policy<unsigned int>::static_delete(void**)
 .text._ZN7cvflann7anyimpl16small_any_policyIjE15copy_from_valueEPKvPPv
                0x0000000000014f4c        0xc UbuntuARM_Release/ImageEnhance.o
                0x0000000000014f4c                cvflann::anyimpl::small_any_policy<unsigned int>::copy_from_value(void const*, void**)
 .text._ZN7cvflann7anyimpl16small_any_policyIjE5cloneEPKPvPS3_
                0x0000000000014f58        0xc UbuntuARM_Release/ImageEnhance.o
                0x0000000000014f58                cvflann::anyimpl::small_any_policy<unsigned int>::clone(void* const*, void**)
 .text._ZN7cvflann7anyimpl16small_any_policyIjE4moveEPKPvPS3_
                0x0000000000014f64        0xc UbuntuARM_Release/ImageEnhance.o
                0x0000000000014f64                cvflann::anyimpl::small_any_policy<unsigned int>::move(void* const*, void**)
 .text._ZN7cvflann7anyimpl16small_any_policyIjE9get_valueEPPv
                0x0000000000014f70        0x8 UbuntuARM_Release/ImageEnhance.o
                0x0000000000014f70                cvflann::anyimpl::small_any_policy<unsigned int>::get_value(void**)
 .text._ZN7cvflann7anyimpl16small_any_policyIjE9get_valueEPKPv
                0x0000000000014f78        0x8 UbuntuARM_Release/ImageEnhance.o
                0x0000000000014f78                cvflann::anyimpl::small_any_policy<unsigned int>::get_value(void* const*)
 .text._ZN7cvflann7anyimpl21typed_base_any_policyIjE8get_sizeEv
                0x0000000000014f80        0x8 UbuntuARM_Release/ImageEnhance.o
                0x0000000000014f80                cvflann::anyimpl::typed_base_any_policy<unsigned int>::get_size()
 .text._ZN7cvflann7anyimpl21typed_base_any_policyIjE4typeEv
                0x0000000000014f88       0x1c UbuntuARM_Release/ImageEnhance.o
                0x0000000000014f88                cvflann::anyimpl::typed_base_any_policy<unsigned int>::type()
 .text._ZN7cvflann7anyimpl16small_any_policyIbE13static_deleteEPPv
                0x0000000000014fa4        0x4 UbuntuARM_Release/ImageEnhance.o
                0x0000000000014fa4                cvflann::anyimpl::small_any_policy<bool>::static_delete(void**)
 .text._ZN7cvflann7anyimpl16small_any_policyIbE15copy_from_valueEPKvPPv
                0x0000000000014fa8        0xc UbuntuARM_Release/ImageEnhance.o
                0x0000000000014fa8                cvflann::anyimpl::small_any_policy<bool>::copy_from_value(void const*, void**)
 .text._ZN7cvflann7anyimpl16small_any_policyIbE5cloneEPKPvPS3_
                0x0000000000014fb4        0xc UbuntuARM_Release/ImageEnhance.o
                0x0000000000014fb4                cvflann::anyimpl::small_any_policy<bool>::clone(void* const*, void**)
 .text._ZN7cvflann7anyimpl16small_any_policyIbE4moveEPKPvPS3_
                0x0000000000014fc0        0xc UbuntuARM_Release/ImageEnhance.o
                0x0000000000014fc0                cvflann::anyimpl::small_any_policy<bool>::move(void* const*, void**)
 .text._ZN7cvflann7anyimpl16small_any_policyIbE9get_valueEPPv
                0x0000000000014fcc        0x8 UbuntuARM_Release/ImageEnhance.o
                0x0000000000014fcc                cvflann::anyimpl::small_any_policy<bool>::get_value(void**)
 .text._ZN7cvflann7anyimpl16small_any_policyIbE9get_valueEPKPv
                0x0000000000014fd4        0x8 UbuntuARM_Release/ImageEnhance.o
                0x0000000000014fd4                cvflann::anyimpl::small_any_policy<bool>::get_value(void* const*)
 .text._ZN7cvflann7anyimpl21typed_base_any_policyIbE8get_sizeEv
                0x0000000000014fdc        0x8 UbuntuARM_Release/ImageEnhance.o
                0x0000000000014fdc                cvflann::anyimpl::typed_base_any_policy<bool>::get_size()
 .text._ZN7cvflann7anyimpl21typed_base_any_policyIbE4typeEv
                0x0000000000014fe4       0x1c UbuntuARM_Release/ImageEnhance.o
                0x0000000000014fe4                cvflann::anyimpl::typed_base_any_policy<bool>::type()
 .text._ZN7cvflann7anyimpl16small_any_policyIfE13static_deleteEPPv
                0x0000000000015000        0x4 UbuntuARM_Release/ImageEnhance.o
                0x0000000000015000                cvflann::anyimpl::small_any_policy<float>::static_delete(void**)
 .text._ZN7cvflann7anyimpl16small_any_policyIfE15copy_from_valueEPKvPPv
                0x0000000000015004        0xc UbuntuARM_Release/ImageEnhance.o
                0x0000000000015004                cvflann::anyimpl::small_any_policy<float>::copy_from_value(void const*, void**)
 .text._ZN7cvflann7anyimpl16small_any_policyIfE5cloneEPKPvPS3_
                0x0000000000015010        0xc UbuntuARM_Release/ImageEnhance.o
                0x0000000000015010                cvflann::anyimpl::small_any_policy<float>::clone(void* const*, void**)
 .text._ZN7cvflann7anyimpl16small_any_policyIfE4moveEPKPvPS3_
                0x000000000001501c        0xc UbuntuARM_Release/ImageEnhance.o
                0x000000000001501c                cvflann::anyimpl::small_any_policy<float>::move(void* const*, void**)
 .text._ZN7cvflann7anyimpl16small_any_policyIfE9get_valueEPPv
                0x0000000000015028        0x8 UbuntuARM_Release/ImageEnhance.o
                0x0000000000015028                cvflann::anyimpl::small_any_policy<float>::get_value(void**)
 .text._ZN7cvflann7anyimpl16small_any_policyIfE9get_valueEPKPv
                0x0000000000015030        0x8 UbuntuARM_Release/ImageEnhance.o
                0x0000000000015030                cvflann::anyimpl::small_any_policy<float>::get_value(void* const*)
 .text._ZN7cvflann7anyimpl21typed_base_any_policyIfE8get_sizeEv
                0x0000000000015038        0x8 UbuntuARM_Release/ImageEnhance.o
                0x0000000000015038                cvflann::anyimpl::typed_base_any_policy<float>::get_size()
 .text._ZN7cvflann7anyimpl21typed_base_any_policyIfE4typeEv
                0x0000000000015040       0x1c UbuntuARM_Release/ImageEnhance.o
                0x0000000000015040                cvflann::anyimpl::typed_base_any_policy<float>::type()
 .text._ZN7cvflann7anyimpl16small_any_policyIiE13static_deleteEPPv
                0x000000000001505c        0x4 UbuntuARM_Release/ImageEnhance.o
                0x000000000001505c                cvflann::anyimpl::small_any_policy<int>::static_delete(void**)
 .text._ZN7cvflann7anyimpl16small_any_policyIiE15copy_from_valueEPKvPPv
                0x0000000000015060        0xc UbuntuARM_Release/ImageEnhance.o
                0x0000000000015060                cvflann::anyimpl::small_any_policy<int>::copy_from_value(void const*, void**)
 .text._ZN7cvflann7anyimpl16small_any_policyIiE5cloneEPKPvPS3_
                0x000000000001506c        0xc UbuntuARM_Release/ImageEnhance.o
                0x000000000001506c                cvflann::anyimpl::small_any_policy<int>::clone(void* const*, void**)
 .text._ZN7cvflann7anyimpl16small_any_policyIiE4moveEPKPvPS3_
                0x0000000000015078        0xc UbuntuARM_Release/ImageEnhance.o
                0x0000000000015078                cvflann::anyimpl::small_any_policy<int>::move(void* const*, void**)
 .text._ZN7cvflann7anyimpl16small_any_policyIiE9get_valueEPPv
                0x0000000000015084        0x8 UbuntuARM_Release/ImageEnhance.o
                0x0000000000015084                cvflann::anyimpl::small_any_policy<int>::get_value(void**)
 .text._ZN7cvflann7anyimpl16small_any_policyIiE9get_valueEPKPv
                0x000000000001508c        0x8 UbuntuARM_Release/ImageEnhance.o
                0x000000000001508c                cvflann::anyimpl::small_any_policy<int>::get_value(void* const*)
 .text._ZN7cvflann7anyimpl21typed_base_any_policyIiE8get_sizeEv
                0x0000000000015094        0x8 UbuntuARM_Release/ImageEnhance.o
                0x0000000000015094                cvflann::anyimpl::typed_base_any_policy<int>::get_size()
 .text._ZN7cvflann7anyimpl21typed_base_any_policyIiE4typeEv
                0x000000000001509c       0x1c UbuntuARM_Release/ImageEnhance.o
                0x000000000001509c                cvflann::anyimpl::typed_base_any_policy<int>::type()
 .text._ZN7cvflann7anyimpl16small_any_policyIPKcE13static_deleteEPPv
                0x00000000000150b8        0x4 UbuntuARM_Release/ImageEnhance.o
                0x00000000000150b8                cvflann::anyimpl::small_any_policy<char const*>::static_delete(void**)
 .text._ZN7cvflann7anyimpl16small_any_policyIPKcE15copy_from_valueEPKvPPv
                0x00000000000150bc        0xc UbuntuARM_Release/ImageEnhance.o
                0x00000000000150bc                cvflann::anyimpl::small_any_policy<char const*>::copy_from_value(void const*, void**)
 .text._ZN7cvflann7anyimpl16small_any_policyIPKcE5cloneEPKPvPS5_
                0x00000000000150c8        0xc UbuntuARM_Release/ImageEnhance.o
                0x00000000000150c8                cvflann::anyimpl::small_any_policy<char const*>::clone(void* const*, void**)
 .text._ZN7cvflann7anyimpl16small_any_policyIPKcE4moveEPKPvPS5_
                0x00000000000150d4        0xc UbuntuARM_Release/ImageEnhance.o
                0x00000000000150d4                cvflann::anyimpl::small_any_policy<char const*>::move(void* const*, void**)
 .text._ZN7cvflann7anyimpl16small_any_policyIPKcE9get_valueEPPv
                0x00000000000150e0        0x8 UbuntuARM_Release/ImageEnhance.o
                0x00000000000150e0                cvflann::anyimpl::small_any_policy<char const*>::get_value(void**)
 .text._ZN7cvflann7anyimpl16small_any_policyIPKcE9get_valueEPKPv
                0x00000000000150e8        0x8 UbuntuARM_Release/ImageEnhance.o
                0x00000000000150e8                cvflann::anyimpl::small_any_policy<char const*>::get_value(void* const*)
 .text._ZN7cvflann7anyimpl21typed_base_any_policyIPKcE8get_sizeEv
                0x00000000000150f0        0x8 UbuntuARM_Release/ImageEnhance.o
                0x00000000000150f0                cvflann::anyimpl::typed_base_any_policy<char const*>::get_size()
 .text._ZN7cvflann7anyimpl21typed_base_any_policyIPKcE4typeEv
                0x00000000000150f8       0x1c UbuntuARM_Release/ImageEnhance.o
                0x00000000000150f8                cvflann::anyimpl::typed_base_any_policy<char const*>::type()
 .text._ZN7cvflann7anyimpl14big_any_policyINS0_9empty_anyEE4moveEPKPvPS4_
                0x0000000000015114        0x4 UbuntuARM_Release/ImageEnhance.o
                0x0000000000015114                cvflann::anyimpl::big_any_policy<cvflann::anyimpl::empty_any>::move(void* const*, void**)
 .text._ZN7cvflann7anyimpl14big_any_policyINS0_9empty_anyEE9get_valueEPPv
                0x0000000000015118        0x8 UbuntuARM_Release/ImageEnhance.o
                0x0000000000015118                cvflann::anyimpl::big_any_policy<cvflann::anyimpl::empty_any>::get_value(void**)
 .text._ZN7cvflann7anyimpl14big_any_policyINS0_9empty_anyEE9get_valueEPKPv
                0x0000000000015120        0x8 UbuntuARM_Release/ImageEnhance.o
                0x0000000000015120                cvflann::anyimpl::big_any_policy<cvflann::anyimpl::empty_any>::get_value(void* const*)
 .text._ZN7cvflann7anyimpl21typed_base_any_policyINS0_9empty_anyEE8get_sizeEv
                0x0000000000015128        0x8 UbuntuARM_Release/ImageEnhance.o
                0x0000000000015128                cvflann::anyimpl::typed_base_any_policy<cvflann::anyimpl::empty_any>::get_size()
 .text._ZN7cvflann7anyimpl21typed_base_any_policyINS0_9empty_anyEE4typeEv
                0x0000000000015130       0x1c UbuntuARM_Release/ImageEnhance.o
                0x0000000000015130                cvflann::anyimpl::typed_base_any_policy<cvflann::anyimpl::empty_any>::type()
 .text._ZN7cvflann7anyimpl14big_any_policyIN2cv6StringEE9get_valueEPPv
                0x000000000001514c        0x8 UbuntuARM_Release/ImageEnhance.o
                0x000000000001514c                cvflann::anyimpl::big_any_policy<cv::String>::get_value(void**)
 .text._ZN7cvflann7anyimpl14big_any_policyIN2cv6StringEE9get_valueEPKPv
                0x0000000000015154        0x8 UbuntuARM_Release/ImageEnhance.o
                0x0000000000015154                cvflann::anyimpl::big_any_policy<cv::String>::get_value(void* const*)
 .text._ZN7cvflann7anyimpl21typed_base_any_policyIN2cv6StringEE8get_sizeEv
                0x000000000001515c        0x8 UbuntuARM_Release/ImageEnhance.o
                0x000000000001515c                cvflann::anyimpl::typed_base_any_policy<cv::String>::get_size()
 .text._ZN7cvflann7anyimpl21typed_base_any_policyIN2cv6StringEE4typeEv
                0x0000000000015164       0x1c UbuntuARM_Release/ImageEnhance.o
                0x0000000000015164                cvflann::anyimpl::typed_base_any_policy<cv::String>::type()
 .text._ZN7cvflann7anyimpl14big_any_policyINS_17flann_algorithm_tEE4moveEPKPvPS4_
                0x0000000000015180       0x14 UbuntuARM_Release/ImageEnhance.o
                0x0000000000015180                cvflann::anyimpl::big_any_policy<cvflann::flann_algorithm_t>::move(void* const*, void**)
 .text._ZN7cvflann7anyimpl14big_any_policyINS_17flann_algorithm_tEE9get_valueEPPv
                0x0000000000015194        0x8 UbuntuARM_Release/ImageEnhance.o
                0x0000000000015194                cvflann::anyimpl::big_any_policy<cvflann::flann_algorithm_t>::get_value(void**)
 .text._ZN7cvflann7anyimpl14big_any_policyINS_17flann_algorithm_tEE9get_valueEPKPv
                0x000000000001519c        0x8 UbuntuARM_Release/ImageEnhance.o
                0x000000000001519c                cvflann::anyimpl::big_any_policy<cvflann::flann_algorithm_t>::get_value(void* const*)
 .text._ZN7cvflann7anyimpl21typed_base_any_policyINS_17flann_algorithm_tEE8get_sizeEv
                0x00000000000151a4        0x8 UbuntuARM_Release/ImageEnhance.o
                0x00000000000151a4                cvflann::anyimpl::typed_base_any_policy<cvflann::flann_algorithm_t>::get_size()
 .text._ZN7cvflann7anyimpl21typed_base_any_policyINS_17flann_algorithm_tEE4typeEv
                0x00000000000151ac       0x1c UbuntuARM_Release/ImageEnhance.o
                0x00000000000151ac                cvflann::anyimpl::typed_base_any_policy<cvflann::flann_algorithm_t>::type()
 .text._ZN7cvflann7anyimpl14big_any_policyINS_20flann_centers_init_tEE4moveEPKPvPS4_
                0x00000000000151c8       0x14 UbuntuARM_Release/ImageEnhance.o
                0x00000000000151c8                cvflann::anyimpl::big_any_policy<cvflann::flann_centers_init_t>::move(void* const*, void**)
 .text._ZN7cvflann7anyimpl14big_any_policyINS_20flann_centers_init_tEE9get_valueEPPv
                0x00000000000151dc        0x8 UbuntuARM_Release/ImageEnhance.o
                0x00000000000151dc                cvflann::anyimpl::big_any_policy<cvflann::flann_centers_init_t>::get_value(void**)
 .text._ZN7cvflann7anyimpl14big_any_policyINS_20flann_centers_init_tEE9get_valueEPKPv
                0x00000000000151e4        0x8 UbuntuARM_Release/ImageEnhance.o
                0x00000000000151e4                cvflann::anyimpl::big_any_policy<cvflann::flann_centers_init_t>::get_value(void* const*)
 .text._ZN7cvflann7anyimpl21typed_base_any_policyINS_20flann_centers_init_tEE8get_sizeEv
                0x00000000000151ec        0x8 UbuntuARM_Release/ImageEnhance.o
                0x00000000000151ec                cvflann::anyimpl::typed_base_any_policy<cvflann::flann_centers_init_t>::get_size()
 .text._ZN7cvflann7anyimpl21typed_base_any_policyINS_20flann_centers_init_tEE4typeEv
                0x00000000000151f4       0x1c UbuntuARM_Release/ImageEnhance.o
                0x00000000000151f4                cvflann::anyimpl::typed_base_any_policy<cvflann::flann_centers_init_t>::type()
 .text._ZN7cvflann7anyimpl14big_any_policyINS_20flann_centers_init_tEE5cloneEPKPvPS4_
                0x0000000000015210       0x28 UbuntuARM_Release/ImageEnhance.o
                0x0000000000015210                cvflann::anyimpl::big_any_policy<cvflann::flann_centers_init_t>::clone(void* const*, void**)
 .text._ZN7cvflann7anyimpl14big_any_policyINS_20flann_centers_init_tEE15copy_from_valueEPKvPPv
                0x0000000000015238       0x24 UbuntuARM_Release/ImageEnhance.o
                0x0000000000015238                cvflann::anyimpl::big_any_policy<cvflann::flann_centers_init_t>::copy_from_value(void const*, void**)
 .text._ZN7cvflann7anyimpl14big_any_policyINS_17flann_algorithm_tEE5cloneEPKPvPS4_
                0x000000000001525c       0x28 UbuntuARM_Release/ImageEnhance.o
                0x000000000001525c                cvflann::anyimpl::big_any_policy<cvflann::flann_algorithm_t>::clone(void* const*, void**)
 .text._ZN7cvflann7anyimpl14big_any_policyINS_17flann_algorithm_tEE15copy_from_valueEPKvPPv
                0x0000000000015284       0x24 UbuntuARM_Release/ImageEnhance.o
                0x0000000000015284                cvflann::anyimpl::big_any_policy<cvflann::flann_algorithm_t>::copy_from_value(void const*, void**)
 .text._ZN7cvflann7anyimpl14big_any_policyINS0_9empty_anyEE5cloneEPKPvPS4_
                0x00000000000152a8       0x18 UbuntuARM_Release/ImageEnhance.o
                0x00000000000152a8                cvflann::anyimpl::big_any_policy<cvflann::anyimpl::empty_any>::clone(void* const*, void**)
 .text._ZN7cvflann7anyimpl14big_any_policyINS0_9empty_anyEE15copy_from_valueEPKvPPv
                0x00000000000152c0       0x18 UbuntuARM_Release/ImageEnhance.o
                0x00000000000152c0                cvflann::anyimpl::big_any_policy<cvflann::anyimpl::empty_any>::copy_from_value(void const*, void**)
 .text._ZN7cvflann7anyimpl14big_any_policyIN2cv6StringEE5cloneEPKPvPS5_
                0x00000000000152d8       0x58 UbuntuARM_Release/ImageEnhance.o
                0x00000000000152d8                cvflann::anyimpl::big_any_policy<cv::String>::clone(void* const*, void**)
 .text._ZN7cvflann7anyimpl14big_any_policyIN2cv6StringEE15copy_from_valueEPKvPPv
                0x0000000000015330       0x54 UbuntuARM_Release/ImageEnhance.o
                0x0000000000015330                cvflann::anyimpl::big_any_policy<cv::String>::copy_from_value(void const*, void**)
 .text._ZN7cvflann7anyimpl14big_any_policyINS_20flann_centers_init_tEE13static_deleteEPPv
                0x0000000000015384       0x24 UbuntuARM_Release/ImageEnhance.o
                0x0000000000015384                cvflann::anyimpl::big_any_policy<cvflann::flann_centers_init_t>::static_delete(void**)
 .text._ZN7cvflann7anyimpl14big_any_policyINS_17flann_algorithm_tEE13static_deleteEPPv
                0x00000000000153a8       0x24 UbuntuARM_Release/ImageEnhance.o
                0x00000000000153a8                cvflann::anyimpl::big_any_policy<cvflann::flann_algorithm_t>::static_delete(void**)
 .text._ZN7cvflann7anyimpl14big_any_policyINS0_9empty_anyEE13static_deleteEPPv
                0x00000000000153cc       0x24 UbuntuARM_Release/ImageEnhance.o
                0x00000000000153cc                cvflann::anyimpl::big_any_policy<cvflann::anyimpl::empty_any>::static_delete(void**)
 .text._ZN7cvflann7anyimpl14big_any_policyINS0_9empty_anyEED0Ev
                0x00000000000153f0       0x14 UbuntuARM_Release/ImageEnhance.o
                0x00000000000153f0                cvflann::anyimpl::big_any_policy<cvflann::anyimpl::empty_any>::~big_any_policy()
 .text._ZN7cvflann7anyimpl16small_any_policyIPKcED0Ev
                0x0000000000015404       0x14 UbuntuARM_Release/ImageEnhance.o
                0x0000000000015404                cvflann::anyimpl::small_any_policy<char const*>::~small_any_policy()
 .text._ZN7cvflann7anyimpl16small_any_policyIiED0Ev
                0x0000000000015418       0x14 UbuntuARM_Release/ImageEnhance.o
                0x0000000000015418                cvflann::anyimpl::small_any_policy<int>::~small_any_policy()
 .text._ZN7cvflann7anyimpl16small_any_policyIfED0Ev
                0x000000000001542c       0x14 UbuntuARM_Release/ImageEnhance.o
                0x000000000001542c                cvflann::anyimpl::small_any_policy<float>::~small_any_policy()
 .text._ZN7cvflann7anyimpl16small_any_policyIbED0Ev
                0x0000000000015440       0x14 UbuntuARM_Release/ImageEnhance.o
                0x0000000000015440                cvflann::anyimpl::small_any_policy<bool>::~small_any_policy()
 .text._ZN7cvflann7anyimpl14big_any_policyINS_17flann_algorithm_tEED0Ev
                0x0000000000015454       0x14 UbuntuARM_Release/ImageEnhance.o
                0x0000000000015454                cvflann::anyimpl::big_any_policy<cvflann::flann_algorithm_t>::~big_any_policy()
 .text._ZN7cvflann7anyimpl14big_any_policyINS_20flann_centers_init_tEED0Ev
                0x0000000000015468       0x14 UbuntuARM_Release/ImageEnhance.o
                0x0000000000015468                cvflann::anyimpl::big_any_policy<cvflann::flann_centers_init_t>::~big_any_policy()
 .text._ZN7cvflann7anyimpl16small_any_policyIjED0Ev
                0x000000000001547c       0x14 UbuntuARM_Release/ImageEnhance.o
                0x000000000001547c                cvflann::anyimpl::small_any_policy<unsigned int>::~small_any_policy()
 .text._ZN7cvflann7anyimpl14big_any_policyIN2cv6StringEED0Ev
                0x0000000000015490       0x14 UbuntuARM_Release/ImageEnhance.o
                0x0000000000015490                cvflann::anyimpl::big_any_policy<cv::String>::~big_any_policy()
 .text._ZN7cvflann7anyimpl14big_any_policyIN2cv6StringEE13static_deleteEPPv
                0x00000000000154a4       0x30 UbuntuARM_Release/ImageEnhance.o
                0x00000000000154a4                cvflann::anyimpl::big_any_policy<cv::String>::static_delete(void**)
 .text._ZN7cvflann7anyimpl16small_any_policyIjE5printERSoPKPv
                0x00000000000154d4        0xc UbuntuARM_Release/ImageEnhance.o
                0x00000000000154d4                cvflann::anyimpl::small_any_policy<unsigned int>::print(std::ostream&, void* const*)
 .text._ZN7cvflann7anyimpl14big_any_policyINS_20flann_centers_init_tEE5printERSoPKPv
                0x00000000000154e0       0x10 UbuntuARM_Release/ImageEnhance.o
                0x00000000000154e0                cvflann::anyimpl::big_any_policy<cvflann::flann_centers_init_t>::print(std::ostream&, void* const*)
 .text._ZN7cvflann7anyimpl14big_any_policyINS_17flann_algorithm_tEE5printERSoPKPv
                0x00000000000154f0       0x10 UbuntuARM_Release/ImageEnhance.o
                0x00000000000154f0                cvflann::anyimpl::big_any_policy<cvflann::flann_algorithm_t>::print(std::ostream&, void* const*)
 .text._ZN7cvflann7anyimpl16small_any_policyIiE5printERSoPKPv
                0x0000000000015500        0xc UbuntuARM_Release/ImageEnhance.o
                0x0000000000015500                cvflann::anyimpl::small_any_policy<int>::print(std::ostream&, void* const*)
 .text._ZN7cvflann7anyimpl16small_any_policyIbE5printERSoPKPv
                0x000000000001550c        0xc UbuntuARM_Release/ImageEnhance.o
                0x000000000001550c                cvflann::anyimpl::small_any_policy<bool>::print(std::ostream&, void* const*)
 .text._ZN7cvflann7anyimpl16small_any_policyIfE5printERSoPKPv
                0x0000000000015518       0x10 UbuntuARM_Release/ImageEnhance.o
                0x0000000000015518                cvflann::anyimpl::small_any_policy<float>::print(std::ostream&, void* const*)
 .text._ZN7cvflann7anyimpl14big_any_policyIN2cv6StringEE4moveEPKPvPS5_
                0x0000000000015528       0x6c UbuntuARM_Release/ImageEnhance.o
                0x0000000000015528                cvflann::anyimpl::big_any_policy<cv::String>::move(void* const*, void**)
 .text._ZN7cvflann7anyimpl14big_any_policyIN2cv6StringEE5printERSoPKPv
                0x0000000000015594       0x54 UbuntuARM_Release/ImageEnhance.o
                0x0000000000015594                cvflann::anyimpl::big_any_policy<cv::String>::print(std::ostream&, void* const*)
 .text._ZN7cvflann7anyimpl14big_any_policyINS0_9empty_anyEE5printERSoPKPv
                0x00000000000155e8       0x18 UbuntuARM_Release/ImageEnhance.o
                0x00000000000155e8                cvflann::anyimpl::big_any_policy<cvflann::anyimpl::empty_any>::print(std::ostream&, void* const*)
 .text._ZN7cvflann7anyimpl16small_any_policyIPKcE5printERSoPKPv
                0x0000000000015600       0x4c UbuntuARM_Release/ImageEnhance.o
                0x0000000000015600                cvflann::anyimpl::small_any_policy<char const*>::print(std::ostream&, void* const*)
 .text._ZN2cv3MatC2ERKS0_
                0x000000000001564c       0xe8 UbuntuARM_Release/ImageEnhance.o
                0x000000000001564c                cv::Mat::Mat(cv::Mat const&)
                0x000000000001564c                cv::Mat::Mat(cv::Mat const&)
 .text._ZN2cv3MatD2Ev
                0x0000000000015734       0xa0 UbuntuARM_Release/ImageEnhance.o
                0x0000000000015734                cv::Mat::~Mat()
                0x0000000000015734                cv::Mat::~Mat()
 .text._ZN2cv3MataSEOS0_
                0x00000000000157d4      0x184 UbuntuARM_Release/ImageEnhance.o
                0x00000000000157d4                cv::Mat::operator=(cv::Mat&&)
 .text._ZNSt6vectorIN2cv3MatESaIS1_EED2Ev
                0x0000000000015958       0xd0 UbuntuARM_Release/ImageEnhance.o
                0x0000000000015958                std::vector<cv::Mat, std::allocator<cv::Mat> >::~vector()
                0x0000000000015958                std::vector<cv::Mat, std::allocator<cv::Mat> >::~vector()
 .text._ZNSt6vectorIN2cv3MatESaIS1_EE17_M_realloc_insertIJRKS1_EEEvN9__gnu_cxx17__normal_iteratorIPS1_S3_EEDpOT_
                0x0000000000015a28      0x2cc UbuntuARM_Release/ImageEnhance.o
                0x0000000000015a28                void std::vector<cv::Mat, std::allocator<cv::Mat> >::_M_realloc_insert<cv::Mat const&>(__gnu_cxx::__normal_iterator<cv::Mat*, std::vector<cv::Mat, std::allocator<cv::Mat> > >, cv::Mat const&)
 .text          0x0000000000015cf4    0x28ad4 lib/libfastcv.a(libfastcv_la-fastcvManager.o)
                0x0000000000015cf4                fcvFilterMedian3x3u8
                0x0000000000015e14                fcvFilterMedian3x3u8_v2
                0x0000000000015f6c                fcvFilterGaussian3x3u8
                0x00000000000160b8                fcvFilterGaussian3x3u8_v2
                0x0000000000016248                fcvFilterGaussian5x5u8
                0x0000000000016354                fcvFilterGaussian5x5u8_v2
                0x0000000000016494                fcvFilterGaussian11x11u8
                0x00000000000165bc                fcvFilterGaussian11x11u8_v2
                0x0000000000016724                fcvColorYUV420toRGB8888u8
                0x0000000000016848                fcvColorYCrCb420PseudoPlanarToRGB8888u8
                0x000000000001699c                fcvColorYUV420toRGB565u8
                0x0000000000016aac                fcvColorYCrCbH1V1toRGB888u8
                0x0000000000016bc4                fcvColorYCrCbH2V2toRGB888u8
                0x0000000000016cd4                fcvColorRGB888toYCrCbu8_v2
                0x0000000000016e1c                fcvColorRGB888toYCrCbu8
                0x0000000000016f34                fcvColorYCrCbH2V1toRGB888u8
                0x0000000000017044                fcvColorYCrCbH1V2toRGB888u8
                0x0000000000017154                fcvDescriptor17x17u8To36s8
                0x0000000000017214                fcvDescriptorSampledMeanAndVar36f32
                0x00000000000172b4                fcvDotProducts8
                0x0000000000017374                fcvDotProductu8
                0x0000000000017430                fcvDotProduct36x1s8
                0x00000000000174a0                fcvDotProduct36x4s8
                0x00000000000175a4                fcvDotProductNorm36x4s8
                0x00000000000176d4                fcvDotProduct36x1u8
                0x0000000000017774                fcvDotProduct36x4u8
                0x0000000000017878                fcvDotProductNorm36x4u8
                0x00000000000179a8                fcvDotProduct64x1s8
                0x0000000000017a4c                fcvDotProduct64x4s8
                0x0000000000017b50                fcvDotProductNorm64x4s8
                0x0000000000017c80                fcvDotProduct64x1u8
                0x0000000000017d20                fcvDotProduct64x4u8
                0x0000000000017e24                fcvDotProductNorm64x4u8
                0x0000000000017f54                fcvDotProduct128x1s8
                0x0000000000017ff8                fcvDotProduct128x4s8
                0x00000000000180fc                fcvDotProductNorm128x4s8
                0x000000000001822c                fcvDotProduct128x1u8
                0x00000000000182cc                fcvDotProduct128x4u8
                0x00000000000183d0                fcvDotProductNorm128x4u8
                0x0000000000018500                fcvDotProduct8x8u8
                0x0000000000018608                fcvDotProduct11x12u8
                0x0000000000018714                fcvFilterSobel3x3u8
                0x0000000000018828                fcvFilterSobel3x3u8_v2
                0x0000000000018964                fcvFilterCanny3x3u8
                0x0000000000018acc                fcvFilterCanny3x3u8_v2
                0x0000000000018c64                fcvFilterCanny3x3u8_v3
                0x0000000000018e34                fcvImageDiffu8
                0x0000000000018f60                fcvImageDiffu8_v2
                0x00000000000190c0                fcvImageDiffs16
                0x0000000000019224                fcvImageDifff32
                0x0000000000019380                fcvImageDiffu8f32
                0x00000000000194c4                fcvImageDiffu8s8
                0x0000000000019624                fcvImageGradientInterleaveds16
                0x0000000000019768                fcvImageGradientInterleaveds16_v2
                0x00000000000198d0                fcvImageGradientInterleavedf32
                0x0000000000019a14                fcvImageGradientInterleavedf32_v2
                0x0000000000019b7c                fcvImageGradientPlanars16
                0x0000000000019cd4                fcvImageGradientPlanars16_v2
                0x0000000000019e50                fcvImageGradientPlanarf32
                0x0000000000019fa8                fcvImageGradientPlanarf32_v2
                0x000000000001a124                fcvImageGradientSobelInterleaveds16
                0x000000000001a268                fcvImageGradientSobelInterleaveds16_v2
                0x000000000001a3d0                fcvImageGradientSobelInterleaveds16_v3
                0x000000000001a538                fcvImageGradientSobelInterleavedf32
                0x000000000001a67c                fcvImageGradientSobelInterleavedf32_v2
                0x000000000001a7e8                fcvImageGradientSobelPlanars16
                0x000000000001a940                fcvImageGradientSobelPlanars16_v2
                0x000000000001aad0                fcvImageGradientSobelPlanars16_v3
                0x000000000001ac5c                fcvImageGradientSobelPlanars8
                0x000000000001adb0                fcvImageGradientSobelPlanars8_v2
                0x000000000001af2c                fcvImageGradientSobelPlanarf32
                0x000000000001b084                fcvImageGradientSobelPlanarf32_v2
                0x000000000001b210                fcvImageGradientSobelPlanarf32f32
                0x000000000001b368                fcvImageGradientSobelPlanarf32f32_v2
                0x000000000001b4f0                fcvClusterEuclideanNormed36f32
                0x000000000001b5fc                fcvClusterEuclideanf32
                0x000000000001b724                fcvClusterEuclideanNormedf32
                0x000000000001b84c                fcvCornerFast9u8
                0x000000000001b9ac                fcvCornerFast9InMasku8
                0x000000000001bb34                fcvCornerFast10u8
                0x000000000001bc94                fcvCornerFast10InMasku8
                0x000000000001be1c                fcvCornerHarrisu8
                0x000000000001bf58                fcvLocalHarrisMaxu8
                0x000000000001c04c                fcvCornerHarrisInMasku8
                0x000000000001c1a4                fcvCornerHarrisAdaptiveu8
                0x000000000001c2d0                fcvGeomAffineFitf32
                0x000000000001c380                fcvGeomAffineEvaluatef32
                0x000000000001c430                fcvGeomHomographyFitf32
                0x000000000001c500                fcvGeomHomographyEvaluatef32
                0x000000000001c5cc                fcvGeomHomographyEvaluatef32_v2
                0x000000000001c6a4                fcvGeomPoseRefineGNf32
                0x000000000001c768                fcvGeomPoseUpdatef32
                0x000000000001c810                fcvGeomPoseOptimizeGNf32
                0x000000000001c8b8                fcvGeomPoseEvaluateErrorf32
                0x000000000001c974                fcvGeomPoseEvaluatef32
                0x000000000001ca30                fcvGeom3PointPoseEstimatef32
                0x000000000001cb00                fcvFilterCorr3x3s8
                0x000000000001cc2c                fcvFilterCorr3x3s8_v2
                0x000000000001cd84                fcvFilterCorrSep9x9s16
                0x000000000001cee4                fcvFilterCorrSep11x11s16
                0x000000000001d044                fcvFilterCorrSep13x13s16
                0x000000000001d1a4                fcvFilterCorrSep15x15s16
                0x000000000001d304                fcvFilterCorrSep17x17s16
                0x000000000001d464                fcvFilterCorrSep9x9s16_v2
                0x000000000001d5fc                fcvFilterCorrSep11x11s16_v2
                0x000000000001d794                fcvFilterCorrSep13x13s16_v2
                0x000000000001d92c                fcvFilterCorrSep15x15s16_v2
                0x000000000001dac4                fcvFilterCorrSep17x17s16_v2
                0x000000000001dc5c                fcvFilterCorrSepNxNs16
                0x000000000001de04                fcvImageIntensityStats
                0x000000000001df50                fcvImageIntensityStats_v2
                0x000000000001e04c                fcvImageIntensityHistogram
                0x000000000001e164                fcvIntegrateImageu8
                0x000000000001e28c                fcvIntegrateImageu8_v2
                0x000000000001e3ec                fcvIntegratePatchu8
                0x000000000001e52c                fcvIntegratePatchu8_v2
                0x000000000001e660                fcvIntegrateImageu8u64
                0x000000000001e7dc                fcvIntegratePatch12x12u8
                0x000000000001e8fc                fcvIntegratePatch12x12u8_v2
                0x000000000001ea24                fcvIntegratePatch18x18u8
                0x000000000001eb44                fcvIntegratePatch18x18u8_v2
                0x000000000001ec5c                fcvIntegrateImageLineu8
                0x000000000001ed50                fcvIntegrateImageLine64u8
                0x000000000001ee38                fcvNCCPatchOnCircle8x8u8
                0x000000000001efcc                fcvNCCPatchOnSquare8x8u8
                0x000000000001f160                fcvNCCPatchOnCircle8x8u8_v2
                0x000000000001f2dc                fcvNCCPatchOnSquare8x8u8_v2
                0x000000000001f458                fcvSumOfAbsoluteDiffs8x8u8
                0x000000000001f59c                fcvSumOfAbsoluteDiffs8x8u8_v2
                0x000000000001f71c                fcvScaleDownBy2u8
                0x000000000001f810                fcvScaleDownBy2u8_v2
                0x000000000001f948                fcvScaleDownBy4u8
                0x000000000001fa3c                fcvScaleDownBy4u8_v2
                0x000000000001fb70                fcvScaleDown3To2u8
                0x000000000001fc84                fcvScaleDownNNu8
                0x000000000001fd8c                fcvScaleDownu8
                0x000000000001ff04                fcvScaleDownu8_v2
                0x00000000000200c4                fcvScaleUpBy2Gaussian5x5u8
                0x00000000000201d4                fcvScaleUpBy2Gaussian5x5u8_v2
                0x000000000002031c                fcvScaleDownBy2Gaussian5x5u8
                0x0000000000020454                fcvScaleDownBy2Gaussian5x5u8_v2
                0x00000000000205ac                fcvVecNormalize36s8f32
                0x00000000000206a8                fcvSumOfSquaredDiffs36x4s8
                0x0000000000020784                fcvSumOfSquaredDiffs36xNs8
                0x00000000000208a4                fcvSort8Scoresf32
                0x0000000000020974                fcvFilterThresholdu8
                0x0000000000020a94                fcvFilterThresholdu8_v2
                0x0000000000020c60                fcvFilterDilate3x3u8
                0x0000000000020d78                fcvFilterDilate3x3u8_v2
                0x0000000000020eb8                fcvFilterErode3x3u8
                0x0000000000020fd8                fcvFilterErode3x3u8_v2
                0x0000000000021130                fcvTransformAffine8x8u8
                0x000000000002123c                fcvTransformAffine8x8u8_v2
                0x0000000000021370                fcvWarpPerspectiveu8
                0x00000000000214c4                fcvWarpPerspectiveu8_v2
                0x000000000002164c                fcv3ChannelWarpPerspectiveu8
                0x000000000002179c                fcv3ChannelWarpPerspectiveu8_v2
                0x0000000000021950                fcvFilterGaussian5x5s16
                0x0000000000021a70                fcvFilterGaussian5x5s16_v2
                0x0000000000021bd4                fcvFilterGaussian5x5s32
                0x0000000000021cfc                fcvFilterGaussian5x5s32_v2
                0x0000000000021e5c                fcvTransformAffineu8
                0x0000000000021f78                fcvTransformAffineu8_v2
                0x0000000000022090                fcvCopyRotated17x17u8
                0x0000000000022168                fcvCornerFast9Scoreu8
                0x00000000000222e0                fcvCornerFast9InMaskScoreu8
                0x0000000000022470                fcvCornerFast9Scoreu8_v2
                0x0000000000022620                fcvCornerFast9InMaskScoreu8_v2
                0x0000000000022804                fcvCornerFast10Scoreu8
                0x00000000000229b4                fcvCornerFast10InMaskScoreu8
                0x0000000000022b98                fcvTrackLKOpticalFlowu8
                0x0000000000022d60                fcvTrackLKOpticalFlowu8_v2
                0x0000000000022ed4                fcvTrackLKOpticalFlowf32
                0x0000000000023070                fcvPyramidCreatef32
                0x000000000002316c                fcvPyramidCreatef32_v2
                0x0000000000023280                fcvPyramidCreateu8
                0x0000000000023384                fcvPyramidCreateu8_v2
                0x00000000000234ac                fcvPyramidAllocate
                0x0000000000023544                fcvPyramidAllocate_v2
                0x00000000000235dc                fcvPyramidDelete
                0x000000000002369c                fcvPyramidDelete_v2
                0x000000000002375c                fcvPyramidSobelGradientCreatei16
                0x0000000000023820                fcvPyramidSobelGradientCreatei8
                0x00000000000238e4                fcvPyramidSobelGradientCreatef32
                0x00000000000239a8                fcvBitCountu8
                0x0000000000023a54                fcvBitCount32x1u8
                0x0000000000023af8                fcvBitCount32x4u8
                0x0000000000023c0c                fcvBitCount64x1u8
                0x0000000000023cb0                fcvBitCount64x4u8
                0x0000000000023dc4                fcvBitCountu32
                0x0000000000023e74                fcvHammingDistanceu8
                0x0000000000023f38                fcvHammingDistance32x1u8a4
                0x0000000000023fec                fcvHammingDistance64x1u8a4
                0x00000000000240a0                fcvHammingDistance32x1u8
                0x0000000000024154                fcvHammingDistance64x1u8
                0x0000000000024208                fcvHammingDistance32x4u8a4
                0x0000000000024328                fcvHammingDistance64x4u8a4
                0x0000000000024448                fcvHammingDistance64x4u8
                0x0000000000024568                fcvMseru8
                0x00000000000246ac                fcvMserExtu8
                0x0000000000024828                fcvMseru8_v2
                0x0000000000024950                fcvMserExtu8_v2
                0x0000000000024ab8                fcvMserExtu8_v3
                0x0000000000024c30                fcvMserInit
                0x0000000000024ce0                fcvMserRelease
                0x0000000000024d88                fcvMserNN8u8
                0x0000000000024eb0                fcvMserExtNN8u8
                0x0000000000025020                fcvMserNN8Init
                0x00000000000250d0                fcvTrackBMOpticalFlow16x16u8
                0x0000000000025298                fcvBoundingRectangle
                0x0000000000025390                fcvUpsampleVerticalu8
                0x000000000002549c                fcvUpsampleHorizontalu8
                0x00000000000255a8                fcvUpsample2Du8
                0x00000000000256b4                fcvUpsampleVerticalInterleavedu8
                0x00000000000257c0                fcvUpsampleHorizontalInterleavedu8
                0x00000000000258d0                fcvUpsample2DInterleavedu8
                0x00000000000259e0                fcvColorRGB565ToYCbCr444Planaru8
                0x0000000000025b30                fcvColorRGB565ToYCbCr422Planaru8
                0x0000000000025c88                fcvColorRGB565ToYCbCr420Planaru8
                0x0000000000025de0                fcvColorRGB888ToYCbCr444Planaru8
                0x0000000000025f30                fcvColorRGB888ToYCbCr422Planaru8
                0x0000000000026088                fcvColorRGB888ToYCbCr420Planaru8
                0x00000000000261e0                fcvColorRGBA8888ToYCbCr444Planaru8
                0x0000000000026330                fcvColorRGBA8888ToYCbCr422Planaru8
                0x0000000000026488                fcvColorRGBA8888ToYCbCr420Planaru8
                0x00000000000265e0                fcvColorRGB565ToYCbCr444PseudoPlanaru8
                0x0000000000026710                fcvColorRGB565ToYCbCr422PseudoPlanaru8
                0x0000000000026840                fcvColorRGB565ToYCbCr420PseudoPlanaru8
                0x0000000000026970                fcvColorRGB888ToYCbCr444PseudoPlanaru8
                0x0000000000026aa4                fcvColorRGB888ToYCbCr422PseudoPlanaru8
                0x0000000000026bd4                fcvColorRGB888ToYCbCr420PseudoPlanaru8
                0x0000000000026d04                fcvColorRGBA8888ToYCbCr444PseudoPlanaru8
                0x0000000000026e38                fcvColorRGBA8888ToYCbCr422PseudoPlanaru8
                0x0000000000026f68                fcvColorRGBA8888ToYCbCr420PseudoPlanaru8
                0x0000000000027098                fcvColorRGB565ToRGB888u8
                0x000000000002719c                fcvColorRGB565ToRGBA8888u8
                0x00000000000272a0                fcvColorRGB565ToBGR565u8
                0x00000000000273a0                fcvColorRGB565ToBGR888u8
                0x00000000000274a4                fcvColorRGB565ToBGRA8888u8
                0x00000000000275a8                fcvColorRGB888ToRGB565u8
                0x00000000000276ac                fcvColorRGB888ToRGBA8888u8
                0x00000000000277b0                fcvColorRGB888ToBGR565u8
                0x00000000000278b4                fcvColorRGB888ToBGR888u8
                0x00000000000279b8                fcvColorRGB888ToBGRA8888u8
                0x0000000000027abc                fcvColorRGBA8888ToRGB565u8
                0x0000000000027bc0                fcvColorRGBA8888ToRGB888u8
                0x0000000000027cc4                fcvColorRGBA8888ToBGR565u8
                0x0000000000027dc8                fcvColorRGBA8888ToBGR888u8
                0x0000000000027ecc                fcvColorRGBA8888ToBGRA8888u8
                0x0000000000027fcc                fcvColorRGBA8888ToLABu8
                0x00000000000280cc                fcvColorYCbCr444PlanarToYCbCr422Planaru8
                0x0000000000028270                fcvColorYCbCr444PlanarToYCbCr420Planaru8
                0x0000000000028414                fcvColorYCbCr444PlanarToYCbCr444PseudoPlanaru8
                0x0000000000028584                fcvColorYCbCr444PlanarToYCbCr422PseudoPlanaru8
                0x00000000000286f0                fcvColorYCbCr444PlanarToYCbCr420PseudoPlanaru8
                0x000000000002885c                fcvColorYCbCr422PlanarToYCbCr444Planaru8
                0x0000000000028a00                fcvColorYCbCr422PlanarToYCbCr420Planaru8
                0x0000000000028bac                fcvColorYCbCr422PlanarToYCbCr444PseudoPlanaru8
                0x0000000000028d24                fcvColorYCbCr422PlanarToYCbCr422PseudoPlanaru8
                0x0000000000028e98                fcvColorYCbCr422PlanarToYCbCr420PseudoPlanaru8
                0x000000000002900c                fcvColorYCbCr420PlanarToYCbCr444Planaru8
                0x00000000000291b0                fcvColorYCbCr420PlanarToYCbCr422Planaru8
                0x000000000002935c                fcvColorYCbCr420PlanarToYCbCr444PseudoPlanaru8
                0x00000000000294d4                fcvColorYCbCr420PlanarToYCbCr422PseudoPlanaru8
                0x0000000000029648                fcvColorYCbCr420PlanarToYCbCr420PseudoPlanaru8
                0x00000000000297bc                fcvColorYCbCr444PseudoPlanarToYCbCr422PseudoPlanaru8
                0x000000000002990c                fcvColorYCbCr444PseudoPlanarToYCbCr420PseudoPlanaru8
                0x0000000000029a5c                fcvColorYCbCr444PseudoPlanarToYCbCr444Planaru8
                0x0000000000029bd8                fcvColorYCbCr444PseudoPlanarToYCbCr422Planaru8
                0x0000000000029d5c                fcvColorYCbCr444PseudoPlanarToYCbCr420Planaru8
                0x0000000000029ee0                fcvColorYCbCr422PseudoPlanarToYCbCr444PseudoPlanaru8
                0x000000000002a030                fcvColorYCbCr422PseudoPlanarToYCbCr420PseudoPlanaru8
                0x000000000002a17c                fcvColorYCbCr422PseudoPlanarToYCbCr444Planaru8
                0x000000000002a2f4                fcvColorYCbCr422PseudoPlanarToYCbCr422Planaru8
                0x000000000002a474                fcvColorYCbCr422PseudoPlanarToYCbCr420Planaru8
                0x000000000002a5f4                fcvColorYCbCr420PseudoPlanarToYCbCr444PseudoPlanaru8
                0x000000000002a744                fcvColorYCbCr420PseudoPlanarToYCbCr422PseudoPlanaru8
                0x000000000002a890                fcvColorYCbCr420PseudoPlanarToYCbCr444Planaru8
                0x000000000002aa08                fcvColorYCbCr420PseudoPlanarToYCbCr422Planaru8
                0x000000000002ab88                fcvColorYCbCr420PseudoPlanarToYCbCr420Planaru8
                0x000000000002ad08                fcvColorYCbCr444PlanarToRGB565u8
                0x000000000002ae50                fcvColorYCbCr444PlanarToRGB888u8
                0x000000000002af98                fcvColorYCbCr444PlanarToRGBA8888u8
                0x000000000002b0e0                fcvColorYCbCr422PlanarToRGB565u8
                0x000000000002b230                fcvColorYCbCr422PlanarToRGB888u8
                0x000000000002b384                fcvColorYCbCr422PlanarToRGBA8888u8
                0x000000000002b4d4                fcvColorYCbCr420PlanarToRGB565u8
                0x000000000002b624                fcvColorYCbCr420PlanarToRGB888u8
                0x000000000002b778                fcvColorYCbCr420PlanarToRGBA8888u8
                0x000000000002b8c8                fcvColorYCbCr444PseudoPlanarToRGB565u8
                0x000000000002b9f4                fcvColorYCbCr444PseudoPlanarToRGB888u8
                0x000000000002bb24                fcvColorYCbCr444PseudoPlanarToRGBA8888u8
                0x000000000002bc54                fcvColorYCbCr422PseudoPlanarToRGB565u8
                0x000000000002bd80                fcvColorYCbCr422PseudoPlanarToRGB888u8
                0x000000000002beb4                fcvColorYCbCr422PseudoPlanarToRGBA8888u8
                0x000000000002bfe0                fcvColorYCbCr420PseudoPlanarToRGB565u8
                0x000000000002c10c                fcvColorYCbCr420PseudoPlanarToRGB888u8
                0x000000000002c23c                fcvColorYCbCr420PseudoPlanarToRGBA8888u8
                0x000000000002c368                fcvEdgeWeightings16
                0x000000000002c448                fcvDeinterleaveu8
                0x000000000002c574                fcvInterleaveu8
                0x000000000002c6b4                fcvDWTHarrTransposeu8
                0x000000000002c7d0                fcvDWTHaarTransposeu8
                0x000000000002c900                fcvDWT53TabTransposes16
                0x000000000002ca3c                fcvIDWT53TabTransposes16
                0x000000000002cb78                fcvIDWTHarrTransposes16
                0x000000000002cc94                fcvIDWTHaarTransposes16
                0x000000000002cdc4                fcvDWTHaaru8
                0x000000000002cef8                fcvDWT53Tabs16
                0x000000000002d02c                fcvIDWT53Tabs16
                0x000000000002d170                fcvIDWTHaars16
                0x000000000002d2ac                fcvImageSegmentationRegionGrow
                0x000000000002d40c                fcvDCTu8
                0x000000000002d544                fcvIDCTs16
                0x000000000002d678                fcvScaleUpPolyu8
                0x000000000002d7dc                fcvScaleUpPolyInterleaveu8
                0x000000000002d92c                fcvScaleDownMNu8
                0x000000000002dab8                fcvScaleDownMNInterleaveu8
                0x000000000002dc20                fcvKMeansTreeSearch36x10s8
                0x000000000002dcf8                fcvLinearSearch8x36s8
                0x000000000002de8c                fcvLinearSearchPrepare8x36s8
                0x000000000002df68                fcvFindContoursExternalu8
                0x000000000002e09c                fcvFindContoursListu8
                0x000000000002e1c8                fcvFindContoursCcompu8
                0x000000000002e310                fcvFindContoursTreeu8
                0x000000000002e458                fcvFindContoursAllocate
                0x000000000002e4c8                fcvFindContoursDelete
                0x000000000002e570                fcvSolvef32
                0x000000000002e64c                fcvGetPerspectiveTransformf32
                0x000000000002e728                fcvSetElementsu8
                0x000000000002e830                fcvSetElementss32
                0x000000000002e928                fcvSetElementsf32
                0x000000000002ea34                fcvSetElementsc4u8
                0x000000000002eb5c                fcvSetElementsc4s32
                0x000000000002ec54                fcvSetElementsc4f32
                0x000000000002ed78                fcvSetElementsc3u8
                0x000000000002ee98                fcvSetElementsc3s32
                0x000000000002ef94                fcvSetElementsc3f32
                0x000000000002f0b4                fcvAdaptiveThresholdGaussian3x3u8
                0x000000000002f208                fcvAdaptiveThresholdGaussian5x5u8
                0x000000000002f358                fcvAdaptiveThresholdGaussian11x11u8
                0x000000000002f4a0                fcvAdaptiveThresholdMean3x3u8
                0x000000000002f600                fcvAdaptiveThresholdMean5x5u8
                0x000000000002f760                fcvAdaptiveThresholdMean11x11u8
                0x000000000002f8c0                fcvBoxFilter3x3u8
                0x000000000002f9ec                fcvBoxFilter5x5u8
                0x000000000002fb18                fcvBoxFilter11x11u8
                0x000000000002fc44                fcvBoxFilterNxNf32
                0x000000000002fd98                fcvBilateralFilter5x5u8
                0x000000000002feb8                fcvBilateralFilter7x7u8
                0x000000000002ffd8                fcvBilateralFilter9x9u8
                0x00000000000300f8                fcvSegmentFGMasku8
                0x00000000000301d4                fcvAbsDiffu8
                0x0000000000030318                fcvAbsDiffs32
                0x0000000000030450                fcvAbsDifff32
                0x0000000000030580                fcvAbsDiffVu8
                0x00000000000306a4                fcvAbsDiffVs32
                0x00000000000307cc                fcvAbsDiffVf32
                0x0000000000030914                fcvAbsDiffVc4u8
                0x0000000000030a5c                fcvAbsDiffVc4s32
                0x0000000000030ba8                fcvAbsDiffVc4f32
                0x0000000000030d08                fcvAbsDiffVc3u8
                0x0000000000030e44                fcvAbsDiffVc3s32
                0x0000000000030f8c                fcvAbsDiffVc3f32
                0x00000000000310e0                fcvKDTreeCreate36s8f32
                0x0000000000031178                fcvKDTreeDestroy36s8f32
                0x00000000000311f4                fcvKDTreeQuery36s8f32
                0x0000000000031370                fcvBitwiseOru8
                0x0000000000031490                fcvBitwiseOrs32
                0x00000000000315b0                fcvColorRGB888ToGrayu8
                0x00000000000316d4                fcvTiltedIntegralu8s32
                0x00000000000317f0                fcvConvValids16
                0x0000000000031974                fcvIntegrateImageYCbCr420PseudoPlanaru8
                0x0000000000031bb8                fcvFindForegroundIntegrateImageYCbCr420u32
                0x0000000000031e50                fcvFloodfillSimpleu8
                0x0000000000031ff0                fcvUpdateMotionHistoryu8s32
                0x0000000000032164                fcvAverages32
                0x0000000000032274                fcvAverageu8
                0x0000000000032390                fcvMeanShiftu8
                0x000000000003248c                fcvMeanShifts32
                0x0000000000032588                fcvMeanShiftf32
                0x0000000000032684                fcvConAdaTracku8
                0x0000000000032788                fcvConAdaTracks32
                0x0000000000032894                fcvConAdaTrackf32
                0x00000000000329a0                fcvSVDf32
                0x0000000000032aec                fcvFillConvexPolyu8
                0x0000000000032c24                fcvPointPolygonTest
                0x0000000000032cfc                fcvFindConvexHull
                0x0000000000032df8                fcvSolveCholeskyf32
                0x0000000000032ed0                fcvGeomUndistortPoint2x1f32
                0x0000000000032fd0                fcvGeomUndistortPoint2xNf32
                0x0000000000033104                fcvGeomDistortPoint2x1f32
                0x00000000000331fc                fcvGeomDistortPoint2xNf32
                0x0000000000033330                fcvGeomProjectPoint3x1f32
                0x000000000003342c                fcvGeomProjectPoint3xNf32
                0x0000000000033594                fcvRemapRGBA8888NNu8
                0x0000000000033744                fcvRemapRGBA8888BLu8
                0x0000000000033918                fcvJacobianSE2f32
                0x0000000000033ad4                fcvTransformAffineClippedu8
                0x0000000000033c0c                fcvCreateBGCodeBookModel
                0x0000000000033ca4                fcvReleaseBGCodeBookModel
                0x0000000000033d4c                fcvConfigBGCodeBookModel
                0x0000000000033e00                fcvBGCodeBookUpdateu8
                0x0000000000033f38                fcvBGCodeBookDiffu8
                0x0000000000034078                fcvBGCodeBookClearStaleu8
                0x000000000003417c                fcvHoughCircleu8
                0x00000000000342b8                fcvDrawContouru8
                0x0000000000034414                fcvDrawContourInterleavedu8
                0x0000000000034588                fcvDrawContourPlanaru8
                0x0000000000034708                fcvImageMomentsu8
                0x0000000000034824                fcvImageMomentss32
                0x000000000003493c                fcvImageMomentsf32
                0x0000000000034a54                fcvSolveLDLf32
                0x0000000000034b28                fcvDotProductf32
                0x0000000000034bf4                fcv3ChannelTransformAffineClippedBCu8
                0x0000000000034d90                fcvFilterThresholdOtsuu8
                0x0000000000034f54                fcvImageDetectEdgePixelsu8
                0x0000000000035080                fcvTransposeu8
                0x00000000000351c8                fcvTransposeu16
                0x0000000000035320                fcvTransposef32
                0x0000000000035478                fcvFlipu8
                0x00000000000355cc                fcvFlipu16
                0x000000000003572c                fcvElementMultiplyu8u16
                0x00000000000358bc                fcvElementMultiplyf32
                0x0000000000035a4c                fcvMatrixMultiplys8s32
                0x0000000000035bc0                fcvMatrixMultiplyf32
                0x0000000000035d40                fcvBlockDotProductu8
                0x0000000000035e14                fcvBlockDotProductf32
                0x0000000000035eec                fcvAddu8u16
                0x0000000000036078                fcvAdds16
                0x0000000000036208                fcvAddf32
                0x0000000000036398                fcvSumOfSquaredDiffsu8
                0x00000000000364a0                fcvSumOfSquaredDiffsf32
                0x00000000000365a8                fcvClusterEuclideanu8
                0x00000000000366b8                fcvImageHistogramEqualizeu8
                0x00000000000367fc                fcvImageSpatialHistogramu8
                0x0000000000036914                fcvScaleDownBLu8
                0x0000000000036a70                fcvSumOfSquaredDiffss8
                0x0000000000036b78                fcvHoughLineu8
                0x0000000000036ca0                fcvColorCbCrSwapu8
                0x0000000000036dec                fcvFloodfillMergedu8
                0x0000000000036ef8                fcvFilterCorrNxNu8f32
                0x0000000000037000                fcvFilterCorrNxNu8s16
                0x0000000000037118                fcvFilterCorrNxNu8
                0x000000000003722c                fcvFilterCorrSepMxNu8
                0x000000000003735c                fcvFilterErodeNxNu8
                0x0000000000037440                fcvFilterDilateNxNu8
                0x0000000000037524                fcvAddScalarf32
                0x0000000000037620                fcvAddScalars16
                0x000000000003770c                fcvMultiplyScalarf32
                0x0000000000037808                fcvMultiplyScalars16
                0x00000000000378fc                fcvMinMaxLocu8
                0x0000000000037a14                fcvMinMaxLocu16
                0x0000000000037b24                fcvMinMaxLocs16
                0x0000000000037c34                fcvMinMaxLocu32
                0x0000000000037d44                fcvMinMaxLocs32
                0x0000000000037e54                fcvMinMaxLocf32
                0x0000000000037f64                fcvTransposeRGB888u8
                0x0000000000038048                fcvCrossProduct3x1f32
                0x00000000000380ac                fcvSolveLUf32
                0x0000000000038180                fcvFilterThresholdRangeu8
                0x00000000000382d0                fcvRemapu8
                0x0000000000038404                fcvFilterSobel3x3u8s16
                0x0000000000038504                fcvFilterSobel5x5u8s16
                0x0000000000038604                fcvFilterSobel7x7u8s16
                0x0000000000038704                fcvFlipRGB888u8
                0x00000000000387f4                fcvRotateImageu8
                0x00000000000389a0                fcvRotateImageInterleavedu8
                0x0000000000038b5c                fcvFilterCannyu8
                0x0000000000038cb4                fcvGLBPu8
                0x0000000000038dc0                fcvIntegratePatchu8_v3
                0x0000000000038ef0                fcvBitwiseAndu8
                0x0000000000039000                fcvBitwiseXoru8
                0x0000000000039110                fcvBitwiseNotu8
                0x0000000000039204                fcvAddu8
                0x000000000003930c                fcvAdds16_v2
                0x000000000003941c                fcvAddu16u8u16
                0x000000000003952c                fcvSubtractu8
                0x0000000000039634                fcvSubtracts16
                0x0000000000039744                fcvSubtractu8s16
                0x0000000000039844                fcvElementMultiplys16
                0x000000000003995c                fcvElementMultiplyu8s16
                0x0000000000039a74                fcvElementMultiplyu8
                0x0000000000039b84                fcvAddWeightedu8
                0x0000000000039ca4                fcvAddSquaredu8u16
                0x0000000000039dac                fcvTableLookupu8
                0x0000000000039e98                fcvConvertDepthu8s16
                0x0000000000039f84                fcvConvertDepths16u8
                0x000000000003a07c                fcvWarpPerspectiveu8_v3
                0x000000000003a19c                fcvTransformAffineClippedu8_v2
                0x000000000003a2f0                fcvSVMPredict2Classf32
                0x000000000003a568                fcvBilateralFilter5x5u8_v2
                0x000000000003a690                fcvBilateralFilter7x7u8_v2
                0x000000000003a7b8                fcvBilateralFilter9x9u8_v2
                0x000000000003a8e0                fcvBilateralFilterRecursiveu8
                0x000000000003aa00                fcvMagnitudes16
                0x000000000003ab04                fcvPhases16
                0x000000000003ac04                fcvImageSegmentationSeedRegionGrows16
                0x000000000003ad34                fcvChannelCombine2Planesu8
                0x000000000003ae34                fcvChannelCombine3Planesu8
                0x000000000003af6c                fcvChannelCombine4Planesu8
                0x000000000003b0d0                fcvChannelExtractu8
                0x000000000003b1dc                fcvFFTu8
                0x000000000003b2dc                fcvIFFTf32
                0x000000000003b3dc                fcvNCCPatchesOnRectu8
                0x000000000003b560                fcvNormalizeLocalBoxu8
                0x000000000003b674                fcvNormalizeLocalBoxf32
                0x000000000003b78c                fcvColorRGB888ToHSV888u8
                0x000000000003b878                fcvScaleu8
                0x000000000003b980                fcvCornerRefineSubPixu8
                0x000000000003bad4                fcvGoodFeatureToTracku8
                0x000000000003bbfc                fcvInvertAffineTransformf32
                0x000000000003bc98                fcvGeomHomographyRobustFitf32
                0x000000000003bd58                fcvFilterMedianMxNs16
                0x000000000003be58                fcvFilterConvolveMxNu8s16
                0x000000000003bf8c                fcvFilterConvolveMxNu8
                0x000000000003c0b8                fcvICPJacobianErrorSE3f32
                0x000000000003c1f8                fcv2PlaneWarpPerspectiveu8
                0x000000000003c358                fcvFindMultipleMaximau8
                0x000000000003c48c                fcvImageDetectLineSegmentsu8
                0x000000000003c5b4                fcvBoxFilter3x3u8_v2
                0x000000000003c6a8                fcvFilterErode3x3u8_v3
                0x000000000003c7e8                fcvFilterDilate3x3u8_v3
                0x000000000003c928                fcvFilterGaussian3x3u8_v3
                0x000000000003ca1c                fcvFilterMedian3x3u8_v3
                0x000000000003cb10                fcvImageSpatialHistogramu8_v2
                0x000000000003cc10                fcvFilterThresholdu8_v3
                0x000000000003cd6c                fcvFilterThresholdRangeu8_v2
                0x000000000003ced0                fcvScaleDownBy2Gaussian3x3u8
                0x000000000003cfb4                fcvGeomHomographyFitf32_v2
                0x000000000003d088                fcvGeomHomographyRobustFitf32_v2
                0x000000000003d158                fcvPyramidAllocate_v3
                0x000000000003d254                fcvPyramidCreateu8_v3
                0x000000000003d330                fcvCornerHarrisScoreu8
                0x000000000003d4f4                fcvDepthFusion8x8x8xNs16
                0x000000000003d60c                fcvTrackLKOpticalFlowu8_v3
                0x000000000003d79c                fcvRemapu8_v2
                0x000000000003d8ec                fcvTransformAffineClippedu8_v3
                0x000000000003da28                fcvWarpPerspectiveu8_v4
                0x000000000003db5c                fcvScaleu8_v2
                0x000000000003dc7c                fcvUndistortDisparityConvertDepthf32
                0x000000000003dde8                fcvRegisterDepthImagef32
                0x000000000003df00                fcvConvertDepthImageToPointCloudf32
                0x000000000003dfe8                fcvMinMaxLocf32_v2
                0x000000000003e138                fcvMinMaxLocu8_v2
                0x000000000003e288                fcvMinMaxLocu16_v2
                0x000000000003e3d8                fcvMinMaxLocs16_v2
                0x000000000003e528                fcvMinMaxLocu32_v2
                0x000000000003e678                fcvMinMaxLocs32_v2
 .text          0x000000000003e7c8      0x178 lib/libfastcv.a(libfastcv_la-fastcvMemAndroid.o)
                0x000000000003e7c8                fcvMemAlign
                0x000000000003e834                fcvMemAlignFree
                0x000000000003e854                fcvMemAlloc
                0x000000000003e8f0                fcvMemFree
 .text          0x000000000003e940      0xfcc lib/libfastcv.a(libfastcv_la-fastcvMem.o)
                0x000000000003ebbc                fcvMemInit
                0x000000000003efdc                fcvMemInitPreAlloc
                0x000000000003f0a4                fcvMemDeInit
 .text          0x000000000003f90c     0x9368 lib/libfastcv.a(libfastcv_la-fastcv.o)
                0x000000000003f90c                uRNull()
                0x0000000000040c0c                fcvSetOperationMode_internal
                0x0000000000048bd8                fcvSetOperationMode
                0x0000000000048c20                fcvCleanUp
                0x0000000000048c50                fcvGetVersion
 .text          0x0000000000048c74        0x8 lib/libfastcv.a(libfastcv_la-fastcvHeapStats.o)
                0x0000000000048c74                fcvHeapStatsInit()
                0x0000000000048c76                fcvHeapStatsMalloc(void*, unsigned int)
                0x0000000000048c78                fcvHeapStatsFree(void*)
                0x0000000000048c7a                fcvHeapStats()
 .text          0x0000000000048c7c      0xdc4 lib/libfastcv.a(libfastcv_la-fastcvHelper.o)
                0x0000000000048c7c                uCHelper()
                0x000000000004936c                uVHelper()
 .text          0x0000000000049a40      0x16c lib/libfastcv.a(libfastcv_la-fastcvHW.o)
                0x0000000000049a40                fcvInitSharedMem
                0x0000000000049a44                fcvDeInitSharedMem
                0x0000000000049a7c                fcvSetHWFlag(unsigned int)
                0x0000000000049a88                fcvTableHWInitRemote(FCV_FUNC_MANAGER*, fcvOperationMode)
                0x0000000000049ba0                probeQ6TimeC
                0x0000000000049ba6                fcvRegisterBufC
 .text          0x0000000000049bac     0x248a lib/libfastcv.a(libfastcv_la-fastcvAbsDiffC.o)
                0x0000000000049bac                fcvAbsDiffu8C
                0x0000000000049e96                fcvAbsDiffs32C
                0x000000000004a178                fcvAbsDifff32C
                0x000000000004a4b2                fcvAbsDiffVu8C
                0x000000000004a704                fcvAbsDiffVs32C
                0x000000000004a992                fcvAbsDiffVf32C
                0x000000000004ac4e                fcvAbsDiffVc4u8C
                0x000000000004b0dc                fcvAbsDiffVc4s32C
                0x000000000004b3f8                fcvAbsDiffVc4f32C
                0x000000000004b6ac                fcvAbsDiffVc3u8C
                0x000000000004ba3e                fcvAbsDiffVc3s32C
                0x000000000004bd64                fcvAbsDiffVc3f32C
 *fill*         0x000000000004c036        0x2 
 .text          0x000000000004c038     0x18d0 lib/libfastcv.a(libfastcv_la-fastcvAdaptiveThresholdC.o)
                0x000000000004c038                adaptiveThresholdC
                0x000000000004c7a4                fcvAdaptiveThresholdGaussian3x3u8C
                0x000000000004ca8c                fcvAdaptiveThresholdGaussian5x5u8C
                0x000000000004cd74                fcvAdaptiveThresholdGaussian11x11u8C
                0x000000000004d05c                fcvAdaptiveThresholdMean3x3u8C
                0x000000000004d340                fcvAdaptiveThresholdMean5x5u8C
                0x000000000004d624                fcvAdaptiveThresholdMean11x11u8C
 .text          0x000000000004d908      0x4e4 lib/libfastcv.a(libfastcv_la-fastcvAffineC.o)
                0x000000000004d908                fcvGeomAffineFitf32C
                0x000000000004db98                fcvGeomAffineEvaluatef32C
                0x000000000004dd58                fcvInvertAffineTransformf32C
 .text          0x000000000004ddec     0xc2f0 lib/libfastcv.a(libfastcv_la-fastcvArithmC.o)
                0x000000000004ddec                fcvTransposeu8C
                0x000000000004e0f6                fcvTransposeu16C
                0x000000000004e252                fcvTransposef32C
                0x000000000004e3ac                fcvFlipu8C
                0x000000000004ed08                fcvFlipu16C
                0x000000000004f50c                fcvElementMultiplyu8u16C
                0x000000000004f752                fcvElementMultiplyf32C
                0x000000000004fa6e                fcvMatrixMultiplys8s32C
                0x000000000004ff18                fcvMatrixMultiplyf32C
                0x0000000000050230                fcvBlockDotProductu8C
                0x0000000000050500                fcvBlockDotProductf32C
                0x000000000005066c                fcvAddu8u16C
                0x000000000005089a                fcvAdds16C
                0x0000000000050b84                fcvAddf32C
                0x0000000000050eb6                fcvAddScalarf32C
                0x000000000005114e                fcvAddScalars16C
                0x00000000000513b2                fcvMultiplyScalarf32C
                0x000000000005164a                fcvMultiplyScalars16C
                0x0000000000051c18                fcvMinMaxLocf32C
                0x0000000000051ecc                fcvMinMaxLocu8C
                0x00000000000520dc                fcvMinMaxLocu16C
                0x0000000000052348                fcvMinMaxLocs16C
                0x00000000000525c4                fcvMinMaxLocu32C
                0x00000000000527a0                fcvMinMaxLocs32C
                0x000000000005297c                fcvTransposeRGB888u8C
                0x0000000000052e48                fcvFlipRGB888u8C
                0x0000000000053678                fcvRotateImageu8C
                0x0000000000053bc0                fcvRotateImageInterleavedu8C
                0x0000000000053ffc                fcvAddu8C
                0x00000000000545ce                fcvAdds16_v2C
                0x0000000000054c9e                fcvAddu16u8u16C
                0x00000000000552ba                fcvSubtractu8C
                0x000000000005585e                fcvSubtracts16C
                0x0000000000055f42                fcvSubtractu8s16C
                0x0000000000056180                fcvElementMultiplys16C
                0x0000000000056e1e                fcvElementMultiplyu8s16C
                0x00000000000576f2                fcvElementMultiplyu8C
                0x0000000000058340                fcvAddWeightedu8C
                0x0000000000058830                fcvAddSquaredu8u16C
                0x0000000000058f42                fcvMagnitudes16C
                0x0000000000059164                fcvPhases16C
                0x000000000005939c                fcvMinMaxLocf32_v2C
                0x0000000000059602                fcvMinMaxLocu8_v2C
                0x0000000000059834                fcvMinMaxLocu16_v2C
                0x0000000000059a58                fcvMinMaxLocs16_v2C
                0x0000000000059c92                fcvMinMaxLocu32_v2C
                0x0000000000059eb6                fcvMinMaxLocs32_v2C
 .text          0x000000000005a0dc      0x4bc lib/libfastcv.a(libfastcv_la-fastcvAverageC.o)
                0x000000000005a0dc                fcvAverages32C
                0x000000000005a288                fcvAverageu8C
 .text          0x000000000005a598     0x1244 lib/libfastcv.a(libfastcv_la-fastcvBGCodeBookC.o)
                0x000000000005a598                allocateMemStorage
                0x000000000005a5ec                freeMemStorage
                0x000000000005a628                allocateMemBlock
                0x000000000005a70c                fcvCreateBGCodeBookModelC
                0x000000000005aa90                fcvConfigBGCodeBookModelC
                0x000000000005aac4                fcvReleaseBGCodeBookModelC
                0x000000000005ab44                ifcvBGCodeWordListAllocate
                0x000000000005ae1c                fcvBGCodeBookUpdateu8C
                0x000000000005b330                fcvBGCodeBookDiffu8C
                0x000000000005b568                fcvBGCodeBookClearStaleu8C
 .text          0x000000000005b7dc     0x1630 lib/libfastcv.a(libfastcv_la-fastcvBitCntC.o)
                0x000000000005b7dc                fcvBitCountu8C
                0x000000000005b87c                fcvBitCount32x1u8C
                0x000000000005b94c                fcvBitCount32x4u8C
                0x000000000005bd60                fcvBitCount64x1u8C
                0x000000000005be44                fcvBitCount64x4u8C
                0x000000000005c2c4                fcvBitCountu32C
                0x000000000005c3dc                fcvHammingDistanceu8C
                0x000000000005c4d0                fcvHammingDistance32x1u8a4C
                0x000000000005c5ec                fcvHammingDistance64x1u8a4C
                0x000000000005c708                fcvHammingDistance32x1u8C
                0x000000000005c824                fcvHammingDistance64x1u8C
                0x000000000005c940                fcvHammingDistance32x4u8a4C
 .text          0x000000000005ce0c     0x1330 lib/libfastcv.a(libfastcv_la-fastcvBitwiseOpC.o)
                0x000000000005ce0c                fcvBitwiseOru8C
                0x000000000005d4d6                fcvBitwiseOrs32C
                0x000000000005d98a                fcvBitwiseAndu8C
                0x000000000005dc50                fcvBitwiseXoru8C
                0x000000000005df16                fcvBitwiseNotu8C
 .text          0x000000000005e13c      0x9d0 lib/libfastcv.a(libfastcv_la-fastcvCalib3DC.o)
                0x000000000005e13c                fcvUndistortDisparityConvertDepthf32C
                0x000000000005e4f0                fcvRegisterDepthImagef32C
                0x000000000005e9a4                fcvConvertDepthImageToPointCloudf32C
 .text          0x000000000005eb0c      0x6d0 lib/libfastcv.a(libfastcv_la-fastcvCalibrateC.o)
                0x000000000005eb0c                fcvGeomDistortPoint2x1f32C
                0x000000000005eba2                fcvGeomUndistortPoint2x1f32C
                0x000000000005eca8                fcvGeomProjectPoint3x1f32C
                0x000000000005ed74                fcvGeomDistortPoint2xNf32C
                0x000000000005ef50                fcvGeomUndistortPoint2xNf32C
                0x000000000005f084                fcvGeomProjectPoint3xNf32C
 .text          0x000000000005f1dc     0x2114 lib/libfastcv.a(libfastcv_la-fastcvChannelC.o)
                0x000000000005f1dc                fcvChannelCombine2Planesu8C
                0x000000000005f200                fcvChannelCombine3Planesu8C
                0x000000000005f530                fcvChannelCombine4Planesu8C
                0x000000000005f910                ifcvChannelExtractFromRGB_C
                0x000000000005fb44                ifcvChannelExtractFromRGBA_C
                0x000000000005fd6c                ifcvChannelExtractFromNV12_C
                0x00000000000600b8                ifcvChannelExtractFromNV21_C
                0x0000000000060404                ifcvChannelExtractFromUYVY_C
                0x00000000000608d4                ifcvChannelExtractFromYUYV_C
                0x0000000000060d9c                ifcvChannelExtractFromIYUV(unsigned char const*, unsigned int, unsigned int, unsigned int, unsigned char const*, unsigned int, unsigned char const*, unsigned int, fcvChannelType, unsigned char*, unsigned int)
                0x0000000000060fac                ifcvChannelExtractFromYUV4(unsigned char const*, unsigned int, unsigned int, unsigned int, unsigned char const*, unsigned int, unsigned char const*, unsigned int, fcvChannelType, unsigned char*, unsigned int)
                0x000000000006110c                fcvChannelExtractu8C
 .text          0x00000000000612f0     0x6b00 lib/libfastcv.a(libfastcv_la-fastcvColor2C.o)
                0x00000000000612f0                fcvColorRGB565ToYCbCr444Planaru8C
                0x00000000000614a0                fcvColorRGB565ToYCbCr422Planaru8C
                0x0000000000061654                fcvColorRGB565ToYCbCr420Planaru8C
                0x00000000000616f4                fcvColorRGB888ToYCbCr444Planaru8C
                0x00000000000618a4                fcvColorRGB888ToYCbCr422Planaru8C
                0x0000000000061a58                fcvColorRGB888ToYCbCr420Planaru8C
                0x0000000000061af8                fcvColorRGBA8888ToYCbCr444Planaru8C
                0x0000000000061ca8                fcvColorRGBA8888ToYCbCr422Planaru8C
                0x0000000000061e5c                fcvColorRGBA8888ToYCbCr420Planaru8C
                0x0000000000061efc                fcvColorRGB565ToYCbCr444PseudoPlanaru8C
                0x0000000000062048                fcvColorRGB565ToYCbCr422PseudoPlanaru8C
                0x0000000000062194                fcvColorRGB565ToYCbCr420PseudoPlanaru8C
                0x0000000000062210                fcvColorRGB888ToYCbCr444PseudoPlanaru8C
                0x000000000006235c                fcvColorRGB888ToYCbCr422PseudoPlanaru8C
                0x00000000000624a8                fcvColorRGB888ToYCbCr420PseudoPlanaru8C
                0x0000000000062524                fcvColorRGBA8888ToYCbCr444PseudoPlanaru8C
                0x0000000000062670                fcvColorRGBA8888ToYCbCr422PseudoPlanaru8C
                0x00000000000627bc                fcvColorRGBA8888ToYCbCr420PseudoPlanaru8C
                0x0000000000062838                fcvColorRGB565ToRGB888u8C
                0x000000000006292c                fcvColorRGB565ToRGBA8888u8C
                0x0000000000062a20                fcvColorRGB565ToBGR565u8C
                0x0000000000062b14                fcvColorRGB565ToBGR888u8C
                0x0000000000062c08                fcvColorRGB565ToBGRA8888u8C
                0x0000000000062cfc                fcvColorRGB888ToRGB565u8C
                0x0000000000062df0                fcvColorRGB888ToRGBA8888u8C
                0x0000000000062ee4                fcvColorRGB888ToBGR565u8C
                0x0000000000062fd8                fcvColorRGB888ToBGR888u8C
                0x00000000000630cc                fcvColorRGB888ToBGRA8888u8C
                0x00000000000631c0                fcvColorRGBA8888ToRGB565u8C
                0x00000000000632b4                fcvColorRGBA8888ToRGB888u8C
                0x00000000000633a8                fcvColorRGBA8888ToBGR565u8C
                0x000000000006349c                fcvColorRGBA8888ToBGR888u8C
                0x0000000000063590                fcvColorRGBA8888ToBGRA8888u8C
                0x0000000000063684                fcvColorYCbCr444PlanarToYCbCr422Planaru8C
                0x0000000000063b14                fcvColorYCbCr444PlanarToYCbCr420Planaru8C
                0x0000000000063c4c                fcvColorYCbCr444PlanarToYCbCr444PseudoPlanaru8C
                0x0000000000063fc4                fcvColorYCbCr444PlanarToYCbCr422PseudoPlanaru8C
                0x0000000000064344                fcvColorYCbCr444PlanarToYCbCr420PseudoPlanaru8C
                0x0000000000064430                fcvColorYCbCr422PlanarToYCbCr444Planaru8C
                0x0000000000064940                fcvColorYCbCr422PlanarToYCbCr420Planaru8C
                0x0000000000064a6c                fcvColorYCbCr422PlanarToYCbCr444PseudoPlanaru8C
                0x0000000000064e20                fcvColorYCbCr422PlanarToYCbCr422PseudoPlanaru8C
                0x00000000000651b8                fcvColorYCbCr422PlanarToYCbCr420PseudoPlanaru8C
                0x00000000000652bc                fcvColorYCbCr420PlanarToYCbCr444Planaru8C
                0x0000000000065440                fcvColorYCbCr420PlanarToYCbCr422Planaru8C
                0x00000000000655a4                fcvColorYCbCr420PlanarToYCbCr444PseudoPlanaru8C
                0x00000000000656cc                fcvColorYCbCr420PlanarToYCbCr422PseudoPlanaru8C
                0x00000000000657e4                fcvColorYCbCr420PlanarToYCbCr420PseudoPlanaru8C
                0x00000000000658d4                fcvColorYCbCr444PseudoPlanarToYCbCr422PseudoPlanaru8C
                0x0000000000065b94                fcvColorYCbCr444PseudoPlanarToYCbCr420PseudoPlanaru8C
                0x0000000000065c54                fcvColorYCbCr444PseudoPlanarToYCbCr444Planaru8C
                0x000000000006602c                fcvColorYCbCr444PseudoPlanarToYCbCr422Planaru8C
                0x00000000000663c0                fcvColorYCbCr444PseudoPlanarToYCbCr420Planaru8C
                0x00000000000664b0                fcvColorYCbCr422PseudoPlanarToYCbCr444PseudoPlanaru8C
                0x0000000000066770                fcvColorYCbCr422PseudoPlanarToYCbCr420PseudoPlanaru8C
                0x0000000000066818                fcvColorYCbCr422PseudoPlanarToYCbCr444Planaru8C
                0x0000000000066ba8                fcvColorYCbCr422PseudoPlanarToYCbCr422Planaru8C
                0x0000000000066f84                fcvColorYCbCr422PseudoPlanarToYCbCr420Planaru8C
                0x0000000000067084                fcvColorYCbCr420PseudoPlanarToYCbCr444PseudoPlanaru8C
                0x000000000006716c                fcvColorYCbCr420PseudoPlanarToYCbCr422PseudoPlanaru8C
                0x0000000000067238                fcvColorYCbCr420PseudoPlanarToYCbCr444Planaru8C
                0x0000000000067378                fcvColorYCbCr420PseudoPlanarToYCbCr422Planaru8C
                0x00000000000674c4                fcvColorYCbCr420PseudoPlanarToYCbCr420Planaru8C
                0x00000000000675c4                fcvColorRGBA8888ToLABu8C
                0x0000000000067bb8                fcvColorCbCrSwapu8C
 .text          0x0000000000067df0     0xb940 lib/libfastcv.a(libfastcv_la-fastcvColorC.o)
                0x0000000000067df0                yuvp2bgr565
                0x00000000000685b0                yuvp2bgr888
                0x0000000000068bc0                yuvp2bgra
                0x0000000000069240                yyuvp2bgr565
                0x0000000000069408                yyuvp2bgr888
                0x0000000000069598                yyuvp2bgra
                0x0000000000069730                yuv2bgr565
                0x0000000000069f40                yuv2bgr888
                0x000000000006a5f0                yuv2bgra
                0x000000000006ad20                yyuv2bgr565
                0x000000000006aed8                yyuv2bgr888
                0x000000000006b04c                yyuv2bgra
                0x000000000006b1c8                rgb888_to_rgb565_srcFromRight_dstFromLeft
                0x000000000006b618                rgb8882hsv
                0x000000000006b6e0                fcvColorYCrCb420PseudoPlanarToRGB8888u8C
                0x000000000006b9c0                fcvColorYUV420toRGB565u8C
                0x000000000006c5e0                fcvColorYUV420toRGB565u8Rotate180C
                0x000000000006d3e0                fcvColorYCrCbH1V1toRGB888u8C
                0x000000000006d7ec                fcvColorYCrCbH2V2toRGB888u8C
                0x000000000006dc2e                fcvColorYCrCbH2V1toRGB888u8C
                0x000000000006dfea                fcvColorYCrCbH1V2toRGB888u8C
                0x000000000006e7f0                fcvColorRGB888toYCrCbu8C
                0x000000000006f080                fcvColorYCbCr444PlanarToRGB565u8C
                0x000000000006fa60                fcvColorYCbCr444PlanarToRGB888u8C
                0x0000000000070260                fcvColorYCbCr444PlanarToRGBA8888u8C
                0x0000000000070b10                fcvColorYCbCr422PlanarToRGB565u8C
                0x0000000000070c7c                fcvColorYCbCr422PlanarToRGB888u8C
                0x0000000000070de8                fcvColorYCbCr422PlanarToRGBA8888u8C
                0x0000000000070f54                fcvColorYCbCr420PlanarToRGB565u8C
                0x0000000000070fe2                fcvColorYCbCr420PlanarToRGB888u8C
                0x000000000007106a                fcvColorYCbCr420PlanarToRGBA8888u8C
                0x0000000000071100                fcvColorYCbCr444PseudoPlanarToRGB565u8C
                0x0000000000071a50                fcvColorYCbCr444PseudoPlanarToRGB888u8C
                0x0000000000072200                fcvColorYCbCr444PseudoPlanarToRGBA8888u8C
                0x0000000000072a20                fcvColorYCbCr422PseudoPlanarToRGB565u8C
                0x0000000000072b16                fcvColorYCbCr422PseudoPlanarToRGB888u8C
                0x0000000000072c0c                fcvColorYCbCr422PseudoPlanarToRGBA8888u8C
                0x0000000000072d02                fcvColorYCbCr420PseudoPlanarToRGB565u8C
                0x0000000000072d70                fcvColorYCbCr420PseudoPlanarToRGB888u8C
                0x0000000000072dde                fcvColorYCbCr420PseudoPlanarToRGBA8888u8C
                0x0000000000072e4c                fcvColorRGB888ToRGB565Rotate180u8C
                0x0000000000073330                fcvColorRGB888ToGrayu8C
                0x0000000000073678                fcvColorRGB888ToHSV888u8C
 .text          0x0000000000073730      0x4f2 lib/libfastcv.a(libfastcv_la-fastcvColorPpfYuvUtilsC.o)
                0x0000000000073730                ifcv_yuv_deinterleave_cbcrC
                0x00000000000738e0                ifcv_yuv_interleave_chromaC
                0x0000000000073a70                interleaves16C
 .text          0x0000000000073c22      0x214 lib/libfastcv.a(libfastcv_la-fastcvColorRgb2LabC.o)
                0x0000000000073c22                rgb2labC
 .text          0x0000000000073e36     0x7e60 lib/libfastcv.a(libfastcv_la-fastcvColorRgb2YuvC.o)
                0x0000000000073e36                rgb5652yuvpC
                0x000000000007464a                rgb8882yuvpC
                0x0000000000074e0c                rgba88882yuvpC
                0x00000000000755ca                rgb5652yyuvpC
                0x00000000000761aa                rgb8882yyuvpC
                0x0000000000076d04                rgba88882yyuvpC
                0x0000000000077bc4                rgb5652yC
                0x0000000000077e66                rgb8882yC
                0x0000000000078090                rgba88882yC
                0x00000000000782ba                rgb5652yuvC
                0x0000000000078a30                rgb8882yuvC
                0x0000000000079156                rgba88882yuvC
                0x000000000007987e                rgb5652yyuvC
                0x000000000007a3d8                rgb8882yyuvC
                0x000000000007ae6c                rgba88882yyuvC
 .text          0x000000000007bc96     0x1cdc lib/libfastcv.a(libfastcv_la-fastcvColorRgbConversionC.o)
                0x000000000007bc96                rgb565_to_rgb888C
                0x000000000007bec4                rgb565_to_rgba8888C
                0x000000000007c09e                rgb565_to_bgr565C
                0x000000000007c292                rgb565_to_bgr888C
                0x000000000007c4c0                rgb565_to_bgra8888C
                0x000000000007c69a                rgb888_to_rgb565C
                0x000000000007c876                rgb888_to_rgba8888C
                0x000000000007ca74                rgb888_to_bgr565C
                0x000000000007cc50                rgb888_to_bgr888C
                0x000000000007ce10                rgb888_to_bgra8888C
                0x000000000007d02e                rgba8888_to_rgb565C
                0x000000000007d210                rgba8888_to_rgb888C
                0x000000000007d3c0                rgba8888_to_bgr565C
                0x000000000007d5a2                rgba8888_to_bgr888C
                0x000000000007d782                rgba8888_to_bgra8888C
 .text          0x000000000007d972     0x1082 lib/libfastcv.a(libfastcv_la-fastcvColorYuvConversionC.o)
                0x000000000007d972                downsample_horizontalC
                0x000000000007da9a                downsample_horizontal_iC
                0x000000000007dc00                downsample_and_interleave_horizontalC
                0x000000000007dd9a                upsample_and_interleave_horizontalC
                0x000000000007dfac                downsample_and_deinterleave_horizontalC
                0x000000000007e15e                upsample_and_deinterleave_horizontalC
                0x000000000007e3a6                yuva_to_yyuvC
                0x000000000007e8ca                yuva_to_yC
 .text          0x000000000007e9f4     0x2fe4 lib/libfastcv.a(libfastcv_la-fastcvContourC.o)
                0x000000000007e9f4                fcvPreProcessu8C
                0x000000000007ec14                fcvFindContoursExternalu8C
                0x000000000007ee4c                fcvFindContoursListu8C
                0x000000000007f048                fcvFindContoursCcompu8C
                0x000000000007f37c                fcvFindContoursTreeu8C
                0x000000000007f69c                fcvFindContoursAllocateC
                0x000000000007f6e6                fcvFindContoursDeleteC
                0x000000000007f6ec                followEdge(unsigned int, unsigned int, unsigned int, short, short, fcvLineSegment*, unsigned int*, unsigned int*, unsigned short*, short*, unsigned char*, int)
                0x000000000007fbf4                getMaximaCoordinatesNxN(unsigned char const*, int, int, int, float, float, int*, int*, int*)
                0x0000000000080080                fcvImageDetectLineSegmentsu8C
                0x0000000000081410                fcvFindMultipleMaximau8C
 .text          0x00000000000819d8      0x66c lib/libfastcv.a(libfastcv_la-fastcvCopyC.o)
                0x00000000000819d8                fcvCopyC
                0x00000000000819ec                fcvCopyRotated17x17u8C
 .text          0x0000000000082044     0x10b0 lib/libfastcv.a(libfastcv_la-fastcvCornerSubPixelC.o)
                0x0000000000082044                fcvCornerRefineSubPixu8C
 .text          0x00000000000830f4      0xd10 lib/libfastcv.a(libfastcv_la-fastcvDepthFusionC.o)
                0x00000000000830f4                fcvDepthFusion8x8x8xNs16C
 .text          0x0000000000083e04      0x1f0 lib/libfastcv.a(libfastcv_la-fastcvDescriptor2C.o)
                0x0000000000083e04                fcvDescriptorSampledMeanAndVar36f32C
 .text          0x0000000000083ff4     0x1034 lib/libfastcv.a(libfastcv_la-fastcvDescriptorC.o)
                0x0000000000083ff4                fcvDescriptor17x17u8To36s8C
 .text          0x0000000000085028     0x1908 lib/libfastcv.a(libfastcv_la-fastcvEucldeanC.o)
                0x0000000000085028                ifcvClusterEuclideanf32HelperC
                0x00000000000858fc                fcvClusterEuclideanf32C
                0x0000000000085bc0                fcvClusterEuclideanNormedf32C
                0x0000000000085f18                fcvClusterEuclideanNormed36f32C
                0x0000000000085f50                fcvClusterEuclideanu8C
 .text          0x0000000000086930      0x5dc lib/libfastcv.a(libfastcv_la-fastcvFloodFillC.o)
                0x0000000000086930                fcvFloodfillCommonu8(unsigned char const*, unsigned int, unsigned int, unsigned int, unsigned char*, unsigned int, unsigned int, unsigned int, unsigned char, fcvConnectedComponent*, unsigned char, void*)
                0x0000000000086d7c                fcvFloodfillSimpleu8C
                0x0000000000086dcc                fcvFloodfillMergedu8C
 *fill*         0x0000000000086f0c        0x4 
 .text          0x0000000000086f10     0x2d90 lib/libfastcv.a(libfastcv_la-fastcvGeomC.o)
                0x0000000000086f10                fcvGeomPoseUpdatef32C
                0x0000000000087730                fcvGeomPoseOptimizeGNf32C
                0x00000000000879d8                fcvGeomPoseEvaluateErrorf32C
                0x0000000000087d04                fcvGeomPoseRefineGNf32C
                0x0000000000088160                fcvGeomPoseEvaluatef32C
                0x00000000000882f0                find_quartic_real_roots
                0x0000000000088628                fcvGeom3PointPoseEstimatef32C
                0x00000000000891f4                fcvHypotC
                0x0000000000089250                fcvGetPerspectiveTransformf32C
                0x000000000008993c                fcvICPJacobianErrorSE3f32C
 .text          0x0000000000089ca0     0x8fa4 lib/libfastcv.a(libfastcv_la-fastcvHarrisC.o)
                0x0000000000089ca0                fcvCornerHarrisu8C
                0x000000000008b49c                fcvGoodFeatureToTracku8C
                0x000000000008cc04                fcvLocalHarrisMaxu8C
                0x000000000008d8d4                fcvCornerHarrisInMasku8C
                0x000000000008edb0                fcvCornerHarrisAdaptiveu8C
                0x0000000000091a3c                threshCorners
                0x0000000000091ab4                threshCornersWithNMS
                0x0000000000091d9c                fcvCornerHarrisScoreu8C
 *fill*         0x0000000000092c44        0xc 
 .text          0x0000000000092c50     0x3d20 lib/libfastcv.a(libfastcv_la-fastcvHOGC.o)
                0x0000000000092c50                fcvHOGInitC
                0x0000000000092d3c                fcvHOGDeInitC
                0x0000000000092d4c                preComputeLUT
                0x0000000000092e70                fcvExtractHOGu16_reg_slowC
                0x0000000000093b48                fcvExtractHOGu16_reg_fpC
                0x0000000000094b84                HogFeature32dimCalculateNormf32
                0x0000000000094f60                fcvExtractHOGu16_fhog_fpC
                0x00000000000968f8                fcvExtractHOGu16C
 .text          0x0000000000096970     0x1e9c lib/libfastcv.a(libfastcv_la-fastcvHoughCircleC.o)
                0x0000000000096970                fcvInitMemStorage
                0x0000000000096984                fcvDeInitMemStorage
                0x00000000000969d4                fcvAllocateMemBlock
                0x0000000000096b04                fcvInitSeq
                0x0000000000096b24                fcvClearSeq
                0x0000000000096b80                fcvSeqPush
                0x0000000000096be8                fcvGetSeqElem
                0x0000000000096c60                fcvSeqPushMulti
                0x0000000000096d7c                fcvSeqPopMulti
                0x0000000000096f00                fcvStartReadSeq
                0x0000000000096f1a                fcvNextSeqElem
                0x0000000000096f48                _houghSortDescent32s
                0x0000000000097858                calc_accumDataC
                0x00000000000978f0                fcvHoughCircleu8C
 *fill*         0x000000000009880c        0x4 
 .text          0x0000000000098810     0x3778 lib/libfastcv.a(libfastcv_la-fastcvHoughLineC.o)
                0x0000000000098810                mergeLineSegments
                0x00000000000989f0                buildLineFromSegments
                0x0000000000098dc0                searchSimilarLinesInTile
                0x00000000000994f8                extendGlobalLine
                0x00000000000995a8                getLineCoordsByLinearRegression
                0x0000000000099a30                convertDistFromUpLeftToUpRightCorner
                0x0000000000099a60                convertDistFromUpRightToUpLeftCorner
                0x0000000000099a90                computeGlobLineCoords
                0x0000000000099d8c                classifyEdgeType
                0x0000000000099ea8                tryExtendWithPattern
                0x000000000009a6b4                calcDistOfPointFromLine
                0x000000000009a720                calcDistBtwPoints
                0x000000000009a740                getLineCoordsInTileFromUpperLeft
                0x000000000009a9a8                getLineCoordsInTileFromUpperRight
                0x000000000009ac38                linearRegression
                0x000000000009ad24                addLineIdxToList
                0x000000000009ad48                localMaxSearchInArea
                0x000000000009b188                fcvHoughLineu8C
                0x000000000009ba04                houghCPUAccumInAreaC
 .text          0x000000000009bf88      0xce2 lib/libfastcv.a(libfastcv_la-fastcvImageDiffC.o)
                0x000000000009bf88                fcvImageDiffu8C
                0x000000000009c29c                fcvImageDiffs16C
                0x000000000009c480                fcvImageDifff32C
                0x000000000009c73c                fcvImageDiffu8f32C
                0x000000000009ca7e                fcvImageDiffu8s8C
 *fill*         0x000000000009cc6a        0x2 
 .text          0x000000000009cc6c     0x33e8 lib/libfastcv.a(libfastcv_la-fastcvImageIntensityC.o)
                0x000000000009cc6c                fcvImageIntensityStats_v2C
                0x000000000009d160                fcvImageIntensityStatsC
                0x000000000009d654                fcvImageIntensityHistogramC
                0x000000000009d75c                fcvImageHistogramEqualizeu8C
                0x000000000009df08                fcvImageSpatialHistogramu8C
                0x000000000009e3ba                fcvImageSpatialHistogramu8_v2C
                0x000000000009e880                fcvNormalizeLocalBoxu8C
                0x000000000009f1bc                fcvNormalizeLocalBoxf32C
 .text          0x00000000000a0054     0x1fec lib/libfastcv.a(libfastcv_la-fastcvImagePostProcC.o)
                0x00000000000a0054                min1(int, int)
                0x00000000000a005c                max1(int, int)
                0x00000000000a0064                ipp_edge_weighting
                0x00000000000a1570                fcvUpsampleVerticalu8C
                0x00000000000a1700                fcvUpsampleVerticalInterleavedu8C
                0x00000000000a189c                fcvUpsampleHorizontalInterleavedu8C
                0x00000000000a1980                fcvUpsample2Du8C
                0x00000000000a1b24                fcvUpsample2DInterleavedu8C
                0x00000000000a1cdc                fcvEdgeWeightings16C
                0x00000000000a1cec                fcvDeinterleaveu8C
                0x00000000000a1eb8                fcvInterleaveu8C
 .text          0x00000000000a2040     0x292c lib/libfastcv.a(libfastcv_la-fastcvImageSegmentationC.o)
                0x00000000000a2040                fcvImageSegmentationSeedRegionGrows16C
                0x00000000000a3280                fcvImageSegmentationRegionGrowC
 .text          0x00000000000a496c     0x29c0 lib/libfastcv.a(libfastcv_la-fastcvIntegrateImageC.o)
                0x00000000000a496c                fcvIntegrateImageu8_v2C
                0x00000000000a4c08                integratePatchu8C
                0x00000000000a50b0                fcvIntegratePatchu8C
                0x00000000000a5538                fcvIntegrateImageu8u64C
                0x00000000000a5830                fcvIntegratePatch12x12u8C
                0x00000000000a5e0c                fcvIntegratePatch18x18u8C
                0x00000000000a6402                fcvIntegrateImageLineu8C
                0x00000000000a6658                fcvIntegrateImageLine64u8C
                0x00000000000a66f0                fcvTiltedIntegralu8s32C
                0x00000000000a6e84                fcvIntegratePatchu8_v3C
 .text          0x00000000000a732c      0xda4 lib/libfastcv.a(libfastcv_la-fastcvIntegrateImageYuvC.o)
                0x00000000000a732c                fcvIntegrateImageYCbCr420PseudoPlanaru8C
                0x00000000000a79dc                fcvFindForegroundIntegrateImageYCbCr420u32C
 .text          0x00000000000a80d0     0x4368 lib/libfastcv.a(libfastcv_la-fastcvIppScaleC.o)
                0x00000000000a80d0                ifcv_scale_polyphase_hscale_byte
                0x00000000000a8318                ifcv_scale_polyphase_hscale_2bytes
                0x00000000000a849c                ifcv_scale_polyphase_vscale_byte
                0x00000000000a8a34                ifcv_scale_polyphase_vscale_2bytes
                0x00000000000a92f4                ppfScalePolyphaseFullScaleByte
                0x00000000000a9940                ifcv_scale_mn_hscale_2bytes
                0x00000000000a99d0                ifcv_scale_mn_vscale_2bytes
                0x00000000000a9ffc                scalingInit
                0x00000000000aa0f4                scalingInitMN
                0x00000000000aa15c                scalingInitInterleave
                0x00000000000aa264                ppfScalePolyphaseFullScale2Byte
                0x00000000000aa82a                scaleCombineSourceLines
                0x00000000000aadbc                fcvScaleUpPolyu8C
                0x00000000000aaf0c                fcvScaleUpPolyInterleaveu8C
                0x00000000000ab064                ScaleDownMNu8CoreC
                0x00000000000ab5d8                fcvScaleDownMNu8C
                0x00000000000ab6a0                fcvScaleDownMNInterleaveu8C
 *fill*         0x00000000000ac438        0x8 
 .text          0x00000000000ac440     0xba2c lib/libfastcv.a(libfastcv_la-fastcvIppTransformC.o)
                0x00000000000ac440                ifcv_dwt_haar_uint8_randomwrite
                0x00000000000ac9f8                ifcv_dwt_haar_uint8_randomwrite_4lines
                0x00000000000acbb8                ifcv_dwt_haar_int16_seqwrite
                0x00000000000ad0d0                dwt_haar_int16_randomwrite
                0x00000000000ad5e8                dwt_haar_int16_randomwrite_4lines
                0x00000000000ad7e0                ifcv_dwt_53tab_int16_randomwrite
                0x00000000000addd2                ifcv_dwt_53tab_int16_randomwrite_2lines
                0x00000000000ae728                ifcv_wavelet_transform_inverse_1d_int16
                0x00000000000aedd0                ifcv_wavelet_transform_inverse_1d_int16_2lines
                0x00000000000af658                ifcv_wavelet_transform_inverse_1d_int16_haar
                0x00000000000afb68                ifcv_wavelet_transform_inverse_1d_int16_haar_4lines
                0x00000000000afd38                ifcv_wavelet_transform_inverse_1d_uint8_haar
                0x00000000000b01f8                idwt_haar_uint8_randomwrite
                0x00000000000b08f8                idwt_haar_uint8_randomwrite_4lines
                0x00000000000b0b44                jpege_engine_sw_fdct_u8
                0x00000000000b15b0                jpegd_engine_sw_idct_8x8_s16
                0x00000000000b2230                fcvDWTHaarTransposeu8C
                0x00000000000b3088                fcvDWT53TabTransposes16C
                0x00000000000b34a0                fcvIDWT53TabTransposes16C
                0x00000000000b38a8                fcvIDWTHaarTransposes16C
                0x00000000000b4c10                fcvDWTHaaru8C
                0x00000000000b5db4                fcvDWT53Tabs16C
                0x00000000000b624c                fcvIDWT53Tabs16C
                0x00000000000b6738                fcvIDWTHaars16C
                0x00000000000b7d58                fcvDCTu8C
                0x00000000000b7de4                fcvIDCTs16C
 *fill*         0x00000000000b7e6c        0x4 
 .text          0x00000000000b7e70     0x1f74 lib/libfastcv.a(libfastcv_la-fastcvKDTree36s8f32C.o)
                0x00000000000b7e70                heaplocal_insert
                0x00000000000b7ed8                heaplocal_heapify
                0x00000000000b7f5a                heaplocal_popMin
                0x00000000000b8028                KDTrees36s8f32_clear
                0x00000000000b809c                KDTrees36s8f32_Init
                0x00000000000b817c                KDTrees36s8f32_compMeanVar
                0x00000000000b8ba8                KDTrees36s8f32_selectDivision
                0x00000000000b8ef8                KDTrees36s8f32_divideTree
                0x00000000000b9370                KDTrees36s8f32_buildIndex
                0x00000000000b9488                KDTrees36s8f32_searchLevel
                0x00000000000b9828                KDTrees36s8f32_getNeighbors
                0x00000000000b9a00                fcvKDTreeCreate36s8f32C
                0x00000000000b9cba                fcvKDTreeDestroy36s8f32C
                0x00000000000b9d28                fcvKDTreeQuery36s8f32C
 .text          0x00000000000b9de4      0x460 lib/libfastcv.a(libfastcv_la-fastcvKMeansTreeSearchC.o)
                0x00000000000b9de4                fcvKMeansTreeSearch36x10s8C
 .text          0x00000000000ba244      0xd80 lib/libfastcv.a(libfastcv_la-fastcvLBPC.o)
                0x00000000000ba244                fcvGLBPu8C
 .text          0x00000000000bafc4      0x998 lib/libfastcv.a(libfastcv_la-fastcvLinearSearchC.o)
                0x00000000000bafc4                fcvLinearSearch8x36s8C
                0x00000000000bb47c                fcvLinearSearchPrepare8x36s8C
 .text          0x00000000000bb95c      0x156 lib/libfastcv.a(libfastcv_la-fastcvMotionHistoryC.o)
                0x00000000000bb95c                fcvUpdateMotionHistoryu8s32C
 *fill*         0x00000000000bbab2        0x6 
 .text          0x00000000000bbab8     0xbf10 lib/libfastcv.a(libfastcv_la-fastcvMserFxpC.o)
                0x00000000000bbab8                MSER_PreProcessPlusC
                0x00000000000bc614                MSER_PreProcessMinusC
                0x00000000000bd39c                fcvMserInitFxpC
                0x00000000000bdce0                fcvMserReleaseFxpC
                0x00000000000bde34                fcvCa6
                0x00000000000bdf70                fcvMseru8FxpSTC
                0x00000000000bdf9c                fcvCa2
                0x00000000000be11c                fcvMserExtu8FxpSTC
                0x00000000000be158                fcvMseru8_v2STC
                0x00000000000be2b4                fcvCa7
                0x00000000000be2e2                fcvMserExtu8_v2STC
                0x00000000000be478                fcvCa3
                0x00000000000be4b8                MSER_boundBox_v3C
                0x00000000000be8bc                fcvMserExtu8_v3STC
                0x00000000000bf048                fcvCa4
                0x00000000000bf09a                fcvMserSplitExtu8STC
                0x00000000000c12c0                fcvCa0
                0x00000000000c1334                fcvMserNN8InitC
                0x00000000000c1394                MSER_boundBoxC
                0x00000000000c1828                fcvMserNN8u8STC
                0x00000000000c1980                fcvCa5
                0x00000000000c19ae                fcvMserExtNN8u8STC
                0x00000000000c1b44                fcvCa1
                0x00000000000c1b84                MSER_NN8_PreProcessPlusC
                0x00000000000c3114                MSER_NN8_PreProcessMinusC
 .text          0x00000000000c79c8     0x3484 lib/libfastcv.a(libfastcv_la-fastcvNCCPatchC.o)
                0x00000000000c79c8                fcvNCCPatchOnCircle8x8u8C
                0x00000000000c87d4                fcvNCCPatchOnSquare8x8u8C
                0x00000000000c8cd0                integrateImageLineC
                0x00000000000c8f0c                dotProductNC
                0x00000000000c9f00                fcvNCCPatchesOnRectu8C
 .text          0x00000000000cae4c     0x119c lib/libfastcv.a(libfastcv_la-fastcvPolygonC.o)
                0x00000000000cae4c                fcvPolyLine
                0x00000000000cb210                fcvFillConvexPolyu8C
                0x00000000000cb7ec                fcvPointPolygonTestC
                0x00000000000cbc34                v_cross_sgn
                0x00000000000cbc5e                v_collinear
                0x00000000000cbc80                fcvFindConvexHullC
 .text          0x00000000000cbfe8     0x1a5c lib/libfastcv.a(libfastcv_la-fastcvRemapC.o)
                0x00000000000cbfe8                fcvRemapRGBA8888NNu8C
                0x00000000000cc2ec                fcvRemapRGBA8888BLu8C
                0x00000000000cc668                fcvRemapu8C
                0x00000000000cc6a4                fcvRemapu8_v2C
                0x00000000000ccf50                fcvTableLookupu8C
                0x00000000000cd054                fcvConvertDepthu8s16C
                0x00000000000cd534                fcvConvertDepths16u8C
 .text          0x00000000000cda44      0x9ae lib/libfastcv.a(libfastcv_la-fastcvSADC.o)
                0x00000000000cda44                fcvSumOfAbsoluteDiff8x8u8C
                0x00000000000cdc6c                fcvSumOfAbsoluteDiffs8x8u8C
                0x00000000000cdf42                fcvSumOfAbsoluteDiff16x16u8C
                0x00000000000ce150                fcvSumOfAbsoluteDiffs16x16u8C
 *fill*         0x00000000000ce3f2        0xe 
 .text          0x00000000000ce400     0xacf8 lib/libfastcv.a(libfastcv_la-fastcvScaleC.o)
                0x00000000000ce400                fcvScaleDownBy2u8C
                0x00000000000ce7f4                fcvScaleUpBy2Gaussian5x5u8C
                0x00000000000ced40                fcvScaleDownBy2Gaussian5x5u8C
                0x00000000000cf840                fcvScaleDownBy2Gaussian5x5f32C
                0x00000000000d0348                fcvGetNumBits
                0x00000000000d03fa                fcvGetMaxNumTrail0s
                0x00000000000d04d0                fcvScaleDownBy2Gaussian5x5f32_v2C
                0x00000000000d0ff0                fcvScaleDownBLu8C
                0x00000000000d3058                fcvScaleu8C
                0x00000000000d3080                fcvScaleu8_v2C
                0x00000000000d6590                fcvScaleDownBy2Gaussian3x3u8C
                0x00000000000d7548                fcvScaleDownBy2Gaussian5x5u8_v2C
 .text          0x00000000000d90f8     0x363c lib/libfastcv.a(libfastcv_la-fastcvSegmentMaskC.o)
                0x00000000000d90f8                ifcvSign(int)
                0x00000000000d9104                ifcvIscolinear(int, int, int, int, int, int)
                0x00000000000d9128                ifcvDrawLine(unsigned char*, unsigned int, unsigned int, unsigned int, IFCV_Points*, IFCV_Points*, int, unsigned char)
                0x00000000000d9238                ifcvDrawLineFix(unsigned char*, unsigned int, unsigned int, unsigned int, IFCV_Points*, IFCV_Points*, int, unsigned char)
                0x00000000000d95d0                ifcvDrawLineInterleaved(unsigned char*, unsigned int, unsigned int, unsigned int, IFCV_Points*, IFCV_Points*, int, unsigned char, unsigned char, unsigned char)
                0x00000000000d9724                ifcvDrawLinePlanar(unsigned char*, unsigned int, unsigned int, unsigned int, IFCV_Points*, IFCV_Points*, int, unsigned char, unsigned char, unsigned char)
                0x00000000000d98c2                ifcvDrawEgdeBuffer(unsigned char*, unsigned int, unsigned int, unsigned int, IFCV_Edges*, unsigned int, int, unsigned char)
                0x00000000000d99f8                ifcvDrawEgdeBufferFix(unsigned char*, unsigned int, unsigned int, unsigned int, IFCV_Edges_Fix*, unsigned int, int, unsigned char)
                0x00000000000d9b2e                ifcvDrawEgdeBufferInterleaved(unsigned char*, unsigned int, unsigned int, unsigned int, IFCV_Edges*, unsigned int, int, unsigned char, unsigned char, unsigned char)
                0x00000000000d9c12                ifcvDrawEgdeBufferPlanar(unsigned char*, unsigned int, unsigned int, unsigned int, IFCV_Edges*, unsigned int, int, unsigned char, unsigned char, unsigned char)
                0x00000000000d9d26                edgeCompareX(IFCV_Edges*, IFCV_Edges*)
                0x00000000000d9d34                edgeCompareXFix(IFCV_Edges_Fix*, IFCV_Edges_Fix*)
                0x00000000000d9d42                edgeCompareY(IFCV_Edges*, IFCV_Edges*)
                0x00000000000d9d50                edgeCompareYFix(IFCV_Edges_Fix*, IFCV_Edges_Fix*)
                0x00000000000d9d5e                ifcvCopyEdge(IFCV_Edges*, IFCV_Edges*)
                0x00000000000d9d6c                ifcvCopyEdgeFix(IFCV_Edges_Fix*, IFCV_Edges_Fix*)
                0x00000000000d9d86                ifcvSwapEdgeValue(IFCV_Edges*, IFCV_Edges*)
                0x00000000000d9da6                ifcvSwapEdgeValueFix(IFCV_Edges_Fix*, IFCV_Edges_Fix*)
                0x00000000000d9dda                ifcvSwapEdge(IFCV_Edges*)
                0x00000000000d9dec                ifcvSwapEdgeFix(IFCV_Edges_Fix*)
                0x00000000000d9e00                ifcvQuicksortPartitionEdges(IFCV_Edges*, int, int, int, unsigned int (*)(IFCV_Edges*, IFCV_Edges*))
                0x00000000000d9ec4                ifcvQuicksortPartitionEdgesFix(IFCV_Edges_Fix*, int, int, int, unsigned int (*)(IFCV_Edges_Fix*, IFCV_Edges_Fix*))
                0x00000000000d9fa8                ifcvQuicksortEdges(IFCV_Edges*, int, int, unsigned int (*)(IFCV_Edges*, IFCV_Edges*))
                0x00000000000d9fe4                ifcvQuicksortEdgesFix(IFCV_Edges_Fix*, int, int, unsigned int (*)(IFCV_Edges_Fix*, IFCV_Edges_Fix*))
                0x00000000000da020                ifcvFillEgdeBuffer(unsigned char*, unsigned int, unsigned int, unsigned int, IFCV_Edges*, unsigned int, int, unsigned char)
                0x00000000000da414                ifcvFillEgdeBufferFix(unsigned char*, unsigned int, unsigned int, unsigned int, IFCV_Edges_Fix*, unsigned int, int, unsigned char)
                0x00000000000daa80                ifcvFillEgdeBufferInterleaved(unsigned char*, unsigned int, unsigned int, unsigned int, IFCV_Edges*, unsigned int, int, unsigned char, unsigned char, unsigned char)
                0x00000000000dae84                ifcvFillEgdeBufferPlanar(unsigned char*, unsigned int, unsigned int, unsigned int, IFCV_Edges*, unsigned int, int, unsigned char, unsigned char, unsigned char)
                0x00000000000db28c                ifcvRetrieveEdges(unsigned int, unsigned int const*, IFCV_Edges*)
                0x00000000000db364                ifcvRetrieveEdgesFix(unsigned int, unsigned int const*, IFCV_Edges_Fix*)
                0x00000000000db43c                ifcvRetrieveAllEdges(unsigned char*, unsigned int, unsigned int, unsigned int, int, int, unsigned int const*, unsigned int const*, unsigned int const*, unsigned int const**, int (*) [4], IFCV_Edges*, unsigned char)
                0x00000000000db53c                ifcvRetrieveAllEdgesFix(unsigned char*, unsigned int, unsigned int, unsigned int, int, int, unsigned int const*, unsigned int const*, unsigned int const*, unsigned int const**, int (*) [4], IFCV_Edges_Fix*, unsigned char)
                0x00000000000db63c                ifcvRetrieveAllEdgesInterleaved(unsigned char*, unsigned int, unsigned int, unsigned int, int, int, unsigned int const*, unsigned int const*, unsigned int const*, unsigned int const**, int (*) [4], IFCV_Edges*, unsigned char, unsigned char, unsigned char)
                0x00000000000db750                ifcvRetrieveAllEdgesPlanar(unsigned char*, unsigned int, unsigned int, unsigned int, int, int, unsigned int const*, unsigned int const*, unsigned int const*, unsigned int const**, int (*) [4], IFCV_Edges*, unsigned char, unsigned char, unsigned char)
                0x00000000000db86c                fcvDrawContouru8C
                0x00000000000dba90                fcvDrawContourInterleavedu8C
                0x00000000000dbcd8                fcvDrawContourPlanaru8C
                0x00000000000dbf50                fcvSegmentFGMasku8C
 .text.invert_newton_64
                0x00000000000dc734      0x340 lib/libfastcv.a(libfastcv_la-fastcvSegmentMaskC.o)
                0x00000000000dc734                invert_newton_64
 .text          0x00000000000dca74     0x29de lib/libfastcv.a(libfastcv_la-fastcvSetC.o)
                0x00000000000dca74                fcvSetElementsu8C
                0x00000000000dcc8a                fcvSetElementss32C
                0x00000000000dd336                fcvSetElementsf32C
                0x00000000000dda36                fcvSetElementsc4u8C
                0x00000000000dde22                fcvSetElementsc4s32C
                0x00000000000de264                fcvSetElementsc4f32C
                0x00000000000de760                fcvSetElementsc3u8C
                0x00000000000deb00                fcvSetElementsc3s32C
                0x00000000000def94                fcvSetElementsc3f32C
 *fill*         0x00000000000df452        0xe 
 .text          0x00000000000df460     0xd7ac lib/libfastcv.a(libfastcv_la-fastcvSmoothC.o)
                0x00000000000df460                fcvBoxFilter3x3u8C
                0x00000000000df480                fcvBoxFilter3x3u8_v2C
                0x00000000000e05f0                fcvBoxFilter5x5u8C
                0x00000000000e1bf4                fcvBoxFilter11x11u8C
                0x00000000000e284c                fcvBoxFilterNxNf32C
                0x00000000000e3624                fcvBilateralFilter5x5u8C
                0x00000000000e481c                fcvBilateralFilter7x7u8C
                0x00000000000e56e0                fcvBilateralFilter9x9u8C
                0x00000000000e6be0                fcvBilateralFilter5x5u8_v2C
                0x00000000000e8170                fcvBilateralFilter7x7u8_v2C
                0x00000000000e9bd0                fcvBilateralFilter9x9u8_v2C
                0x00000000000eb890                fcvBilateralFilterRecursiveu8C
 *fill*         0x00000000000ecc0c        0x4 
 .text          0x00000000000ecc10     0x2868 lib/libfastcv.a(libfastcv_la-fastcvSolveC.o)
                0x00000000000ecc10                fcvSVBkSb_32s
                0x00000000000ee140                fcvSolvef32C
 .text          0x00000000000ef478     0xc298 lib/libfastcv.a(libfastcv_la-fastcvSVDC.o)
                0x00000000000ef478                fcvSwap_fixed32
                0x00000000000ef494                fcvSVDf32C
                0x00000000000ef4b8                fcvSVDf32_v2C
                0x00000000000f2a60                fcvSVDs32C
                0x00000000000f94cc                fcvSolveCholeskyf32C
                0x00000000000f9d1e                fcvSolveLDLf32C
                0x00000000000fa8ac                fcvSolveLUf32C
 .text          0x00000000000fb710      0xd14 lib/libfastcv.a(libfastcv_la-fastcvSVMPredictC.o)
                0x00000000000fb710                fcvSVMPredict2Classf32C
 *fill*         0x00000000000fc424        0x4 
 .text          0x00000000000fc428     0x3b9c lib/libfastcv.a(libfastcv_la-fastcvTrackC.o)
                0x00000000000fc428                adjustRect
                0x00000000000fc4ac                getRectSubPix
                0x00000000000fd924                calcIxIy_32fC
                0x00000000000fe230                lkOpticalFlow_v3
                0x00000000000fef60                lkOpticalFlow_v2
                0x00000000000fefa8                lkOpticalFlow
                0x00000000000ff3a8                fcvTrackLKOpticalFlowf32C
                0x00000000000ff594                fcvTrackLKOpticalFlowu8_v2C
                0x00000000000ff794                fcvTrackLKOpticalFlowu8_v3C
                0x00000000000ff874                calculateBlockSum16x16C
                0x00000000000ff9c0                calculateBlockSAD_ZeroMean16x16C
                0x00000000000ffc0c                fcvTrackBMOpticalFlow16x16u8C
 .text          0x00000000000fffc4     0x6a80 lib/libfastcv.a(libfastcv_la-fastcvTransformC.o)
                0x00000000000fffc4                fix2float
                0x00000000000fffe8                bitrev
                0x0000000000100070                Radix2BTFLYsc32
                0x0000000000100094                Radix4BTFLYqv3sc32
                0x000000000010010a                Radix4BTFLYsc32
                0x0000000000100180                satu8
                0x0000000000100186                sats16
                0x00000000001001a4                lastButterfly
                0x0000000000100398                ifftFirstButterfly
                0x00000000001005d4                fft32x16
                0x0000000000100c48                fcvFFTu8C
                0x00000000001023e8                fcvIFFTf32C
                0x0000000000103cec                fcvFFTs16C
                0x00000000001052b4                fcvIFFTf32s16C
 .text.L_cmult32x16
                0x0000000000106a44      0x100 lib/libfastcv.a(libfastcv_la-fastcvTransformC.o)
                0x0000000000106a44                L_cmult32x16
 .text          0x0000000000106b44      0x678 lib/libfastcv.a(libfastcv_la-fastcvUpsampleC.o)
                0x0000000000106b44                chroma_up_2d_planarC
                0x0000000000106cc0                chroma_up_vertC
                0x0000000000106ef0                chroma_up_horiC
                0x0000000000106fec                chroma_up_2dC
 *fill*         0x00000000001071bc        0x4 
 .text          0x00000000001071c0      0x440 lib/libfastcv.a(libfastcv_la-fastcvVectorC.o)
                0x00000000001071c0                fcvVecNormalize36s8f32C
 .text          0x0000000000107600     0x3d6c lib/libfastcv.a(libfastcv_la-fastcvWarpC.o)
                0x0000000000107600                fcvTransformAffine8x8u8C
                0x0000000000107cc4                fcvWarpPerspectiveu8C
                0x0000000000107cec                fcvWarpPerspectiveu8_v2C
                0x0000000000107d1a                fcv3ChannelWarpPerspectiveu8C
                0x0000000000107d3c                fcv3ChannelWarpPerspectiveu8_v2C
                0x0000000000107fd8                fcvTransformAffineu8_v2C
                0x00000000001083f8                fcvWarpPerspectiveu8_v3C
                0x0000000000108428                fcvWarpPerspectiveu8_v4C
                0x0000000000108a1c                fcvJacobianSE2f32C
                0x0000000000109064                fcvTransformAffineClippedu8C
                0x0000000000109096                fcvTransformAffineClippedu8_v2C
                0x00000000001090c8                fcvTransformAffineClippedu8_v3C
                0x000000000010a014                fcv3ChannelTransformAffineClippedBCu8C
                0x000000000010b144                fcv2PlaneWarpPerspectiveu8C
 .text._Z16samplePixCheckedPKhjRK5Vec2X
                0x000000000010b36c      0x134 lib/libfastcv.a(libfastcv_la-fastcvWarpC.o)
                0x000000000010b36c                samplePixChecked(unsigned char const*, unsigned int, Vec2X const&)
 .text          0x000000000010b4a0      0x53c lib/libfastcv.a(libfastcv_la-fastcvHwAndroid.o)
                0x000000000010b4a0                fcv_check_only_cpu
                0x000000000010b79c                fcvAvailableHWComponent
                0x000000000010b7a8                fcvAvailableHardware
                0x000000000010b90c                fcvSelectQDSP6Mode
                0x000000000010b910                fcvQ6GetClk
                0x000000000010b914                fcvAvailableProcessors
 .text          0x000000000010b9dc      0x2c8 lib/libfastcv.a(libfastcv_la-fastcvRemoteLibAndroid.o)
                0x000000000010b9dc                fcvCheckRemoteLibSupport()
                0x000000000010bab4                fcvCheckRemoteLibPresent()
                0x000000000010bad8                fcvRemoteLibAvailableHWComponent(fcvOperationMode)
                0x000000000010bbd0                fcvRemoteLibCleanUp()
                0x000000000010bc0c                fcvRemoteLibClean()
                0x000000000010bc28                fcvSelectQDSP6ModeRemoteLib
                0x000000000010bc68                fcvQ6GetClkRemoteLib
 .text          0x000000000010bca4        0x0 lib/libfastcv.a(libfastcv_la-fastcvTrigonometricTable.o)
 .text          0x000000000010bca4     0x2bb0 lib/libfastcv.a(libfastcv_la-fastcvDotC.o)
                0x000000000010bca4                fcvDotProducts8C
                0x000000000010be46                fcvDotProductu8C
                0x000000000010bfdc                fcvDotProductf32C
                0x000000000010c0a8                fcvDotProduct36x1s8C
                0x000000000010c138                fcvDotProduct36x4s8C
                0x000000000010c332                fcvDotProductNorm36x4s8C
                0x000000000010c584                fcvDotProduct36x1u8C
                0x000000000010c614                fcvDotProduct36x4u8C
                0x000000000010c80e                fcvDotProductNorm36x4u8C
                0x000000000010ca60                fcvDotProduct64x1s8C
                0x000000000010cab2                fcvDotProduct64x4s8C
                0x000000000010cc0c                fcvDotProductNorm64x4s8C
                0x000000000010cdc0                fcvDotProduct64x1u8C
                0x000000000010ce12                fcvDotProduct64x4u8C
                0x000000000010cf6c                fcvDotProductNorm64x4u8C
                0x000000000010d120                fcvDotProduct128x1s8C
                0x000000000010d172                fcvDotProduct128x4s8C
                0x000000000010d2cc                fcvDotProductNorm128x4s8C
                0x000000000010d480                fcvDotProduct128x1u8C
                0x000000000010d4d2                fcvDotProduct128x4u8C
                0x000000000010d62c                fcvDotProductNorm128x4u8C
                0x000000000010d7e0                fcvDotProduct8x8u8C
                0x000000000010e0e4                fcvDotProduct11x12u8C
                0x000000000010e63c                fcvCrossProduct3x1f32C
 .text          0x000000000010e854     0x97a0 lib/libfastcv.a(libfastcv_la-fastcvEdgeC.o)
                0x000000000010e854                fcvFilterSobel3x3u8C
                0x000000000010ef70                fcvImageGradientInterleaveds16C
                0x000000000010f30e                fcvImageGradientPlanars16C
                0x000000000010f6ac                fcvImageGradientInterleavedf32C
                0x000000000010fc02                fcvImageGradientPlanarf32C
                0x00000000001101a0                fcvImageGradientSobelInterleaveds16C
                0x00000000001107ea                fcvImageGradientSobelInterleaveds16_v3C
                0x0000000000110d70                fcvImageGradientSobelInterleavedf32C
                0x000000000011178e                fcvImageGradientSobelPlanars16C
                0x0000000000111d9a                fcvImageGradientSobelPlanars16_v3C
                0x0000000000112a14                fcvImageGradientSobelPlanars8C
                0x0000000000113084                fcvImageGradientSobelPlanarf32C
                0x0000000000113adc                fcvImageGradientSobelPlanarf32f32C
                0x0000000000114390                fcvFilterSobel3x3u8s16C
                0x00000000001144dc                fcvFilterSobel5x5u8s16C
                0x00000000001145c4                fcvFilterSobel7x7u8s16C
                0x00000000001146c8                canny_non_maxC
                0x00000000001148dc                fcvFilterCanny3x3u8C
                0x0000000000115358                fcvFilterCanny3x3u8_v3C
                0x00000000001161cc                fcvImageGradientScharrInterleaveds16C
                0x0000000000116794                fcvFilterCannyu8C
 .text          0x0000000000117ff4     0x19ac lib/libfastcv.a(libfastcv_la-fastcvFastC.o)
                0x0000000000117ff4                make_offsets
                0x000000000011805a                fcvCornerFast9u8C
                0x0000000000119774                fcvCornerFast9Scoreu8C
                0x00000000001197c0                fcvCornerFast9Scoreu8_v2C
                0x00000000001198a8                fcvCornerFast9InMaskScoreu8_v2C
 .text          0x00000000001199a0      0x480 lib/libfastcv.a(libfastcv_la-fastcvRectangleC.o)
                0x00000000001199a0                fcvImageDetectEdgePixelsu8C
 .text          0x0000000000119e20     0x1198 lib/libfastcv.a(libfastcv_la-fastcvSSDC.o)
                0x0000000000119e20                fcvSumOfSquaredDiffs36x4s8C
                0x000000000011a178                fcvSumOfSquaredDiffs36xNs8C
                0x000000000011a3bc                fcvSort8Scoresf32C
                0x000000000011a5f8                fcvSumOfSquaredDiffsu8C
                0x000000000011aa58                fcvSumOfSquaredDiffsf32C
                0x000000000011ab68                fcvSumOfSquaredDiffss8C
 *fill*         0x000000000011afb8        0x8 
 .text          0x000000000011afc0      0x944 lib/libfastcv.a(fastcvCalibrateV.o)
                0x000000000011afc0                fcvV8v
                0x000000000011b00c                fcvV8w
                0x000000000011b0bc                fcvV8x
                0x000000000011b21c                fcvV9z
                0x000000000011b598                fcvV9x
 .text          0x000000000011b904      0x254 lib/libfastcv.a(fastcvEdgeV2.o)
                0x000000000011b904                fcvV71
 .text          0x000000000011bb58     0x60dc lib/libfastcv.a(libfastcvAbsDiffV_la-fastcvAbsDiffV.o)
                0x000000000011bb58                fcvV6k
                0x000000000011ce04                fcvV6l
                0x000000000011d7a4                fcvV6m
                0x000000000011e25c                fcvV6n
                0x000000000011f362                fcvV6o
                0x000000000011fae0                fcvV6p
                0x0000000000120310                fcvV6q
                0x00000000001208c0                fcvV6r
                0x00000000001209e0                fcvV6s
                0x0000000000120af8                fcvV6t
                0x00000000001210ec                fcvV6u
                0x0000000000121694                fcvV6v
 .text          0x0000000000121c34      0x6f8 lib/libfastcv.a(libfastcvAdaptiveThresholdV_la-fastcvAdaptiveThresholdV.o)
                0x0000000000121c34                fcvV10h1
 .text          0x000000000012232c     0x915c lib/libfastcv.a(libfastcvBlurV_la-fastcvBlurV.o)
                0x000000000012232c                findMedianInSortedWindow3x3V
                0x0000000000122390                sortColumeWiseInWindow3x3V
                0x00000000001223e0                fcvV1
                0x00000000001229f0                fcvFilterMedian3x3u8_v3V
                0x0000000000123590                fcvV2
                0x0000000000124174                fcvVz22
                0x0000000000125860                fcvV3
                0x00000000001266e0                fcvV4
                0x0000000000127a20                fcvV3b
                0x0000000000129c8c                fcvV5
 .text          0x000000000012b488      0x698 lib/libfastcv.a(libfastcvDescriptorV_la-fastcvDescriptorV.o)
                0x000000000012b488                fcvV9
 .text          0x000000000012bb20     0x4420 lib/libfastcv.a(libfastcvDotV_la-fastcvDotV.o)
                0x000000000012bb20                fcvVa
                0x000000000012bffc                fcvV1r
                0x000000000012c4c4                fcvV9e
                0x000000000012c66c                fcvV1s
                0x000000000012c70c                fcvV1t
                0x000000000012c854                fcvV2b
                0x000000000012cc88                fcvV2c
                0x000000000012d93c                fcvV1u
                0x000000000012db2c                fcvV1v
                0x000000000012dbcc                fcvV1w
                0x000000000012dd84                fcvV1x
                0x000000000012df74                fcvV1y
                0x000000000012e02c                fcvV1z
                0x000000000012e23c                fcvV21
                0x000000000012e4a4                fcvV22
                0x000000000012e55c                fcvV23
                0x000000000012e76c                fcvV24
                0x000000000012e9d4                fcvV25
                0x000000000012eb0c                fcvV26
                0x000000000012eebc                fcvV27
                0x000000000012f2d0                fcvV28
                0x000000000012f408                fcvV29
                0x000000000012f7b8                fcvV2a
                0x000000000012fbcc                fcvV2t
 .text          0x000000000012ff40     0x1b7c lib/libfastcv.a(libfastcvFast10V_la-fastcvFast10V.o)
                0x000000000012ff40                fcvV3g10H
                0x0000000000130044                fcvVg10
                0x000000000013168c                fcvVh10
 .text          0x0000000000131abc     0x24c8 lib/libfastcv.a(libfastcvFastV_la-fastcvFastV.o)
                0x0000000000131abc                fcvV3gH
                0x0000000000131bb4                fcvIsPixelACorner
                0x0000000000131dac                fcvVg
                0x00000000001338f8                fcvVh
 .text          0x0000000000133f84     0xf73c lib/libfastcv.a(libfastcvFilter1V_la-fastcvFilter1V.o)
                0x0000000000133f84                fcvV16
                0x00000000001349ac                fcvV17
                0x00000000001353d4                fcvFilterErodeNxNu8V_New
                0x000000000013a788                fcvFilterDilateNxNu8V_New
                0x000000000013e8a0                fcvFilterErodeNxNu8V_Old
                0x0000000000140508                fcvFilterDilateNxNu8V_Old
                0x0000000000142150                fcvVrkpi
                0x0000000000142162                fcvVrkph
                0x0000000000142174                fcvVz2a
                0x0000000000142c4e                fcvVz2b
 .text          0x00000000001436c0    0x2d090 lib/libfastcv.a(libfastcvFilterV_la-fastcvFilterV.o)
                0x00000000001436c0                fcvV6y
                0x0000000000143a50                fcvVi
                0x00000000001466fc                fcvVj
                0x0000000000146722                fcvVk
                0x0000000000146748                fcvVl
                0x000000000014676e                fcvVau
                0x0000000000146772                fcvVm
                0x0000000000146806                fcvV5q
                0x00000000001471b0                fcvVz06
                0x0000000000166eb4                fcvVn
                0x0000000000167c64                fcvVp
                0x0000000000168c68                fcvVq
                0x00000000001695a0                fcvHfik
                0x000000000016982c                fcvVs
                0x000000000016b554                fcvVt
                0x000000000016c88c                fcvVu
 .text          0x0000000000170750     0x1648 lib/libfastcv.a(libfastcvMeanShiftV_la-fastcvMeanShiftV.o)
                0x0000000000170750                fcvV0bhH
                0x0000000000171084                fcvV0biH
                0x000000000017161c                fcvV0bjH
 *fill*         0x0000000000171d98        0x8 
 .text          0x0000000000171da0     0x68b0 lib/libfastcv.a(libfastcvSVDV_la-fastcvSVDV.o)
                0x0000000000171da0                fcvVHa01
                0x0000000000175a7e                fcvVa6
                0x0000000000175aa0                fcvVa7
                0x00000000001769c0                fcvV9d
                0x00000000001774c0                fcvV0br
 .text          0x0000000000178650     0xe9d0 lib/libfastcv.a(libfastcvScaleV_la-fastcvScaleV.o)
                0x0000000000178650                fcvV1d1_3row
                0x0000000000178908                fcvV5r
                0x0000000000178cac                fcvV5s
                0x00000000001795a8                fcvV2u
                0x0000000000179e50                fcvV5t
                0x000000000017a790                fcvV5u
                0x000000000017b1b0                fcvV5v
                0x000000000017c1d0                fcvV10l
                0x000000000017cd90                fcvVas
                0x000000000017d990                fcvV1d1
                0x000000000017e510                fcvV1d2
                0x000000000017f3d0                fcvV0bl
                0x00000000001807f4                fcvVz17
                0x000000000018081c                fcvVz2l
                0x0000000000184af0                fcvVz2f
 .text          0x0000000000187020     0x5e0c lib/libfastcv.a(libfastcvWarpV_la-fastcvWarpV.o)
                0x0000000000187020                fcvV1h
                0x00000000001874a8                fcvVa3
                0x0000000000187bc8                fcvVa4
                0x0000000000187bfa                fcvVz16
                0x0000000000187c2c                fcvV10k
                0x000000000018828c                fcvV0be
                0x00000000001882b0                fcvV7n
                0x00000000001882d6                fcvVz15
                0x0000000000188304                fcvV0bf
                0x0000000000188330                fcvV7o
                0x0000000000188950                fcvV9f
                0x000000000018ab00                fcvVz2n
                0x000000000018b700                fcvVz2m
                0x000000000018c870                fcvVz23
 .text          0x000000000018ce2c     0x1024 lib/libfastcv.a(libfastcvv_la-fastcvAffineV1.o)
                0x000000000018ce2c                fcvV0a
                0x000000000018d7d0                fcvV0b
 .text          0x000000000018de50    0x1c6e4 lib/libfastcv.a(libfastcvv_la-fastcvArithmV.o)
                0x000000000018de50                fcvVaa
                0x000000000018e616                fcvVab
                0x000000000018ee36                fcvVac
                0x000000000018f244                fcvVad
                0x0000000000191814                fcvVae
                0x0000000000193edc                fcvVaf
                0x00000000001943e2                fcvVag
                0x0000000000194776                fcvV0bu
                0x00000000001962e6                fcvV0bv
                0x00000000001980ea                fcvV0bw
                0x0000000000199bfc                fcvVah
                0x000000000019a770                fcvVai
                0x000000000019ad74                fcvVaj
                0x000000000019b340                fcvVak
                0x000000000019b5e8                fcvVal
                0x000000000019bad2                fcvVam
                0x000000000019c1fa                fcvVan
                0x000000000019c590                fcvVrkpa
                0x000000000019cc30                fcvVrkpb
                0x000000000019cfb0                fcvVrkpc
                0x000000000019d2b0                fcvVrkpd
                0x000000000019d630                fcvVrkpe
                0x000000000019d930                fcvVrkpf
                0x000000000019dc58                fcvV0bo
                0x000000000019e13a                fcvV0bm
                0x000000000019e644                fcvV0bp
                0x000000000019eb26                fcvV0bt
                0x000000000019f648                fcvV0bq
                0x00000000001a1e40                fcvVz2h
                0x00000000001a2fa4                fcvVz2i
                0x00000000001a3ff4                fcvVrkpg
                0x00000000001a4e10                fcvV0bx
                0x00000000001a57e8                fcvV0by
                0x00000000001a63c2                fcvV0bz
                0x00000000001a6da2                fcvV0ca
                0x00000000001a77b0                fcvV0cb
                0x00000000001a83a4                fcvV0cc
                0x00000000001a872c                fcvV0cd
                0x00000000001a936c                fcvV0ce
                0x00000000001a9b90                fcvV0cq
                0x00000000001a9ff0                fcvV0cr
 .text          0x00000000001aa534      0x6c0 lib/libfastcv.a(libfastcvv_la-fastcvAverageV.o)
                0x00000000001aa534                fcvV9a
                0x00000000001aa824                fcvV9b
 .text          0x00000000001aabf4      0xad8 lib/libfastcv.a(libfastcvv_la-fastcvBitCntWrapV.o)
                0x00000000001aabf4                fcvV2d
                0x00000000001aaed4                fcvV2e
                0x00000000001aaf0e                fcvV2f
                0x00000000001aaf88                fcvV2i
                0x00000000001ab050                fcvV2j
                0x00000000001ab1d8                fcvV2l
                0x00000000001ab3d8                fcvV2m
                0x00000000001ab402                fcvV2n
                0x00000000001ab49e                fcvV2o
                0x00000000001ab4ea                fcvV2p
                0x00000000001ab610                fcvV2q
 .text          0x00000000001ab6cc     0x20a6 lib/libfastcv.a(libfastcvv_la-fastcvBitwiseOpV.o)
                0x00000000001ab6cc                fcvV5n
                0x00000000001ac192                fcvV5o
                0x00000000001aca62                fcvV0cj
                0x00000000001acf22                fcvV0ck
                0x00000000001ad3e2                fcvV0cl
 .text          0x00000000001ad772      0x38a lib/libfastcv.a(libfastcvv_la-fastcvBoundingRectV.o)
                0x00000000001ad772                fcvV3k
 *fill*         0x00000000001adafc        0x4 
 .text          0x00000000001adb00      0xccc lib/libfastcv.a(libfastcvv_la-fastcvCalib3DV.o)
                0x00000000001adb00                fcvVz2o
                0x00000000001ae124                fcvVz2p
                0x00000000001ae410                fcvVz2q
 .text          0x00000000001ae7cc      0x36a lib/libfastcv.a(libfastcvv_la-fastcvCalibrateV1.o)
                0x00000000001ae7cc                fcvV9y
 *fill*         0x00000000001aeb36        0x2 
 .text          0x00000000001aeb38     0x3ae4 lib/libfastcv.a(libfastcvv_la-fastcvChannelV.o)
                0x00000000001aeb38                fcvV0bkb
                0x00000000001af1b0                fcvV0bkc
                0x00000000001af98c                fcvV0bkd
                0x00000000001afe88                fcvV0bke
                0x00000000001b037c                fcvV0bkg
                0x00000000001b0a10                fcvV0bkh
                0x00000000001b10c8                fcvV0bki
                0x00000000001b1b74                fcvV0bkj
 .text          0x00000000001b261c      0x7b6 lib/libfastcv.a(libfastcvv_la-fastcvColorPpfYuvUtilsV.o)
                0x00000000001b261c                fcvVHcc01
                0x00000000001b28a0                fcvVHcc02
                0x00000000001b2b08                fcvVHcc03
 *fill*         0x00000000001b2dd2        0x6 
 .text          0x00000000001b2dd8      0x668 lib/libfastcv.a(libfastcvv_la-fastcvColorRgb2LabV.o)
                0x00000000001b2dd8                fcvVHcc09
 .text          0x00000000001b3440     0x95be lib/libfastcv.a(libfastcvv_la-fastcvColorRgb2YuvV.o)
                0x00000000001b3440                fcvVHcc0
                0x00000000001b3d88                fcvVHcc1
                0x00000000001b47b4                fcvVHcc2
                0x00000000001b51c0                fcvVHcc3
                0x00000000001b5ea8                fcvVHcc4
                0x00000000001b6ade                fcvVHcc5
                0x00000000001b7aa0                fcvVHcc6
                0x00000000001b7fd6                fcvVHcc7
                0x00000000001b83ec                fcvVHcc8
                0x00000000001b8806                fcvVHcc9
                0x00000000001b9096                fcvVHcca
                0x00000000001b99f2                fcvVHccb
                0x00000000001ba328                fcvVHccc
                0x00000000001baf4a                fcvVHccd
                0x00000000001bbaba                fcvVHcce
 .text          0x00000000001bc9fe     0x1740 lib/libfastcv.a(libfastcvv_la-fastcvColorRgbConversionV.o)
                0x00000000001bc9fe                fcvVHccf
                0x00000000001bcbde                fcvVHccg
                0x00000000001bcd72                fcvVHcch
                0x00000000001bcf5c                fcvVHcci
                0x00000000001bd13c                fcvVHccj
                0x00000000001bd2d0                fcvVHcck
                0x00000000001bd43a                fcvVHccl
                0x00000000001bd5b6                fcvVHccm
                0x00000000001bd720                fcvVHccn
                0x00000000001bd87e                fcvVHcco
                0x00000000001bda1e                fcvVHccp
                0x00000000001bdb86                fcvVHccq
                0x00000000001bdcca                fcvVHccr
                0x00000000001bde38                fcvVHccs
                0x00000000001bdfa4                fcvVHcct
 *fill*         0x00000000001be13e        0x2 
 .text          0x00000000001be140     0xacdc lib/libfastcv.a(libfastcvv_la-fastcvColorV.o)
                0x00000000001be140                fcvV6
                0x00000000001be700                fcvV7
                0x00000000001bec80                fcvV7R
                0x00000000001bee00                fcvV8
                0x00000000001bf780                fcvV4a
                0x00000000001c0860                fcvV4b
                0x00000000001c09c6                fcvV4c
                0x00000000001c0b30                fcvV4d
                0x00000000001c20e8                fcvV4e
                0x00000000001c2254                fcvV4f
                0x00000000001c23c0                fcvV4g
                0x00000000001c37e2                fcvV4h
                0x00000000001c386a                fcvV4i
                0x00000000001c3900                fcvV4j
                0x00000000001c48e0                fcvV4k
                0x00000000001c49d8                fcvV4l
                0x00000000001c4ad0                fcvV4m
                0x00000000001c5ef8                fcvV4n
                0x00000000001c5fee                fcvV4o
                0x00000000001c60f0                fcvV4p
                0x00000000001c744a                fcvV4q
                0x00000000001c74b8                fcvV4r
                0x00000000001c7526                fcvV6x
                0x00000000001c75f8                fcvVar
                0x00000000001c79b8                fcvV0ba
                0x00000000001c7fd8                fcvV0bb
                0x00000000001c82d8                fcvV0bc
                0x00000000001c8530                fcvV0bd
                0x00000000001c8910                fcvV5p
                0x00000000001c8a50                rgb8882hsvV
                0x00000000001c8d64                fcvV0bka
 .text          0x00000000001c8e1c      0xd70 lib/libfastcv.a(libfastcvv_la-fastcvColorYuvConversionV.o)
                0x00000000001c8e1c                fcvVHccu
                0x00000000001c9008                fcvVHccv
                0x00000000001c91d6                fcvVHccw
                0x00000000001c949c                fcvVHccx
                0x00000000001c97b4                fcvVHccy
                0x00000000001c99b6                fcvVHccz
 .text          0x00000000001c9b8c     0x2cf0 lib/libfastcv.a(libfastcvv_la-fastcvContourV.o)
                0x00000000001c9b8c                fcvPreProcessu8V
                0x00000000001ca0d4                fcvVz24
                0x00000000001cc1b0                fcvVz25
 *fill*         0x00000000001cc87c        0x4 
 .text          0x00000000001cc880      0x324 lib/libfastcv.a(libfastcvv_la-fastcvCopyV.o)
                0x00000000001cc880                fcvV1j
                0x00000000001ccb90                fcvV3h
 .text          0x00000000001ccba4     0x22ac lib/libfastcv.a(libfastcvv_la-fastcvCornerSubPixelV.o)
                0x00000000001ccba4                gxFilterV
                0x00000000001cce5a                gyFilterV
                0x00000000001cd170                fcvV0cp
 .text          0x00000000001cee50      0xc14 lib/libfastcv.a(libfastcvv_la-fastcvDepthFusionV.o)
                0x00000000001cee50                fcvVz2g
 .text          0x00000000001cfa64      0x3c4 lib/libfastcv.a(libfastcvv_la-fastcvDescriptor2V.o)
                0x00000000001cfa64                fcvV9c
 .text          0x00000000001cfe28     0xe18c lib/libfastcv.a(libfastcvv_la-fastcvEdgeV.o)
                0x00000000001cfe28                fcvVc
                0x00000000001d0822                fcvVe
                0x00000000001d1270                fcvVd
                0x00000000001d213a                fcvVf
                0x00000000001d3228                canny_non_maxV
                0x00000000001d369c                fcvV3d
                0x00000000001d3ec0                fcvV3d3
                0x00000000001d4af8                fcvVb
                0x00000000001d5c5c                fcvV6a
                0x00000000001d66d8                fcvV6b
                0x00000000001d6fca                fcvV1i
                0x00000000001d785c                fcvV6c
                0x00000000001d8762                fcvV6e
                0x00000000001d8f7a                fcvV6z
                0x00000000001d97a4                fcvV6f
                0x00000000001da5c8                fcvV6d
                0x00000000001db07c                fcvVz02
                0x00000000001dc578                fcvVz04
                0x00000000001dc658                fcvVz05
                0x00000000001dc748                fcvVz12
 .text          0x00000000001ddfb4     0x23ec lib/libfastcv.a(libfastcvv_la-fastcvEucldeanV.o)
                0x00000000001ddfb4                ifcvClusterEuclideanf32HelperV
                0x00000000001dea2c                fcvV2r
                0x00000000001dee68                fcvV2s
                0x00000000001df4b0                fcvV5z
 .text          0x00000000001e03a0      0x6f0 lib/libfastcv.a(libfastcvv_la-fastcvFloodFillV.o)
                0x00000000001e03a0                fcvFloodfillCommonu8V(unsigned char const*, unsigned int, unsigned int, unsigned int, unsigned char*, unsigned int, unsigned int, unsigned int, unsigned char, fcvConnectedComponent*, unsigned char, void*)
                0x00000000001e0900                fcvV8r
                0x00000000001e0950                fcvV8rm
 .text          0x00000000001e0a90     0x3bb4 lib/libfastcv.a(libfastcvv_la-fastcvGeomV.o)
                0x00000000001e0a90                fcvVv
                0x00000000001e1ed4                fcvVw
                0x00000000001e2180                fcvVx
                0x00000000001e2648                fcvVr
                0x00000000001e2a70                fcvVy
                0x00000000001e311c                fcvGeomPoseOptimizeLMf32V
                0x00000000001e3120                fcvV9g
                0x00000000001e43fc                fcvVz26
 *fill*         0x00000000001e4644        0xc 
 .text          0x00000000001e4650     0x5204 lib/libfastcv.a(libfastcvv_la-fastcvHOGV.o)
                0x00000000001e4650                fcvVHa05
                0x00000000001e5140                fcvVHa06
                0x00000000001e67a4                HogFeature32dimCalculateNormf32V
                0x00000000001e6b90                fcvVHa07
                0x00000000001e97dc                fcvExtractHOGu16V
 *fill*         0x00000000001e9854        0xc 
 .text          0x00000000001e9860     0xb018 lib/libfastcv.a(libfastcvv_la-fastcvHarrisV.o)
                0x00000000001e9860                fcvVo
                0x00000000001eb4f4                fcvVz18
                0x00000000001ed49c                fcv3l
                0x00000000001ee264                fcvVoa
                0x00000000001f0490                fcvVob
                0x00000000001f3494                fcvVz21
 .text          0x00000000001f4878     0x2bd0 lib/libfastcv.a(libfastcvv_la-fastcvHomographyV.o)
                0x00000000001f4878                fcvVq2
                0x00000000001f5000                fcvVq3
                0x00000000001f5810                fcvVp2
                0x00000000001f6ec0                fcvVHa02
 .text          0x00000000001f7448      0x2dc lib/libfastcv.a(libfastcvv_la-fastcvHoughCircleV.o)
                0x00000000001f7448                fcvVHhc01
 .text          0x00000000001f7724      0xaf4 lib/libfastcv.a(libfastcvv_la-fastcvHoughLineV.o)
                0x00000000001f7724                fcvV0bn
 .text          0x00000000001f8218     0x29c0 lib/libfastcv.a(libfastcvv_la-fastcvImageDiffV.o)
                0x00000000001f8218                fcvV3a
                0x00000000001f8b58                fcvV3w
                0x00000000001f92a8                fcvV3s
                0x00000000001f9882                fcvV3u
                0x00000000001fa3e0                fcvV3v
 *fill*         0x00000000001fabd8        0x8 
 .text          0x00000000001fabe0     0x4504 lib/libfastcv.a(libfastcvv_la-fastcvImageIntensityV.o)
                0x00000000001fabe0                fcvVz2j
                0x00000000001fb268                fcvVz
                0x00000000001fb8cc                fcvVav
                0x00000000001fbff0                fcvVz28
                0x00000000001fbffc                fcvVz27
                0x00000000001fc800                fcvVz19
                0x00000000001fdb00                fcvVz20
 .text          0x00000000001ff0e4     0x101c lib/libfastcv.a(libfastcvv_la-fastcvImagePostProcV.o)
                0x00000000001ff0e4                fctippV4s1
                0x00000000002000f2                fcvV4s
 .text          0x0000000000200100     0x22cc lib/libfastcv.a(libfastcvv_la-fastcvIntegrateImageV.o)
                0x0000000000200100                fcvV6g_1
                0x0000000000200250                fcvV6g
                0x000000000020072c                fcvV5w
                0x000000000020075a                fcvV7a
                0x0000000000200eb0                fcvVat
                0x000000000020190c                fcvV13
                0x00000000002019fc                fcvV5x
                0x0000000000201aee                fcvV14
                0x0000000000201ca8                fcvV5y
                0x0000000000201e64                fcvV3c
                0x000000000020230c                fcvV15
 .text          0x00000000002023cc     0x1d9c lib/libfastcv.a(libfastcvv_la-fastcvIntegrateImageYuvV.o)
                0x00000000002023cc                fcvV8t
 .text          0x0000000000204168     0x23a8 lib/libfastcv.a(libfastcvv_la-fastcvIppScaleV.o)
                0x0000000000204168                ifcv_scale_polyphase_hscale_byteV
                0x0000000000204598                ifcv_scale_polyphase_hscale_2bytesV
                0x00000000002048f4                ifcv_scale_polyphase_vscale_byteV
                0x00000000002050d8                ifcv_scale_polyphase_vscale_2bytesV
                0x0000000000205384                ppfScalePolyphaseFullScaleByteV
                0x0000000000205790                ppfScalePolyphaseFullScale2ByteV
                0x0000000000205d28                fcvV5a
                0x0000000000205dc0                fcvV5b
                0x0000000000205e58                ScaleDownMNu8CoreV
 .text          0x0000000000206510     0x1fc0 lib/libfastcv.a(libfastcvv_la-fastcvIppTransformV.o)
                0x0000000000206510                fcvV4w
                0x00000000002067e8                fcvV4x
                0x0000000000206bbc                fcvV4y
                0x0000000000206f70                fcvV4z
                0x0000000000207378                fcvV8l
                0x00000000002075f4                fcvV8m
                0x0000000000207a1c                fcvV8n
                0x0000000000207eb8                fcvV8o
                0x00000000002083bc                fcvV8p
                0x0000000000208448                fcvV8q
 .text          0x00000000002084d0      0x5d4 lib/libfastcv.a(libfastcvv_la-fastcvLBPV.o)
                0x00000000002084d0                fcvV0bs
 .text          0x0000000000208aa4      0x188 lib/libfastcv.a(libfastcvv_la-fastcvMotionHistoryV.o)
                0x0000000000208aa4                fcvV8s
 *fill*         0x0000000000208c2c        0x4 
 .text          0x0000000000208c30     0x5808 lib/libfastcv.a(libfastcvv_la-fastcvMserFxpV.o)
                0x0000000000208c30                fcvVHms00
                0x0000000000209e34                fcvVHms01
                0x000000000020b1f0                fcvVHms02
                0x000000000020c7c0                fcvVHms03
                0x000000000020e00c                fcvVHms04
                0x000000000020e220                fcvVHms05
 .text          0x000000000020e438     0x2e14 lib/libfastcv.a(libfastcvv_la-fastcvNCCPatchV.o)
                0x000000000020e438                fcvV18
                0x000000000020f6fc                fcvV19
                0x000000000020ffd0                fcvVHa03
                0x00000000002102ac                fcvVHa04
 .text          0x000000000021124c      0xae0 lib/libfastcv.a(libfastcvv_la-fastcvPolygonV.o)
                0x000000000021124c                fcvLineV
                0x000000000021187c                fcvV8y
 .text          0x0000000000211d2c      0x136 lib/libfastcv.a(libfastcvv_la-fastcvPyramidV.o)
                0x0000000000211d2c                fcvV2w
                0x0000000000211d94                fcvV2z
                0x0000000000211dfc                fcvV2x
 *fill*         0x0000000000211e62        0xe 
 .text          0x0000000000211e70     0x5408 lib/libfastcv.a(libfastcvv_la-fastcvRemapV.o)
                0x0000000000211e70                fcvVa1
                0x0000000000212a40                fcvVa2
                0x0000000000213270                fcvVz14
                0x00000000002132b0                fcvVz2k
                0x0000000000214d10                fcvV0cm
                0x000000000021500e                fcvVrkpj
                0x00000000002160be                fcvVrkpk
 .text          0x0000000000217278      0x4b2 lib/libfastcv.a(libfastcvv_la-fastcvSADV.o)
                0x0000000000217278                fcvV1a2
                0x00000000002172ee                fcvV1a
                0x0000000000217414                fcvV1a3
                0x0000000000217528                fcvV1a1
 *fill*         0x000000000021772a        0x2 
 .text          0x000000000021772c     0x1b54 lib/libfastcv.a(libfastcvv_la-fastcvSSDV.o)
                0x000000000021772c                fcvV0bg
                0x0000000000217818                fcvV1e
                0x000000000021797c                fcvV1f
                0x0000000000217d40                fcvVao
                0x00000000002185fc                fcvVap
                0x0000000000218e3c                fcvVaq
 .text          0x0000000000219280     0x1e34 lib/libfastcv.a(libfastcvv_la-fastcvSVMPredictV.o)
                0x0000000000219280                fcvV0bkf
 .text          0x000000000021b0b4     0x2828 lib/libfastcv.a(libfastcvv_la-fastcvSetV.o)
                0x000000000021b0b4                fcvV5e
                0x000000000021b502                fcvV5f
                0x000000000021b814                fcvV5g
                0x000000000021bb16                fcvV5h
                0x000000000021c3c0                fcvV5i
                0x000000000021c5cc                fcvV5j
                0x000000000021c7d2                fcvV5k
                0x000000000021d284                fcvV5l
                0x000000000021d58c                fcvV5m
 *fill*         0x000000000021d8dc        0x4 
 .text          0x000000000021d8e0    0x13198 lib/libfastcv.a(libfastcvv_la-fastcvSmoothV.o)
                0x000000000021d8e0                fcvV10g
                0x000000000021f018                fcvVz29
                0x0000000000220460                fcvV10h
                0x0000000000220fe8                fcvBoxFilter11x11u8V2
                0x0000000000223490                fcvV10i
                0x0000000000224304                fcvVaw
                0x000000000022675c                fcvV10m
                0x0000000000227c34                fcvV10n
                0x0000000000228f54                fcvV10o
                0x000000000022a4c0                fcvV0cf
                0x000000000022bb50                fcvV0cg
                0x000000000022d0b0                fcvV0ch
                0x000000000022eb50                fcvV0ci
 .text          0x0000000000230a78     0x1638 lib/libfastcv.a(libfastcvv_la-fastcvThresholdV.o)
                0x0000000000230a78                fcvV1g
                0x0000000000231088                fcvVz2d
                0x00000000002314a4                fcvVz2e
                0x0000000000231710                fcvV0bk
                0x0000000000231d20                fcvVz01
 .text          0x00000000002320b0      0x774 lib/libfastcv.a(libfastcvv_la-fastcvTrackV.o)
                0x00000000002320b0                fcvVHlk00
                0x0000000000232180                fcvVHlk01
                0x0000000000232230                fcvVHlk02
 *fill*         0x0000000000232824        0xc 
 .text          0x0000000000232830     0xc27c lib/libfastcv.a(libfastcvv_la-fastcvTransformV.o)
                0x0000000000232830                lastButterflyV
                0x0000000000232b60                ifftFirstButterflyV
                0x0000000000232d90                ifftFirstButterflyCol4V
                0x00000000002330e0                ifftFirstButterflyCol8V
                0x00000000002336c8                fft32x16V
                0x0000000000233f0c                fft32x16Col4V
                0x00000000002345f4                fft32x16Col8V
                0x0000000000235104                fcvV0cn
                0x000000000023909c                fcvV0co
                0x000000000023a4f4                fcvHFFT01
                0x000000000023d5ac                fcvHFFT02
 .text          0x000000000023eaac      0xcf8 lib/libfastcv.a(libfastcvv_la-fastcvUpsampleV.o)
                0x000000000023eaac                fcvVHcc04
                0x000000000023ed04                fcvVHcc05
                0x000000000023f01e                fcvVHcc06
                0x000000000023f16e                fcvVHcc07
                0x000000000023f52c                fcvVHcc08
 .text          0x000000000023f7a4      0x110 lib/libfastcv.a(libfastcvv_la-fastcvVectorV.o)
                0x000000000023f7a4                fcvV3r
 .text          0x000000000023f8b4      0x308 lib/libfastcv.a(libIlpsources_la-fastcvBitCntIlpC.o)
                0x000000000023f8b4                fcvHammingDistance64x4u8a4C
                0x000000000023fa38                fcvHammingDistance64x4u8C
 .text          0x000000000023fbbc     0x2340 lib/libfastcv.a(libIlpsources_la-fastcvBlurIlpC.o)
                0x000000000023fbbc                findMedianInSortedWindow3x3
                0x000000000023fc20                sortColumeWiseInWindow3x3
                0x000000000023fc70                fcvFilterMedian3x3u8C
                0x000000000023ff70                fcvFilterMedian3x3u8_v3C
                0x0000000000240b10                fcvFilterMedianMxNs16C
                0x0000000000241370                fcvFilterGaussian5x5s32C
 .text._Z16fast_median_sortIsET_PS0_i
                0x0000000000241efc       0xe8 lib/libfastcv.a(libIlpsources_la-fastcvBlurIlpC.o)
                0x0000000000241efc                short fast_median_sort<short>(short*, int)
 .text          0x0000000000241fe4      0x162 lib/libfastcv.a(libIlpsources_la-fastcvBoundingRectC.o)
                0x0000000000241fe4                fcvBoundingRectangleC
 *fill*         0x0000000000242146        0x2 
 .text          0x0000000000242148     0xc544 lib/libfastcv.a(libIlpsources_la-fastcvFilter1C.o)
                0x0000000000242148                erodeCenterPart3x3u8
                0x00000000002422fe                fcvFilterDilate3x3u8C
                0x000000000024271a                fcvFilterErode3x3u8C
                0x0000000000242b38                fcvFilterDilateNxNu8C
                0x000000000024844c                fcvFilterErodeNxNu8C
                0x000000000024dd60                fcvFilterErode3x3u8_v3C
                0x000000000024e222                fcvFilterDilate3x3u8_v3C
 .text          0x000000000024e68c      0x238 lib/libfastcv.a(libIlpsources_la-fastcvImagePostProcIlpC.o)
                0x000000000024e68c                chroma_up_hori_planarC
                0x000000000024e7e0                fcvUpsampleHorizontalu8C
 .text          0x000000000024e8c4     0x3002 lib/libfastcv.a(libIlpsources_la-fastcvScaleIlpC.o)
                0x000000000024e8c4                fcvScaleDownBy4u8C
                0x000000000024fb88                fcvScaleDownu8C
                0x0000000000250448                fcvScaleDown3To2u8C
                0x0000000000251224                fcvScaleDownNNu8C
 *fill*         0x00000000002518c6        0x2 
 .text          0x00000000002518c8     0x3fdc lib/libfastcv.a(libfastcvIlpC_la-fastcvFastIlpC.o)
                0x00000000002518c8                fast9_corner_scoreC
                0x0000000000253fd4                score_9
                0x000000000025405c                fcvCornerFast9InMasku8C
                0x00000000002557f4                fcvCornerFast9InMaskScoreu8C
 .text          0x00000000002558a4     0x52a0 lib/libfastcv.a(libfastcvFast10C_la-fastcvFast10C.o)
                0x00000000002558a4                fast10_corner_scoreC
                0x0000000000257d7c                fcvCornerFast10u8C
                0x0000000000259120                fcvCornerFast10Scoreu8C
                0x0000000000259298                nms_processing
                0x0000000000259504                fcvCornerFast10InMasku8C
                0x000000000025a9b4                fcvCornerFast10InMaskScoreu8C
 *fill*         0x000000000025ab44        0xc 
 .text          0x000000000025ab50     0x3438 lib/libfastcv.a(libfastcvMeanShiftC_la-fastcvMeanShiftC.o)
                0x000000000025ab50                fcvSwap_int
                0x000000000025ab5a                fcvSwap_fixed
                0x000000000025ab78                fcvMomentsInTileu8C
                0x000000000025b20c                fcvMomentsInTiles32C
                0x000000000025b5a8                fcvMomentsInTilef32C
                0x000000000025bb00                fcvImageMomentsu8C
                0x000000000025c140                fcvImageMomentss32C
                0x000000000025c790                fcvImageMomentsf32C
                0x000000000025cdd8                fcvMeanShiftu8C
                0x000000000025cfa0                fcvMeanShifts32C
                0x000000000025d170                fcvMeanShiftf32C
                0x000000000025d340                fcvConAdaTracku8C
                0x000000000025d750                fcvConAdaTracks32C
                0x000000000025db6c                fcvConAdaTrackf32C
 .text          0x000000000025df88      0x948 lib/libfastcv.a(libfastcvPyramidC_la-fastcvPyramidC.o)
                0x000000000025df88                fcvPyramidAllocateC
                0x000000000025dff8                fcvPyramidDeleteC
                0x000000000025e024                fcvPyramidCreatef32C
                0x000000000025e100                fcvPyramidCreateu8C
                0x000000000025e1dc                fcvPyramidSobelGradientCreatei16C
                0x000000000025e24a                fcvPyramidSobelGradientCreatei8C
                0x000000000025e2b8                fcvPyramidSobelGradientCreatef32C
                0x000000000025e326                fcvPyramidAllocate_v2C
                0x000000000025e3ba                fcvPyramidDelete_v2C
                0x000000000025e3e4                fcvPyramidCreatef32_v2C
                0x000000000025e4d8                fcvPyramidCreateu8_v2C
                0x000000000025e5c8                fcvPyramidAllocate_v3C
                0x000000000025e744                fcvPyramidCreateu8_v3C
 .text          0x000000000025e8d0     0x3594 lib/libfastcv.a(libfastcvHomographyC_la-fastcvHomographyC.o)
                0x000000000025e8d0                fcvGeomHomographyFitDPf32C
                0x000000000025f35c                updateNumIters
                0x000000000025f440                fcvGeomHomographyFitf32C
                0x000000000025f7fc                fcvGeomHomographyEvaluatef32C
                0x000000000025fa2a                fcvGeomHomographyEvaluatef32_v2C
                0x000000000025fc70                fcvGeomHomographyRobustFitf32C
                0x000000000025fc78                fcvGeomHomographyRobustFitf32_v2C
                0x0000000000260bf0                normalise2dptsC
                0x0000000000261138                fcvGeomHomographyFitf32_v2C
 *fill*         0x0000000000261e64        0x4 
 .text          0x0000000000261e68     0x1fe8 lib/libfastcv.a(libfastcvThresholdC_la-fastcvThresholdC.o)
                0x0000000000261e68                computeOtsuThreshold
                0x0000000000263024                fcvFilterThresholdu8C
                0x00000000002632de                filterThresholdInvu8C
                0x000000000026357c                fcvFilterThresholdOtsuu8C
                0x00000000002635d0                fcvFilterThresholdRangeu8C
                0x00000000002638e8                fcvFilterThresholdu8_v3C
                0x0000000000263b8e                fcvFilterThresholdRangeu8_v2C
 .text          0x0000000000263e50     0x35c0 lib/libfastcv.a(libfastcvBlurC_la-fastcvBlurC.o)
                0x0000000000263e50                fcvFilterGaussian3x3u8C
                0x0000000000264690                fcvFilterGaussian3x3u8_v3C
                0x0000000000265016                fcvFilterGaussian5x5u8C
                0x0000000000265a8c                fcvFilterGaussian5x5s16C
                0x00000000002665cc                fcvFilterGaussian11x11u8C
 .text          0x0000000000267410    0x20680 lib/libfastcv.a(libfastcvFilterC_la-fastcvFilterC.o)
                0x0000000000267410                fcvFilterCorr3x3s8_v2C
                0x0000000000267542                fcvFilterCorrSep9x9s16C
                0x0000000000267bca                fcvFilterCorrSep11x11s16C
                0x0000000000267bf0                fcvFilterCorrSep13x13s16C
                0x0000000000267c16                fcvFilterCorrSep15x15s16C
                0x0000000000267c3c                fcvFilterCorrSep17x17s16C
                0x0000000000267c62                fcvFilterCorrSepNxNs16C
                0x0000000000267c64                fcvConvValids16C
                0x00000000002682b8                fcvFilterCorrNxNu8f32C
                0x0000000000268694                fcvFilterCorrNxNu8s16C
                0x00000000002690a6                fcvFilterCorrNxNu8C
                0x00000000002699b4                fcvFilterCorrSepMxNu8C
                0x000000000026a4e0                fcvFilterConvSepMxNs16C
                0x0000000000283044                PadImageu8
                0x0000000000283cba                powerof2
                0x0000000000283d04                PadImageConvu8
                0x00000000002842b6                PadKernelConvs16
                0x0000000000284f58                MultiplyComplex
                0x00000000002852c0                CL0
                0x00000000002852e4                CLb
                0x000000000028530e                inflateKernelC
                0x00000000002854f4                fcvFilterConvolveMxNu8s16BigKernelC
                0x0000000000285b90                fcvFilterConvolveMxNu8s16C
                0x000000000028685c                fcvFilterConvolveMxNu8BigKernelC
                0x0000000000286eac                fcvFilterConvolveMxNu8C
 .text          0x0000000000287a90      0xe38 lib/libfastcv.a(libfastcv_la-fastcvManager_.o)
                0x0000000000287a90                fcvCopy
                0x0000000000287b18                fcvColorYUV420toRGB565u8Rotate180
                0x0000000000287bf8                fcvImageGradientScharrInterleaveds16
                0x0000000000287d18                fcvColorRGB888ToRGB565Rotate180u8
                0x0000000000287e18                fcvSumOfAbsoluteDiffs16x16u8
                0x0000000000287f5c                fcvSumOfAbsoluteDiff16x16u8
                0x0000000000288010                fcvSumOfAbsoluteDiff8x8u8
                0x00000000002880c4                fcvScaleDownBy2Gaussian5x5f32
                0x00000000002881ac                fcvScaleDownBy2Gaussian5x5f32_v2
                0x00000000002882d4                probeQ6Time
                0x00000000002882f4                fcvRegisterBuf
                0x0000000000288318                fcvMserSplitExtu8
                0x00000000002884d8                fcvFilterConvSepMxNs16
                0x00000000002885f0                fcvExtractHOGu16
                0x0000000000288744                fcvHOGInit
                0x0000000000288824                fcvHOGDeInit
 .text          0x00000000002888c8      0x13c lib/libfastcv.a(libfastcv_la-fastcvUtils.o)
                0x00000000002888c8                fcvIsqrt(float)
                0x000000000028890c                fcvAtan2(float, float)
                0x00000000002889a8                randValue
 .text          0x0000000000288a04      0x220 lib/libfastcv.a(fastcvIntegrateImageV2.o)
                0x0000000000288a04                fcvV5w_1
 .text          0x0000000000288c24      0x560 lib/libfastcv.a(fastcvIppDctV.o)
                0x0000000000288c64                jpege_engine_sw_fdct_u8V
 *fill*         0x0000000000289184       0x1c 
 .text          0x00000000002891a0      0x374 lib/libfastcv.a(fastcvIppIdctV.o)
                0x0000000000289238                jpegd_engine_sw_idct_8x8_s16V
 *fill*         0x0000000000289514        0xc 
 .text          0x0000000000289520     0x1558 lib/libfastcv.a(libfastcvv_la-fastcvColorIppPlanarV.o)
                0x0000000000289520                fcvccbgr2
                0x0000000000289cc0                fcvccbgr3
                0x000000000028a4d0                fcvccbgr5
                0x000000000028a780                fcvccbgr6
 *fill*         0x000000000028aa78        0x8 
 .text          0x000000000028aa80     0x1560 lib/libfastcv.a(libfastcvv_la-fastcvColorIppV.o)
                0x000000000028aa80                fcvccbgr8
                0x000000000028b230                fcvccbgr9
                0x000000000028ba40                fcvccbgr11
                0x000000000028bcf0                fcvccbgr12
 .text          0x000000000028bfe0      0x132 lib/libfastcv.a(libfastcvv_la-fastcvColorRgb2RgbV.o)
                0x000000000028bfe0                fcvccbgr14
 *fill*         0x000000000028c112        0xe 
 .text          0x000000000028c120     0x4350 lib/libfastcv.a(libfastcvv_la-fastcvIppDwtV.o)
                0x000000000028c120                fcvippt0
                0x000000000028c8c0                fcvippt1
                0x000000000028ccc0                fcvippt2
                0x000000000028d240                fcvippt3
                0x000000000028db00                fcvippt4
                0x000000000028f848                fcvippt5
                0x000000000028fee8                fcvippt6
 .text          0x0000000000290470     0x2d08 lib/libfastcv.a(libfastcvv_la-fastcvIppIdwtV.o)
                0x0000000000290470                idwt_haar_uint8_randomwriteV
                0x0000000000290bc8                idwt_haar_uint8_randomwrite_4linesV
                0x0000000000290f88                ifcv_wavelet_transform_inverse_1d_uint8_haarV
                0x0000000000291498                ifcv_wavelet_transform_inverse_1d_int16_haarV
                0x0000000000291ae8                ifcv_wavelet_transform_inverse_1d_int16_haar_4linesV
                0x0000000000291f38                ifcv_wavelet_transform_inverse_1d_int16V
                0x00000000002926c0                ifcv_wavelet_transform_inverse_1d_int16_2linesV
 .text          0x0000000000293178     0x1094 /media/ram/363029d1-6365-487a-b2e3-bd8d034c2ea4/fastcv/hexagondsp/Hexagon_SDK/3.5.2/tools/linaro/bin/../lib/gcc/arm-linux-gnueabihf/8.2.1/libgcc_eh.a(unwind-arm.o)
                0x000000000029361c                _Unwind_GetCFA
                0x0000000000293624                __gnu_Unwind_RaiseException
                0x00000000002936cc                __gnu_Unwind_ForcedUnwind
                0x00000000002936f0                __gnu_Unwind_Resume
                0x0000000000293764                __gnu_Unwind_Resume_or_Rethrow
                0x0000000000293784                _Unwind_Complete
                0x0000000000293788                _Unwind_DeleteException
                0x00000000002937a0                _Unwind_VRS_Get
                0x0000000000293834                _Unwind_VRS_Set
                0x00000000002938c8                __gnu_Unwind_Backtrace
                0x0000000000293e08                __aeabi_unwind_cpp_pr0
                0x0000000000293e10                __aeabi_unwind_cpp_pr1
                0x0000000000293e18                __aeabi_unwind_cpp_pr2
                0x0000000000293e20                _Unwind_VRS_Pop
 .text          0x000000000029420c      0x1a8 /media/ram/363029d1-6365-487a-b2e3-bd8d034c2ea4/fastcv/hexagondsp/Hexagon_SDK/3.5.2/tools/linaro/bin/../lib/gcc/arm-linux-gnueabihf/8.2.1/libgcc_eh.a(libunwind.o)
                0x000000000029420c                __restore_core_regs
                0x000000000029420c                restore_core_regs
                0x0000000000294220                __gnu_Unwind_Restore_VFP
                0x0000000000294228                __gnu_Unwind_Save_VFP
                0x0000000000294230                __gnu_Unwind_Restore_VFP_D
                0x0000000000294238                __gnu_Unwind_Save_VFP_D
                0x0000000000294240                __gnu_Unwind_Restore_VFP_D_16_to_31
                0x0000000000294248                __gnu_Unwind_Save_VFP_D_16_to_31
                0x0000000000294250                __gnu_Unwind_Restore_WMMXD
                0x0000000000294294                __gnu_Unwind_Save_WMMXD
                0x00000000002942d8                __gnu_Unwind_Restore_WMMXC
                0x00000000002942ec                __gnu_Unwind_Save_WMMXC
                0x0000000000294300                _Unwind_RaiseException
                0x0000000000294300                ___Unwind_RaiseException
                0x0000000000294324                _Unwind_Resume
                0x0000000000294324                ___Unwind_Resume
                0x0000000000294348                ___Unwind_Resume_or_Rethrow
                0x0000000000294348                _Unwind_Resume_or_Rethrow
                0x000000000029436c                _Unwind_ForcedUnwind
                0x000000000029436c                ___Unwind_ForcedUnwind
                0x0000000000294390                ___Unwind_Backtrace
                0x0000000000294390                _Unwind_Backtrace
 .text          0x00000000002943b4      0x504 /media/ram/363029d1-6365-487a-b2e3-bd8d034c2ea4/fastcv/hexagondsp/Hexagon_SDK/3.5.2/tools/linaro/bin/../lib/gcc/arm-linux-gnueabihf/8.2.1/libgcc_eh.a(pr-support.o)
                0x0000000000294448                __gnu_unwind_execute
                0x000000000029484c                __gnu_unwind_frame
                0x000000000029488c                _Unwind_GetRegionStart
                0x000000000029489c                _Unwind_GetLanguageSpecificData
 .text          0x00000000002948b8      0x20c /media/ram/363029d1-6365-487a-b2e3-bd8d034c2ea4/fastcv/hexagondsp/Hexagon_SDK/3.5.2/tools/linaro/bin/../lib/gcc/arm-linux-gnueabihf/8.2.1/libgcc.a(_udivsi3.o)
                0x00000000002948b8                __udivsi3
                0x00000000002948b8                __aeabi_uidiv
                0x0000000000294aa4                __aeabi_uidivmod
 .text          0x0000000000294ac4      0x240 /media/ram/363029d1-6365-487a-b2e3-bd8d034c2ea4/fastcv/hexagondsp/Hexagon_SDK/3.5.2/tools/linaro/bin/../lib/gcc/arm-linux-gnueabihf/8.2.1/libgcc.a(_divsi3.o)
                0x0000000000294ac4                __aeabi_idiv
                0x0000000000294ac4                __divsi3
                0x0000000000294ce4                __aeabi_idivmod
 .text          0x0000000000294d04      0x3c0 /media/ram/363029d1-6365-487a-b2e3-bd8d034c2ea4/fastcv/hexagondsp/Hexagon_SDK/3.5.2/tools/linaro/bin/../lib/gcc/arm-linux-gnueabihf/8.2.1/libgcc.a(_arm_addsubdf3.o)
                0x0000000000294d04                __aeabi_drsub
                0x0000000000294d0c                __subdf3
                0x0000000000294d0c                __aeabi_dsub
                0x0000000000294d10                __adddf3
                0x0000000000294d10                __aeabi_dadd
                0x0000000000294fbc                __aeabi_ui2d
                0x0000000000294fbc                __floatunsidf
                0x0000000000294fe0                __floatsidf
                0x0000000000294fe0                __aeabi_i2d
                0x0000000000295008                __extendsfdf2
                0x0000000000295008                __aeabi_f2d
                0x0000000000295050                __aeabi_ul2d
                0x0000000000295050                __floatundidf
                0x0000000000295064                __floatdidf
                0x0000000000295064                __aeabi_l2d
 .text          0x00000000002950c4      0x250 /media/ram/363029d1-6365-487a-b2e3-bd8d034c2ea4/fastcv/hexagondsp/Hexagon_SDK/3.5.2/tools/linaro/bin/../lib/gcc/arm-linux-gnueabihf/8.2.1/libgcc.a(_arm_addsubsf3.o)
                0x00000000002950c4                __aeabi_frsub
                0x00000000002950cc                __subsf3
                0x00000000002950cc                __aeabi_fsub
                0x00000000002950d0                __addsf3
                0x00000000002950d0                __aeabi_fadd
                0x0000000000295260                __aeabi_ui2f
                0x0000000000295260                __floatunsisf
                0x0000000000295268                __floatsisf
                0x0000000000295268                __aeabi_i2f
                0x0000000000295288                __floatundisf
                0x0000000000295288                __aeabi_ul2f
                0x0000000000295298                __floatdisf
                0x0000000000295298                __aeabi_l2f
 .text          0x0000000000295314       0xd4 /media/ram/363029d1-6365-487a-b2e3-bd8d034c2ea4/fastcv/hexagondsp/Hexagon_SDK/3.5.2/tools/linaro/bin/../lib/gcc/arm-linux-gnueabihf/8.2.1/libgcc.a(_aeabi_ldivmod.o)
                0x0000000000295314                __aeabi_ldivmod
 .text          0x00000000002953e8       0x10 /media/ram/363029d1-6365-487a-b2e3-bd8d034c2ea4/fastcv/hexagondsp/Hexagon_SDK/3.5.2/tools/linaro/bin/../lib/gcc/arm-linux-gnueabihf/8.2.1/libgcc.a(_dvmd_lnx.o)
                0x00000000002953e8                __aeabi_idiv0
                0x00000000002953e8                __aeabi_ldiv0
 .text          0x00000000002953f8       0x40 /media/ram/363029d1-6365-487a-b2e3-bd8d034c2ea4/fastcv/hexagondsp/Hexagon_SDK/3.5.2/tools/linaro/bin/../lib/gcc/arm-linux-gnueabihf/8.2.1/libgcc.a(_powisf2.o)
                0x00000000002953f8                __powisf2
 .text          0x0000000000295438      0x150 /media/ram/363029d1-6365-487a-b2e3-bd8d034c2ea4/fastcv/hexagondsp/Hexagon_SDK/3.5.2/tools/linaro/bin/../lib/gcc/arm-linux-gnueabihf/8.2.1/libgcc.a(_udivmoddi4.o)
                0x0000000000295438                __udivmoddi4
 .text          0x0000000000295588        0x0 /media/ram/363029d1-6365-487a-b2e3-bd8d034c2ea4/fastcv/hexagondsp/Hexagon_SDK/3.5.2/tools/linaro/bin/../lib/gcc/arm-linux-gnueabihf/8.2.1/crtend.o
 .text          0x0000000000295588        0x0 /media/ram/363029d1-6365-487a-b2e3-bd8d034c2ea4/fastcv/hexagondsp/Hexagon_SDK/3.5.2/tools/linaro/bin/../arm-linux-gnueabihf/libc/usr/lib/crtn.o
 *(.gnu.warning)
 *(.glue_7t)
 .glue_7t       0x0000000000295588        0x0 linker stubs
 *(.glue_7)
 .glue_7        0x0000000000295588        0x0 linker stubs
 *(.vfp11_veneer)
 .vfp11_veneer  0x0000000000295588        0x0 linker stubs
 *(.v4_bx)
 .v4_bx         0x0000000000295588        0x0 linker stubs

.fini           0x0000000000295588        0x8
 *(SORT_NONE(.fini))
 .fini          0x0000000000295588        0x4 /media/ram/363029d1-6365-487a-b2e3-bd8d034c2ea4/fastcv/hexagondsp/Hexagon_SDK/3.5.2/tools/linaro/bin/../arm-linux-gnueabihf/libc/usr/lib/crti.o
                0x0000000000295588                _fini
 .fini          0x000000000029558c        0x4 /media/ram/363029d1-6365-487a-b2e3-bd8d034c2ea4/fastcv/hexagondsp/Hexagon_SDK/3.5.2/tools/linaro/bin/../arm-linux-gnueabihf/libc/usr/lib/crtn.o
                [!provide]                        PROVIDE (__etext = .)
                [!provide]                        PROVIDE (_etext = .)
                [!provide]                        PROVIDE (etext = .)

.rodata         0x0000000000295800    0x3f0eb
 *(.rodata .rodata.* .gnu.linkonce.r.*)
 .rodata.cst4   0x0000000000295800        0x4 /media/ram/363029d1-6365-487a-b2e3-bd8d034c2ea4/fastcv/hexagondsp/Hexagon_SDK/3.5.2/tools/linaro/bin/../arm-linux-gnueabihf/libc/usr/lib/crt1.o
                0x0000000000295800                _IO_stdin_used
 .rodata._ZTSN2cv6StringE
                0x0000000000295804        0xd UbuntuARM_Release/ImageEnhance.o
                0x0000000000295804                typeinfo name for cv::String
 *fill*         0x0000000000295811        0x3 
 .rodata._ZTSN7cvflann17flann_algorithm_tE
                0x0000000000295814       0x1e UbuntuARM_Release/ImageEnhance.o
                0x0000000000295814                typeinfo name for cvflann::flann_algorithm_t
 *fill*         0x0000000000295832        0x2 
 .rodata._ZTSN7cvflann20flann_centers_init_tE
                0x0000000000295834       0x21 UbuntuARM_Release/ImageEnhance.o
                0x0000000000295834                typeinfo name for cvflann::flann_centers_init_t
 *fill*         0x0000000000295855        0x3 
 .rodata._ZTSN7cvflann7anyimpl15base_any_policyE
                0x0000000000295858       0x24 UbuntuARM_Release/ImageEnhance.o
                0x0000000000295858                typeinfo name for cvflann::anyimpl::base_any_policy
 .rodata._ZTSN7cvflann7anyimpl21typed_base_any_policyINS_20flann_centers_init_tEEE
                0x000000000029587c       0x46 UbuntuARM_Release/ImageEnhance.o
                0x000000000029587c                typeinfo name for cvflann::anyimpl::typed_base_any_policy<cvflann::flann_centers_init_t>
 *fill*         0x00000000002958c2        0x2 
 .rodata._ZTSN7cvflann7anyimpl14big_any_policyINS_20flann_centers_init_tEEE
                0x00000000002958c4       0x3f UbuntuARM_Release/ImageEnhance.o
                0x00000000002958c4                typeinfo name for cvflann::anyimpl::big_any_policy<cvflann::flann_centers_init_t>
 *fill*         0x0000000000295903        0x1 
 .rodata._ZTSN7cvflann7anyimpl21typed_base_any_policyINS_17flann_algorithm_tEEE
                0x0000000000295904       0x43 UbuntuARM_Release/ImageEnhance.o
                0x0000000000295904                typeinfo name for cvflann::anyimpl::typed_base_any_policy<cvflann::flann_algorithm_t>
 *fill*         0x0000000000295947        0x1 
 .rodata._ZTSN7cvflann7anyimpl14big_any_policyINS_17flann_algorithm_tEEE
                0x0000000000295948       0x3c UbuntuARM_Release/ImageEnhance.o
                0x0000000000295948                typeinfo name for cvflann::anyimpl::big_any_policy<cvflann::flann_algorithm_t>
 .rodata._ZTSN7cvflann7anyimpl21typed_base_any_policyIN2cv6StringEEE
                0x0000000000295984       0x38 UbuntuARM_Release/ImageEnhance.o
                0x0000000000295984                typeinfo name for cvflann::anyimpl::typed_base_any_policy<cv::String>
 .rodata._ZTSN7cvflann7anyimpl14big_any_policyIN2cv6StringEEE
                0x00000000002959bc       0x31 UbuntuARM_Release/ImageEnhance.o
                0x00000000002959bc                typeinfo name for cvflann::anyimpl::big_any_policy<cv::String>
 *fill*         0x00000000002959ed        0x3 
 .rodata._ZTSN7cvflann7anyimpl21typed_base_any_policyINS0_9empty_anyEEE
                0x00000000002959f0       0x3b UbuntuARM_Release/ImageEnhance.o
                0x00000000002959f0                typeinfo name for cvflann::anyimpl::typed_base_any_policy<cvflann::anyimpl::empty_any>
 *fill*         0x0000000000295a2b        0x1 
 .rodata._ZTSN7cvflann7anyimpl14big_any_policyINS0_9empty_anyEEE
                0x0000000000295a2c       0x34 UbuntuARM_Release/ImageEnhance.o
                0x0000000000295a2c                typeinfo name for cvflann::anyimpl::big_any_policy<cvflann::anyimpl::empty_any>
 .rodata._ZTSN7cvflann7anyimpl9empty_anyE
                0x0000000000295a60       0x1d UbuntuARM_Release/ImageEnhance.o
                0x0000000000295a60                typeinfo name for cvflann::anyimpl::empty_any
 *fill*         0x0000000000295a7d        0x3 
 .rodata._ZTSN7cvflann7anyimpl21typed_base_any_policyIPKcEE
                0x0000000000295a80       0x2f UbuntuARM_Release/ImageEnhance.o
                0x0000000000295a80                typeinfo name for cvflann::anyimpl::typed_base_any_policy<char const*>
 *fill*         0x0000000000295aaf        0x1 
 .rodata._ZTSN7cvflann7anyimpl16small_any_policyIPKcEE
                0x0000000000295ab0       0x2a UbuntuARM_Release/ImageEnhance.o
                0x0000000000295ab0                typeinfo name for cvflann::anyimpl::small_any_policy<char const*>
 *fill*         0x0000000000295ada        0x2 
 .rodata._ZTSN7cvflann7anyimpl21typed_base_any_policyIiEE
                0x0000000000295adc       0x2d UbuntuARM_Release/ImageEnhance.o
                0x0000000000295adc                typeinfo name for cvflann::anyimpl::typed_base_any_policy<int>
 *fill*         0x0000000000295b09        0x3 
 .rodata._ZTSN7cvflann7anyimpl16small_any_policyIiEE
                0x0000000000295b0c       0x28 UbuntuARM_Release/ImageEnhance.o
                0x0000000000295b0c                typeinfo name for cvflann::anyimpl::small_any_policy<int>
 .rodata._ZTSN7cvflann7anyimpl21typed_base_any_policyIfEE
                0x0000000000295b34       0x2d UbuntuARM_Release/ImageEnhance.o
                0x0000000000295b34                typeinfo name for cvflann::anyimpl::typed_base_any_policy<float>
 *fill*         0x0000000000295b61        0x3 
 .rodata._ZTSN7cvflann7anyimpl16small_any_policyIfEE
                0x0000000000295b64       0x28 UbuntuARM_Release/ImageEnhance.o
                0x0000000000295b64                typeinfo name for cvflann::anyimpl::small_any_policy<float>
 .rodata._ZTSN7cvflann7anyimpl21typed_base_any_policyIbEE
                0x0000000000295b8c       0x2d UbuntuARM_Release/ImageEnhance.o
                0x0000000000295b8c                typeinfo name for cvflann::anyimpl::typed_base_any_policy<bool>
 *fill*         0x0000000000295bb9        0x3 
 .rodata._ZTSN7cvflann7anyimpl16small_any_policyIbEE
                0x0000000000295bbc       0x28 UbuntuARM_Release/ImageEnhance.o
                0x0000000000295bbc                typeinfo name for cvflann::anyimpl::small_any_policy<bool>
 .rodata._ZTSN7cvflann7anyimpl21typed_base_any_policyIjEE
                0x0000000000295be4       0x2d UbuntuARM_Release/ImageEnhance.o
                0x0000000000295be4                typeinfo name for cvflann::anyimpl::typed_base_any_policy<unsigned int>
 *fill*         0x0000000000295c11        0x3 
 .rodata._ZTSN7cvflann7anyimpl16small_any_policyIjEE
                0x0000000000295c14       0x28 UbuntuARM_Release/ImageEnhance.o
                0x0000000000295c14                typeinfo name for cvflann::anyimpl::small_any_policy<unsigned int>
 .rodata._ZN7cvflann7anyimpl14big_any_policyIN2cv6StringEE5printERSoPKPv.str1.4
                0x0000000000295c3c        0x0 UbuntuARM_Release/ImageEnhance.o
                                          0x1 (size before relaxing)
 .rodata._ZN7cvflann7anyimpl14big_any_policyINS0_9empty_anyEE5printERSoPKPv.str1.4
                0x0000000000295c3c        0xc UbuntuARM_Release/ImageEnhance.o
 .rodata.str1.4
                0x0000000000295c48       0xd0 UbuntuARM_Release/ImageEnhance.o
                                         0xcf (size before relaxing)
 .rodata.str1.1
                0x0000000000295d18     0xacd3 lib/libfastcv.a(libfastcv_la-fastcvManager.o)
                                       0xad4b (size before relaxing)
 .rodata.str1.1
                0x00000000002a09eb       0xba lib/libfastcv.a(libfastcv_la-fastcvMemAndroid.o)
 .rodata.str1.1
                0x00000000002a0aa5       0x7b lib/libfastcv.a(libfastcv_la-fastcvMem.o)
 .rodata.str1.1
                0x00000000002a0b20     0x2cfd lib/libfastcv.a(libfastcv_la-fastcv.o)
                                       0x2d03 (size before relaxing)
 .rodata.str1.1
                0x00000000002a381d       0x88 lib/libfastcv.a(libfastcv_la-fastcvHW.o)
 .rodata.str1.1
                0x00000000002a38a5      0x18d lib/libfastcv.a(libfastcv_la-fastcvArithmC.o)
                                        0x1eb (size before relaxing)
 .rodata.str1.1
                0x00000000002a3a32       0xc2 lib/libfastcv.a(libfastcv_la-fastcvBGCodeBookC.o)
                                         0xde (size before relaxing)
 *fill*         0x00000000002a3af4        0x4 
 .rodata        0x00000000002a3af8        0xc lib/libfastcv.a(libfastcv_la-fastcvCalib3DC.o)
 .rodata.str1.1
                0x00000000002a3b04      0x626 lib/libfastcv.a(libfastcv_la-fastcvChannelC.o)
                                        0x642 (size before relaxing)
 .rodata.str1.1
                0x00000000002a412a       0x24 lib/libfastcv.a(libfastcv_la-fastcvColorC.o)
                                         0x40 (size before relaxing)
 *fill*         0x00000000002a414e        0x2 
 .rodata        0x00000000002a4150      0x400 lib/libfastcv.a(libfastcv_la-fastcvColorC.o)
                0x00000000002a4150                OneByxLUT
 .rodata.str1.1
                0x00000000002a4550       0x69 lib/libfastcv.a(libfastcv_la-fastcvContourC.o)
                                         0x85 (size before relaxing)
 .rodata.cst8   0x00000000002a45b9       0x10 lib/libfastcv.a(libfastcv_la-fastcvContourC.o)
 *fill*         0x00000000002a45c9        0x3 
 .rodata        0x00000000002a45cc      0x200 lib/libfastcv.a(libfastcv_la-fastcvDepthFusionC.o)
 .rodata        0x00000000002a47cc      0x1c2 lib/libfastcv.a(libfastcv_la-fastcvDescriptorC.o)
 .rodata.str1.1
                0x00000000002a498e       0x34 lib/libfastcv.a(libfastcv_la-fastcvDescriptorC.o)
                                         0x50 (size before relaxing)
 .rodata.str1.1
                0x00000000002a49c2       0x39 lib/libfastcv.a(libfastcv_la-fastcvGeomC.o)
                                         0x55 (size before relaxing)
 .rodata.str1.1
                0x00000000002a49fb       0x37 lib/libfastcv.a(libfastcv_la-fastcvHarrisC.o)
                                         0x53 (size before relaxing)
 .rodata.str1.1
                0x00000000002a4a32       0xea lib/libfastcv.a(libfastcv_la-fastcvHoughCircleC.o)
                                        0x182 (size before relaxing)
 .rodata.str1.1
                0x00000000002a4b1c       0x45 lib/libfastcv.a(libfastcv_la-fastcvHoughLineC.o)
                                         0x77 (size before relaxing)
 *fill*         0x00000000002a4b61        0xf 
 .rodata.cst32  0x00000000002a4b70       0x40 lib/libfastcv.a(libfastcv_la-fastcvHoughLineC.o)
 .rodata.str1.1
                0x00000000002a4bb0       0x3d lib/libfastcv.a(libfastcv_la-fastcvImageIntensityC.o)
 *fill*         0x00000000002a4bed        0x3 
 .rodata.cst16  0x00000000002a4bf0       0x20 lib/libfastcv.a(libfastcv_la-fastcvImageSegmentationC.o)
 .rodata.str1.1
                0x00000000002a4c10       0x3e lib/libfastcv.a(libfastcv_la-fastcvIntegrateImageC.o)
 .rodata.str1.1
                0x00000000002a4c4e       0x30 lib/libfastcv.a(libfastcv_la-fastcvIntegrateImageYuvC.o)
                                         0x4c (size before relaxing)
 *fill*         0x00000000002a4c7e        0x2 
 .rodata        0x00000000002a4c80      0x766 lib/libfastcv.a(libfastcv_la-fastcvIppScaleC.o)
                0x00000000002a4c80                mn_div_table
 .rodata.str1.1
                0x00000000002a53e6       0x3a lib/libfastcv.a(libfastcv_la-fastcvIppTransformC.o)
                                         0x56 (size before relaxing)
 .rodata.str1.1
                0x00000000002a5420       0xa8 lib/libfastcv.a(libfastcv_la-fastcvKDTree36s8f32C.o)
                                         0xda (size before relaxing)
 .rodata        0x00000000002a54c8       0xa0 lib/libfastcv.a(libfastcv_la-fastcvLBPC.o)
                0x00000000002a54c8                IND_T
                0x00000000002a54d8                SINTQ
                0x00000000002a5520                COSTQ
 .rodata.str1.1
                0x00000000002a5568      0x6d2 lib/libfastcv.a(libfastcv_la-fastcvMserFxpC.o)
                                        0x6ee (size before relaxing)
 *fill*         0x00000000002a5c3a        0x2 
 .rodata        0x00000000002a5c3c      0x400 lib/libfastcv.a(libfastcv_la-fastcvMserFxpC.o)
 .rodata.str1.1
                0x00000000002a603c      0x2ad lib/libfastcv.a(libfastcv_la-fastcvNCCPatchC.o)
                                        0x2c9 (size before relaxing)
 .rodata.str1.1
                0x00000000002a62e9       0x20 lib/libfastcv.a(libfastcv_la-fastcvScaleC.o)
                                         0x3c (size before relaxing)
 *fill*         0x00000000002a6309        0x3 
 .rodata.cst16  0x00000000002a630c       0x20 lib/libfastcv.a(libfastcv_la-fastcvScaleC.o)
 .rodata.str1.1
                0x00000000002a632c       0xba lib/libfastcv.a(libfastcv_la-fastcvSegmentMaskC.o)
                                         0xd6 (size before relaxing)
 *fill*         0x00000000002a63e6        0x2 
 .rodata        0x00000000002a63e8      0x56c lib/libfastcv.a(libfastcv_la-fastcvSmoothC.o)
                0x00000000002a63e8                colorWeight
                0x00000000002a67e8                spaceWeight55
                0x00000000002a681c                spaceWeight77
                0x00000000002a6890                spaceWeight99
 .rodata.str1.1
                0x00000000002a6954       0xa8 lib/libfastcv.a(libfastcv_la-fastcvSVDC.o)
                                         0xc4 (size before relaxing)
 .rodata.str1.1
                0x00000000002a69fc       0x3e lib/libfastcv.a(libfastcv_la-fastcvWarpC.o)
                                         0x5a (size before relaxing)
 .rodata.str1.1
                0x00000000002a6a3a       0x98 lib/libfastcv.a(libfastcv_la-fastcvHwAndroid.o)
                                         0xa4 (size before relaxing)
 .rodata.str1.1
                0x00000000002a6ad2      0x10a lib/libfastcv.a(libfastcv_la-fastcvRemoteLibAndroid.o)
                                        0x11a (size before relaxing)
 *fill*         0x00000000002a6bdc        0x4 
 .rodata.str1.16
                0x00000000002a6be0       0x1e lib/libfastcv.a(libfastcv_la-fastcvRemoteLibAndroid.o)
 *fill*         0x00000000002a6bfe        0x2 
 .rodata        0x00000000002a6c00     0x8800 lib/libfastcv.a(libfastcv_la-fastcvTrigonometricTable.o)
                0x00000000002a6c00                COSSINTABLE
                0x00000000002a7400                atan2fInt16
 .rodata.str1.1
                0x00000000002af400       0x2c lib/libfastcv.a(libfastcv_la-fastcvDotC.o)
                                         0x48 (size before relaxing)
 *fill*         0x00000000002af42c        0x4 
 .rodata        0x00000000002af430       0x4e lib/libfastcv.a(libfastcv_la-fastcvEdgeC.o)
 .rodata.str1.1
                0x00000000002af47e       0x27 lib/libfastcv.a(libfastcv_la-fastcvEdgeC.o)
                                         0x43 (size before relaxing)
 .rodata.str1.1
                0x00000000002af4a5       0x20 lib/libfastcv.a(libfastcv_la-fastcvFastC.o)
                                         0x3c (size before relaxing)
 *fill*         0x00000000002af4c5        0x3 
 .rodata.str4.4
                0x00000000002af4c8       0x1c lib/libfastcv.a(libfastcvAbsDiffV_la-fastcvAbsDiffV.o)
 .rodata        0x00000000002af4e4        0xc lib/libfastcv.a(libfastcvAbsDiffV_la-fastcvAbsDiffV.o)
 .rodata        0x00000000002af4f0      0x100 lib/libfastcv.a(libfastcvDescriptorV_la-fastcvDescriptorV.o)
 .rodata.str1.1
                0x00000000002af5f0       0x2f lib/libfastcv.a(libfastcvFast10V_la-fastcvFast10V.o)
                                         0x59 (size before relaxing)
 .rodata.str1.1
                0x00000000002af61f       0x2e lib/libfastcv.a(libfastcvFastV_la-fastcvFastV.o)
                                         0x5d (size before relaxing)
 *fill*         0x00000000002af64d        0x3 
 .rodata.cst32  0x00000000002af650       0x20 lib/libfastcv.a(libfastcvMeanShiftV_la-fastcvMeanShiftV.o)
 .rodata        0x00000000002af670       0x80 lib/libfastcv.a(libfastcvMeanShiftV_la-fastcvMeanShiftV.o)
 .rodata.cst16  0x00000000002af6f0       0x40 lib/libfastcv.a(libfastcvScaleV_la-fastcvScaleV.o)
 .rodata.str1.1
                0x00000000002af730       0x1b lib/libfastcv.a(libfastcvScaleV_la-fastcvScaleV.o)
                                         0x3e (size before relaxing)
 *fill*         0x00000000002af74b        0x5 
 .rodata.str1.16
                0x00000000002af750       0x20 lib/libfastcv.a(libfastcvScaleV_la-fastcvScaleV.o)
                                         0x19 (size before relaxing)
 .rodata.cst16  0x00000000002af770       0x20 lib/libfastcv.a(libfastcvWarpV_la-fastcvWarpV.o)
 .rodata.str1.1
                0x00000000002af790       0x90 lib/libfastcv.a(libfastcvWarpV_la-fastcvWarpV.o)
                                         0xba (size before relaxing)
 .rodata.str1.1
                0x00000000002af820       0x47 lib/libfastcv.a(libfastcvv_la-fastcvArithmV.o)
                                         0xe4 (size before relaxing)
 *fill*         0x00000000002af867        0x1 
 .rodata        0x00000000002af868        0xc lib/libfastcv.a(libfastcvv_la-fastcvCalib3DV.o)
 .rodata.str1.1
                0x00000000002af874       0x1d lib/libfastcv.a(libfastcvv_la-fastcvChannelV.o)
                                        0x343 (size before relaxing)
 *fill*         0x00000000002af891        0x1 
 .rodata        0x00000000002af892    0x24200 lib/libfastcv.a(libfastcvv_la-fastcvCopyV.o)
 .rodata.cst16  0x00000000002d3a92       0x10 lib/libfastcv.a(libfastcvv_la-fastcvCornerSubPixelV.o)
 *fill*         0x00000000002d3a92        0x2 
 .rodata.str4.4
                0x00000000002d3a94      0x200 lib/libfastcv.a(libfastcvv_la-fastcvDepthFusionV.o)
 *fill*         0x00000000002d3c94        0x4 
 .rodata        0x00000000002d3c98       0x4e lib/libfastcv.a(libfastcvv_la-fastcvEdgeV.o)
 *fill*         0x00000000002d3ce6        0x2 
 .rodata        0x00000000002d3ce8       0x10 lib/libfastcv.a(libfastcvv_la-fastcvHoughCircleV.o)
 .rodata        0x00000000002d3cf8       0x14 lib/libfastcv.a(libfastcvv_la-fastcvHoughLineV.o)
 .rodata.str1.1
                0x00000000002d3d0c       0x3d lib/libfastcv.a(libfastcvv_la-fastcvImageIntensityV.o)
 .rodata        0x00000000002d3d0c      0x100 lib/libfastcv.a(libfastcvv_la-fastcvIppScaleV.o)
 .rodata.str1.1
                0x00000000002d3e0c       0x2b lib/libfastcv.a(libfastcvv_la-fastcvMserFxpV.o)
                                         0xab (size before relaxing)
 .rodata.str1.1
                0x00000000002d3e37      0x1f6 lib/libfastcv.a(libfastcvv_la-fastcvNCCPatchV.o)
                                        0x3ba (size before relaxing)
 *fill*         0x00000000002d402d        0x3 
 .rodata.cst16  0x00000000002d4030       0x20 lib/libfastcv.a(libfastcvv_la-fastcvTransformV.o)
 .rodata        0x00000000002d4050      0x100 lib/libfastcv.a(libIlpsources_la-fastcvBitCntIlpC.o)
 .rodata.str1.1
                0x00000000002d4150       0x1a lib/libfastcv.a(libfastcvFast10C_la-fastcvFast10C.o)
                                         0x3e (size before relaxing)
 .rodata.str1.1
                0x00000000002d416a      0x125 lib/libfastcv.a(libfastcvPyramidC_la-fastcvPyramidC.o)
                                        0x141 (size before relaxing)
 *fill*         0x00000000002d428f        0x1 
 .rodata.cst16  0x00000000002d4290       0x10 lib/libfastcv.a(libfastcvPyramidC_la-fastcvPyramidC.o)
 .rodata        0x00000000002d42a0      0x248 lib/libfastcv.a(libfastcvBlurC_la-fastcvBlurC.o)
                0x00000000002d42a0                knl5x5
                0x00000000002d4304                knl11x11
 .rodata.str1.1
                0x00000000002d44e8       0x2d lib/libfastcv.a(libfastcvBlurC_la-fastcvBlurC.o)
                                         0x49 (size before relaxing)
 .rodata.str1.1
                0x00000000002d4515      0x3d6 lib/libfastcv.a(libfastcv_la-fastcvManager_.o)
                                        0x414 (size before relaxing)

.rodata1
 *(.rodata1)

.ARM.extab      0x00000000002d48ec      0x260
 *(.ARM.extab* .gnu.linkonce.armextab.*)
 .ARM.extab     0x00000000002d48ec        0x0 /media/ram/363029d1-6365-487a-b2e3-bd8d034c2ea4/fastcv/hexagondsp/Hexagon_SDK/3.5.2/tools/linaro/bin/../arm-linux-gnueabihf/libc/usr/lib/crt1.o
 .ARM.extab.text._ZN7cvflann7anyimpl14big_any_policyINS0_9empty_anyEED2Ev
                0x00000000002d48ec        0x0 UbuntuARM_Release/ImageEnhance.o
 .ARM.extab.text._ZN7cvflann7anyimpl16small_any_policyIPKcED2Ev
                0x00000000002d48ec        0x0 UbuntuARM_Release/ImageEnhance.o
 .ARM.extab.text._ZN7cvflann7anyimpl16small_any_policyIiED2Ev
                0x00000000002d48ec        0x0 UbuntuARM_Release/ImageEnhance.o
 .ARM.extab.text._ZN7cvflann7anyimpl16small_any_policyIfED2Ev
                0x00000000002d48ec        0x0 UbuntuARM_Release/ImageEnhance.o
 .ARM.extab.text._ZN7cvflann7anyimpl16small_any_policyIbED2Ev
                0x00000000002d48ec        0x0 UbuntuARM_Release/ImageEnhance.o
 .ARM.extab.text._ZN7cvflann7anyimpl14big_any_policyINS_17flann_algorithm_tEED2Ev
                0x00000000002d48ec        0x0 UbuntuARM_Release/ImageEnhance.o
 .ARM.extab.text._ZN7cvflann7anyimpl14big_any_policyINS_20flann_centers_init_tEED2Ev
                0x00000000002d48ec        0x0 UbuntuARM_Release/ImageEnhance.o
 .ARM.extab.text._ZN7cvflann7anyimpl16small_any_policyIjED2Ev
                0x00000000002d48ec        0x0 UbuntuARM_Release/ImageEnhance.o
 .ARM.extab.text._ZN7cvflann7anyimpl14big_any_policyIN2cv6StringEED2Ev
                0x00000000002d48ec        0x0 UbuntuARM_Release/ImageEnhance.o
 .ARM.extab.text._ZN7cvflann7anyimpl16small_any_policyIjE13static_deleteEPPv
                0x00000000002d48ec        0x0 UbuntuARM_Release/ImageEnhance.o
 .ARM.extab.text._ZN7cvflann7anyimpl16small_any_policyIjE15copy_from_valueEPKvPPv
                0x00000000002d48ec        0x0 UbuntuARM_Release/ImageEnhance.o
 .ARM.extab.text._ZN7cvflann7anyimpl16small_any_policyIjE5cloneEPKPvPS3_
                0x00000000002d48ec        0x0 UbuntuARM_Release/ImageEnhance.o
 .ARM.extab.text._ZN7cvflann7anyimpl16small_any_policyIjE4moveEPKPvPS3_
                0x00000000002d48ec        0x0 UbuntuARM_Release/ImageEnhance.o
 .ARM.extab.text._ZN7cvflann7anyimpl16small_any_policyIjE9get_valueEPPv
                0x00000000002d48ec        0x0 UbuntuARM_Release/ImageEnhance.o
 .ARM.extab.text._ZN7cvflann7anyimpl16small_any_policyIjE9get_valueEPKPv
                0x00000000002d48ec        0x0 UbuntuARM_Release/ImageEnhance.o
 .ARM.extab.text._ZN7cvflann7anyimpl21typed_base_any_policyIjE8get_sizeEv
                0x00000000002d48ec        0x0 UbuntuARM_Release/ImageEnhance.o
 .ARM.extab.text._ZN7cvflann7anyimpl21typed_base_any_policyIjE4typeEv
                0x00000000002d48ec        0x0 UbuntuARM_Release/ImageEnhance.o
 .ARM.extab.text._ZN7cvflann7anyimpl16small_any_policyIbE13static_deleteEPPv
                0x00000000002d48ec        0x0 UbuntuARM_Release/ImageEnhance.o
 .ARM.extab.text._ZN7cvflann7anyimpl16small_any_policyIbE15copy_from_valueEPKvPPv
                0x00000000002d48ec        0x0 UbuntuARM_Release/ImageEnhance.o
 .ARM.extab.text._ZN7cvflann7anyimpl16small_any_policyIbE5cloneEPKPvPS3_
                0x00000000002d48ec        0x0 UbuntuARM_Release/ImageEnhance.o
 .ARM.extab.text._ZN7cvflann7anyimpl16small_any_policyIbE4moveEPKPvPS3_
                0x00000000002d48ec        0x0 UbuntuARM_Release/ImageEnhance.o
 .ARM.extab.text._ZN7cvflann7anyimpl16small_any_policyIbE9get_valueEPPv
                0x00000000002d48ec        0x0 UbuntuARM_Release/ImageEnhance.o
 .ARM.extab.text._ZN7cvflann7anyimpl16small_any_policyIbE9get_valueEPKPv
                0x00000000002d48ec        0x0 UbuntuARM_Release/ImageEnhance.o
 .ARM.extab.text._ZN7cvflann7anyimpl21typed_base_any_policyIbE8get_sizeEv
                0x00000000002d48ec        0x0 UbuntuARM_Release/ImageEnhance.o
 .ARM.extab.text._ZN7cvflann7anyimpl21typed_base_any_policyIbE4typeEv
                0x00000000002d48ec        0x0 UbuntuARM_Release/ImageEnhance.o
 .ARM.extab.text._ZN7cvflann7anyimpl16small_any_policyIfE13static_deleteEPPv
                0x00000000002d48ec        0x0 UbuntuARM_Release/ImageEnhance.o
 .ARM.extab.text._ZN7cvflann7anyimpl16small_any_policyIfE15copy_from_valueEPKvPPv
                0x00000000002d48ec        0x0 UbuntuARM_Release/ImageEnhance.o
 .ARM.extab.text._ZN7cvflann7anyimpl16small_any_policyIfE5cloneEPKPvPS3_
                0x00000000002d48ec        0x0 UbuntuARM_Release/ImageEnhance.o
 .ARM.extab.text._ZN7cvflann7anyimpl16small_any_policyIfE4moveEPKPvPS3_
                0x00000000002d48ec        0x0 UbuntuARM_Release/ImageEnhance.o
 .ARM.extab.text._ZN7cvflann7anyimpl16small_any_policyIfE9get_valueEPPv
                0x00000000002d48ec        0x0 UbuntuARM_Release/ImageEnhance.o
 .ARM.extab.text._ZN7cvflann7anyimpl16small_any_policyIfE9get_valueEPKPv
                0x00000000002d48ec        0x0 UbuntuARM_Release/ImageEnhance.o
 .ARM.extab.text._ZN7cvflann7anyimpl21typed_base_any_policyIfE8get_sizeEv
                0x00000000002d48ec        0x0 UbuntuARM_Release/ImageEnhance.o
 .ARM.extab.text._ZN7cvflann7anyimpl21typed_base_any_policyIfE4typeEv
                0x00000000002d48ec        0x0 UbuntuARM_Release/ImageEnhance.o
 .ARM.extab.text._ZN7cvflann7anyimpl16small_any_policyIiE13static_deleteEPPv
                0x00000000002d48ec        0x0 UbuntuARM_Release/ImageEnhance.o
 .ARM.extab.text._ZN7cvflann7anyimpl16small_any_policyIiE15copy_from_valueEPKvPPv
                0x00000000002d48ec        0x0 UbuntuARM_Release/ImageEnhance.o
 .ARM.extab.text._ZN7cvflann7anyimpl16small_any_policyIiE5cloneEPKPvPS3_
                0x00000000002d48ec        0x0 UbuntuARM_Release/ImageEnhance.o
 .ARM.extab.text._ZN7cvflann7anyimpl16small_any_policyIiE4moveEPKPvPS3_
                0x00000000002d48ec        0x0 UbuntuARM_Release/ImageEnhance.o
 .ARM.extab.text._ZN7cvflann7anyimpl16small_any_policyIiE9get_valueEPPv
                0x00000000002d48ec        0x0 UbuntuARM_Release/ImageEnhance.o
 .ARM.extab.text._ZN7cvflann7anyimpl16small_any_policyIiE9get_valueEPKPv
                0x00000000002d48ec        0x0 UbuntuARM_Release/ImageEnhance.o
 .ARM.extab.text._ZN7cvflann7anyimpl21typed_base_any_policyIiE8get_sizeEv
                0x00000000002d48ec        0x0 UbuntuARM_Release/ImageEnhance.o
 .ARM.extab.text._ZN7cvflann7anyimpl21typed_base_any_policyIiE4typeEv
                0x00000000002d48ec        0x0 UbuntuARM_Release/ImageEnhance.o
 .ARM.extab.text._ZN7cvflann7anyimpl16small_any_policyIPKcE13static_deleteEPPv
                0x00000000002d48ec        0x0 UbuntuARM_Release/ImageEnhance.o
 .ARM.extab.text._ZN7cvflann7anyimpl16small_any_policyIPKcE15copy_from_valueEPKvPPv
                0x00000000002d48ec        0x0 UbuntuARM_Release/ImageEnhance.o
 .ARM.extab.text._ZN7cvflann7anyimpl16small_any_policyIPKcE5cloneEPKPvPS5_
                0x00000000002d48ec        0x0 UbuntuARM_Release/ImageEnhance.o
 .ARM.extab.text._ZN7cvflann7anyimpl16small_any_policyIPKcE4moveEPKPvPS5_
                0x00000000002d48ec        0x0 UbuntuARM_Release/ImageEnhance.o
 .ARM.extab.text._ZN7cvflann7anyimpl16small_any_policyIPKcE9get_valueEPPv
                0x00000000002d48ec        0x0 UbuntuARM_Release/ImageEnhance.o
 .ARM.extab.text._ZN7cvflann7anyimpl16small_any_policyIPKcE9get_valueEPKPv
                0x00000000002d48ec        0x0 UbuntuARM_Release/ImageEnhance.o
 .ARM.extab.text._ZN7cvflann7anyimpl21typed_base_any_policyIPKcE8get_sizeEv
                0x00000000002d48ec        0x0 UbuntuARM_Release/ImageEnhance.o
 .ARM.extab.text._ZN7cvflann7anyimpl21typed_base_any_policyIPKcE4typeEv
                0x00000000002d48ec        0x0 UbuntuARM_Release/ImageEnhance.o
 .ARM.extab.text._ZN7cvflann7anyimpl14big_any_policyINS0_9empty_anyEE4moveEPKPvPS4_
                0x00000000002d48ec        0x0 UbuntuARM_Release/ImageEnhance.o
 .ARM.extab.text._ZN7cvflann7anyimpl14big_any_policyINS0_9empty_anyEE9get_valueEPPv
                0x00000000002d48ec        0x0 UbuntuARM_Release/ImageEnhance.o
 .ARM.extab.text._ZN7cvflann7anyimpl14big_any_policyINS0_9empty_anyEE9get_valueEPKPv
                0x00000000002d48ec        0x0 UbuntuARM_Release/ImageEnhance.o
 .ARM.extab.text._ZN7cvflann7anyimpl21typed_base_any_policyINS0_9empty_anyEE8get_sizeEv
                0x00000000002d48ec        0x0 UbuntuARM_Release/ImageEnhance.o
 .ARM.extab.text._ZN7cvflann7anyimpl21typed_base_any_policyINS0_9empty_anyEE4typeEv
                0x00000000002d48ec        0x0 UbuntuARM_Release/ImageEnhance.o
 .ARM.extab.text._ZN7cvflann7anyimpl14big_any_policyIN2cv6StringEE9get_valueEPPv
                0x00000000002d48ec        0x0 UbuntuARM_Release/ImageEnhance.o
 .ARM.extab.text._ZN7cvflann7anyimpl14big_any_policyIN2cv6StringEE9get_valueEPKPv
                0x00000000002d48ec        0x0 UbuntuARM_Release/ImageEnhance.o
 .ARM.extab.text._ZN7cvflann7anyimpl21typed_base_any_policyIN2cv6StringEE8get_sizeEv
                0x00000000002d48ec        0x0 UbuntuARM_Release/ImageEnhance.o
 .ARM.extab.text._ZN7cvflann7anyimpl21typed_base_any_policyIN2cv6StringEE4typeEv
                0x00000000002d48ec        0x0 UbuntuARM_Release/ImageEnhance.o
 .ARM.extab.text._ZN7cvflann7anyimpl14big_any_policyINS_17flann_algorithm_tEE4moveEPKPvPS4_
                0x00000000002d48ec        0x0 UbuntuARM_Release/ImageEnhance.o
 .ARM.extab.text._ZN7cvflann7anyimpl14big_any_policyINS_17flann_algorithm_tEE9get_valueEPPv
                0x00000000002d48ec        0x0 UbuntuARM_Release/ImageEnhance.o
 .ARM.extab.text._ZN7cvflann7anyimpl14big_any_policyINS_17flann_algorithm_tEE9get_valueEPKPv
                0x00000000002d48ec        0x0 UbuntuARM_Release/ImageEnhance.o
 .ARM.extab.text._ZN7cvflann7anyimpl21typed_base_any_policyINS_17flann_algorithm_tEE8get_sizeEv
                0x00000000002d48ec        0x0 UbuntuARM_Release/ImageEnhance.o
 .ARM.extab.text._ZN7cvflann7anyimpl21typed_base_any_policyINS_17flann_algorithm_tEE4typeEv
                0x00000000002d48ec        0x0 UbuntuARM_Release/ImageEnhance.o
 .ARM.extab.text._ZN7cvflann7anyimpl14big_any_policyINS_20flann_centers_init_tEE4moveEPKPvPS4_
                0x00000000002d48ec        0x0 UbuntuARM_Release/ImageEnhance.o
 .ARM.extab.text._ZN7cvflann7anyimpl14big_any_policyINS_20flann_centers_init_tEE9get_valueEPPv
                0x00000000002d48ec        0x0 UbuntuARM_Release/ImageEnhance.o
 .ARM.extab.text._ZN7cvflann7anyimpl14big_any_policyINS_20flann_centers_init_tEE9get_valueEPKPv
                0x00000000002d48ec        0x0 UbuntuARM_Release/ImageEnhance.o
 .ARM.extab.text._ZN7cvflann7anyimpl21typed_base_any_policyINS_20flann_centers_init_tEE8get_sizeEv
                0x00000000002d48ec        0x0 UbuntuARM_Release/ImageEnhance.o
 .ARM.extab.text._ZN7cvflann7anyimpl21typed_base_any_policyINS_20flann_centers_init_tEE4typeEv
                0x00000000002d48ec        0x0 UbuntuARM_Release/ImageEnhance.o
 .ARM.extab.text._ZN7cvflann7anyimpl14big_any_policyINS_20flann_centers_init_tEE5cloneEPKPvPS4_
                0x00000000002d48ec        0x0 UbuntuARM_Release/ImageEnhance.o
 .ARM.extab.text._ZN7cvflann7anyimpl14big_any_policyINS_20flann_centers_init_tEE15copy_from_valueEPKvPPv
                0x00000000002d48ec        0x0 UbuntuARM_Release/ImageEnhance.o
 .ARM.extab.text._ZN7cvflann7anyimpl14big_any_policyINS_17flann_algorithm_tEE5cloneEPKPvPS4_
                0x00000000002d48ec        0x0 UbuntuARM_Release/ImageEnhance.o
 .ARM.extab.text._ZN7cvflann7anyimpl14big_any_policyINS_17flann_algorithm_tEE15copy_from_valueEPKvPPv
                0x00000000002d48ec        0x0 UbuntuARM_Release/ImageEnhance.o
 .ARM.extab.text._ZN7cvflann7anyimpl14big_any_policyINS0_9empty_anyEE5cloneEPKPvPS4_
                0x00000000002d48ec        0x0 UbuntuARM_Release/ImageEnhance.o
 .ARM.extab.text._ZN7cvflann7anyimpl14big_any_policyINS0_9empty_anyEE15copy_from_valueEPKvPPv
                0x00000000002d48ec        0x0 UbuntuARM_Release/ImageEnhance.o
 .ARM.extab.text._ZN7cvflann7anyimpl14big_any_policyIN2cv6StringEE5cloneEPKPvPS5_
                0x00000000002d48ec        0x0 UbuntuARM_Release/ImageEnhance.o
 .ARM.extab.text._ZN7cvflann7anyimpl14big_any_policyIN2cv6StringEE15copy_from_valueEPKvPPv
                0x00000000002d48ec        0x0 UbuntuARM_Release/ImageEnhance.o
 .ARM.extab.text._ZN7cvflann7anyimpl14big_any_policyINS_20flann_centers_init_tEE13static_deleteEPPv
                0x00000000002d48ec        0x0 UbuntuARM_Release/ImageEnhance.o
 .ARM.extab.text._ZN7cvflann7anyimpl14big_any_policyINS_17flann_algorithm_tEE13static_deleteEPPv
                0x00000000002d48ec        0x0 UbuntuARM_Release/ImageEnhance.o
 .ARM.extab.text._ZN7cvflann7anyimpl14big_any_policyINS0_9empty_anyEE13static_deleteEPPv
                0x00000000002d48ec        0x0 UbuntuARM_Release/ImageEnhance.o
 .ARM.extab.text._ZN7cvflann7anyimpl14big_any_policyINS0_9empty_anyEED0Ev
                0x00000000002d48ec        0x0 UbuntuARM_Release/ImageEnhance.o
 .ARM.extab.text._ZN7cvflann7anyimpl16small_any_policyIPKcED0Ev
                0x00000000002d48ec        0x0 UbuntuARM_Release/ImageEnhance.o
 .ARM.extab.text._ZN7cvflann7anyimpl16small_any_policyIiED0Ev
                0x00000000002d48ec        0x0 UbuntuARM_Release/ImageEnhance.o
 .ARM.extab.text._ZN7cvflann7anyimpl16small_any_policyIfED0Ev
                0x00000000002d48ec        0x0 UbuntuARM_Release/ImageEnhance.o
 .ARM.extab.text._ZN7cvflann7anyimpl16small_any_policyIbED0Ev
                0x00000000002d48ec        0x0 UbuntuARM_Release/ImageEnhance.o
 .ARM.extab.text._ZN7cvflann7anyimpl14big_any_policyINS_17flann_algorithm_tEED0Ev
                0x00000000002d48ec        0x0 UbuntuARM_Release/ImageEnhance.o
 .ARM.extab.text._ZN7cvflann7anyimpl14big_any_policyINS_20flann_centers_init_tEED0Ev
                0x00000000002d48ec        0x0 UbuntuARM_Release/ImageEnhance.o
 .ARM.extab.text._ZN7cvflann7anyimpl16small_any_policyIjED0Ev
                0x00000000002d48ec        0x0 UbuntuARM_Release/ImageEnhance.o
 .ARM.extab.text._ZN7cvflann7anyimpl14big_any_policyIN2cv6StringEED0Ev
                0x00000000002d48ec        0x0 UbuntuARM_Release/ImageEnhance.o
 .ARM.extab.text._ZN7cvflann7anyimpl14big_any_policyIN2cv6StringEE13static_deleteEPPv
                0x00000000002d48ec        0xc UbuntuARM_Release/ImageEnhance.o
 .ARM.extab.text._ZN7cvflann7anyimpl16small_any_policyIjE5printERSoPKPv
                0x00000000002d48f8        0x0 UbuntuARM_Release/ImageEnhance.o
 .ARM.extab.text._ZN7cvflann7anyimpl14big_any_policyINS_20flann_centers_init_tEE5printERSoPKPv
                0x00000000002d48f8        0x0 UbuntuARM_Release/ImageEnhance.o
 .ARM.extab.text._ZN7cvflann7anyimpl14big_any_policyINS_17flann_algorithm_tEE5printERSoPKPv
                0x00000000002d48f8        0x0 UbuntuARM_Release/ImageEnhance.o
 .ARM.extab.text._ZN7cvflann7anyimpl16small_any_policyIiE5printERSoPKPv
                0x00000000002d48f8        0x0 UbuntuARM_Release/ImageEnhance.o
 .ARM.extab.text._ZN7cvflann7anyimpl16small_any_policyIbE5printERSoPKPv
                0x00000000002d48f8        0x0 UbuntuARM_Release/ImageEnhance.o
 .ARM.extab.text._ZN7cvflann7anyimpl16small_any_policyIfE5printERSoPKPv
                0x00000000002d48f8        0x0 UbuntuARM_Release/ImageEnhance.o
 .ARM.extab.text._ZN7cvflann7anyimpl14big_any_policyIN2cv6StringEE4moveEPKPvPS5_
                0x00000000002d48f8       0x10 UbuntuARM_Release/ImageEnhance.o
 .ARM.extab.text._ZN7cvflann7anyimpl14big_any_policyIN2cv6StringEE5printERSoPKPv
                0x00000000002d4908        0x0 UbuntuARM_Release/ImageEnhance.o
 .ARM.extab.text._ZN7cvflann7anyimpl14big_any_policyINS0_9empty_anyEE5printERSoPKPv
                0x00000000002d4908        0x0 UbuntuARM_Release/ImageEnhance.o
 .ARM.extab.text._ZN7cvflann7anyimpl16small_any_policyIPKcE5printERSoPKPv
                0x00000000002d4908        0x0 UbuntuARM_Release/ImageEnhance.o
 .ARM.extab.text._ZN2cv3MatC2ERKS0_
                0x00000000002d4908        0x0 UbuntuARM_Release/ImageEnhance.o
 .ARM.extab.text._ZN2cv3MatD2Ev
                0x00000000002d4908        0xc UbuntuARM_Release/ImageEnhance.o
 .ARM.extab.text._ZN2cv3MataSEOS0_
                0x00000000002d4914        0x0 UbuntuARM_Release/ImageEnhance.o
 .ARM.extab     0x00000000002d4914      0x11b UbuntuARM_Release/ImageEnhance.o
 *fill*         0x00000000002d4a2f        0x1 
 .ARM.extab.text._ZNSt6vectorIN2cv3MatESaIS1_EED2Ev
                0x00000000002d4a30        0xc UbuntuARM_Release/ImageEnhance.o
 .ARM.extab.text._ZNSt6vectorIN2cv3MatESaIS1_EE17_M_realloc_insertIJRKS1_EEEvN9__gnu_cxx17__normal_iteratorIPS1_S3_EEDpOT_
                0x00000000002d4a3c       0x48 UbuntuARM_Release/ImageEnhance.o
 .ARM.extab.text.startup
                0x00000000002d4a84       0xc8 UbuntuARM_Release/ImageEnhance.o
 .ARM.extab     0x00000000002d4b4c        0x0 lib/libfastcv.a(libfastcv_la-fastcvManager.o)
 .ARM.extab     0x00000000002d4b4c        0x0 lib/libfastcv.a(libfastcv_la-fastcvMemAndroid.o)
 .ARM.extab     0x00000000002d4b4c        0x0 lib/libfastcv.a(libfastcv_la-fastcvMem.o)
 .ARM.extab     0x00000000002d4b4c        0x0 lib/libfastcv.a(libfastcv_la-fastcv.o)
 .ARM.extab     0x00000000002d4b4c        0x0 lib/libfastcv.a(libfastcv_la-fastcvHeapStats.o)
 .ARM.extab     0x00000000002d4b4c        0x0 lib/libfastcv.a(libfastcv_la-fastcvHelper.o)
 .ARM.extab     0x00000000002d4b4c        0x0 lib/libfastcv.a(libfastcv_la-fastcvHW.o)
 .ARM.extab     0x00000000002d4b4c        0x0 lib/libfastcv.a(libfastcv_la-fastcvAbsDiffC.o)
 .ARM.extab     0x00000000002d4b4c        0x0 lib/libfastcv.a(libfastcv_la-fastcvAdaptiveThresholdC.o)
 .ARM.extab     0x00000000002d4b4c        0x0 lib/libfastcv.a(libfastcv_la-fastcvAffineC.o)
 .ARM.extab     0x00000000002d4b4c        0x0 lib/libfastcv.a(libfastcv_la-fastcvArithmC.o)
 .ARM.extab     0x00000000002d4b4c        0x0 lib/libfastcv.a(libfastcv_la-fastcvAverageC.o)
 .ARM.extab     0x00000000002d4b4c        0x0 lib/libfastcv.a(libfastcv_la-fastcvBGCodeBookC.o)
 .ARM.extab     0x00000000002d4b4c        0x0 lib/libfastcv.a(libfastcv_la-fastcvBitCntC.o)
 .ARM.extab     0x00000000002d4b4c        0x0 lib/libfastcv.a(libfastcv_la-fastcvBitwiseOpC.o)
 .ARM.extab     0x00000000002d4b4c        0x0 lib/libfastcv.a(libfastcv_la-fastcvCalib3DC.o)
 .ARM.extab     0x00000000002d4b4c        0x0 lib/libfastcv.a(libfastcv_la-fastcvCalibrateC.o)
 .ARM.extab     0x00000000002d4b4c        0x0 lib/libfastcv.a(libfastcv_la-fastcvChannelC.o)
 .ARM.extab     0x00000000002d4b4c        0x0 lib/libfastcv.a(libfastcv_la-fastcvColor2C.o)
 .ARM.extab     0x00000000002d4b4c        0x0 lib/libfastcv.a(libfastcv_la-fastcvColorC.o)
 .ARM.extab     0x00000000002d4b4c        0x0 lib/libfastcv.a(libfastcv_la-fastcvColorPpfYuvUtilsC.o)
 .ARM.extab     0x00000000002d4b4c        0x0 lib/libfastcv.a(libfastcv_la-fastcvColorRgb2LabC.o)
 .ARM.extab     0x00000000002d4b4c        0x0 lib/libfastcv.a(libfastcv_la-fastcvColorRgb2YuvC.o)
 .ARM.extab     0x00000000002d4b4c        0x0 lib/libfastcv.a(libfastcv_la-fastcvColorRgbConversionC.o)
 .ARM.extab     0x00000000002d4b4c        0x0 lib/libfastcv.a(libfastcv_la-fastcvColorYuvConversionC.o)
 .ARM.extab     0x00000000002d4b4c        0x0 lib/libfastcv.a(libfastcv_la-fastcvContourC.o)
 .ARM.extab     0x00000000002d4b4c        0x0 lib/libfastcv.a(libfastcv_la-fastcvCopyC.o)
 .ARM.extab     0x00000000002d4b4c        0x0 lib/libfastcv.a(libfastcv_la-fastcvCornerSubPixelC.o)
 .ARM.extab     0x00000000002d4b4c        0x0 lib/libfastcv.a(libfastcv_la-fastcvDepthFusionC.o)
 .ARM.extab     0x00000000002d4b4c        0x0 lib/libfastcv.a(libfastcv_la-fastcvDescriptor2C.o)
 .ARM.extab     0x00000000002d4b4c        0x0 lib/libfastcv.a(libfastcv_la-fastcvDescriptorC.o)
 .ARM.extab     0x00000000002d4b4c        0x0 lib/libfastcv.a(libfastcv_la-fastcvEucldeanC.o)
 .ARM.extab     0x00000000002d4b4c        0x0 lib/libfastcv.a(libfastcv_la-fastcvFloodFillC.o)
 .ARM.extab     0x00000000002d4b4c        0x0 lib/libfastcv.a(libfastcv_la-fastcvGeomC.o)
 .ARM.extab     0x00000000002d4b4c        0x0 lib/libfastcv.a(libfastcv_la-fastcvHarrisC.o)
 .ARM.extab     0x00000000002d4b4c        0x0 lib/libfastcv.a(libfastcv_la-fastcvHOGC.o)
 .ARM.extab     0x00000000002d4b4c        0x0 lib/libfastcv.a(libfastcv_la-fastcvHoughCircleC.o)
 .ARM.extab     0x00000000002d4b4c        0x0 lib/libfastcv.a(libfastcv_la-fastcvHoughLineC.o)
 .ARM.extab     0x00000000002d4b4c        0x0 lib/libfastcv.a(libfastcv_la-fastcvImageDiffC.o)
 .ARM.extab     0x00000000002d4b4c        0x0 lib/libfastcv.a(libfastcv_la-fastcvImageIntensityC.o)
 .ARM.extab     0x00000000002d4b4c        0x0 lib/libfastcv.a(libfastcv_la-fastcvImagePostProcC.o)
 .ARM.extab     0x00000000002d4b4c        0x0 lib/libfastcv.a(libfastcv_la-fastcvImageSegmentationC.o)
 .ARM.extab     0x00000000002d4b4c        0x0 lib/libfastcv.a(libfastcv_la-fastcvIntegrateImageC.o)
 .ARM.extab     0x00000000002d4b4c        0x0 lib/libfastcv.a(libfastcv_la-fastcvIntegrateImageYuvC.o)
 .ARM.extab     0x00000000002d4b4c        0x0 lib/libfastcv.a(libfastcv_la-fastcvIppScaleC.o)
 .ARM.extab     0x00000000002d4b4c        0x0 lib/libfastcv.a(libfastcv_la-fastcvIppTransformC.o)
 .ARM.extab     0x00000000002d4b4c        0x0 lib/libfastcv.a(libfastcv_la-fastcvKDTree36s8f32C.o)
 .ARM.extab     0x00000000002d4b4c        0x0 lib/libfastcv.a(libfastcv_la-fastcvKMeansTreeSearchC.o)
 .ARM.extab     0x00000000002d4b4c        0x0 lib/libfastcv.a(libfastcv_la-fastcvLBPC.o)
 .ARM.extab     0x00000000002d4b4c        0x0 lib/libfastcv.a(libfastcv_la-fastcvLinearSearchC.o)
 .ARM.extab     0x00000000002d4b4c        0x0 lib/libfastcv.a(libfastcv_la-fastcvMotionHistoryC.o)
 .ARM.extab     0x00000000002d4b4c        0x0 lib/libfastcv.a(libfastcv_la-fastcvMserFxpC.o)
 .ARM.extab     0x00000000002d4b4c        0x0 lib/libfastcv.a(libfastcv_la-fastcvNCCPatchC.o)
 .ARM.extab     0x00000000002d4b4c        0x0 lib/libfastcv.a(libfastcv_la-fastcvPolygonC.o)
 .ARM.extab     0x00000000002d4b4c        0x0 lib/libfastcv.a(libfastcv_la-fastcvRemapC.o)
 .ARM.extab     0x00000000002d4b4c        0x0 lib/libfastcv.a(libfastcv_la-fastcvSADC.o)
 .ARM.extab     0x00000000002d4b4c        0x0 lib/libfastcv.a(libfastcv_la-fastcvScaleC.o)
 .ARM.extab     0x00000000002d4b4c        0x0 lib/libfastcv.a(libfastcv_la-fastcvSegmentMaskC.o)
 .ARM.extab.text.invert_newton_64
                0x00000000002d4b4c        0x0 lib/libfastcv.a(libfastcv_la-fastcvSegmentMaskC.o)
 .ARM.extab     0x00000000002d4b4c        0x0 lib/libfastcv.a(libfastcv_la-fastcvSetC.o)
 .ARM.extab     0x00000000002d4b4c        0x0 lib/libfastcv.a(libfastcv_la-fastcvSmoothC.o)
 .ARM.extab     0x00000000002d4b4c        0x0 lib/libfastcv.a(libfastcv_la-fastcvSolveC.o)
 .ARM.extab     0x00000000002d4b4c        0x0 lib/libfastcv.a(libfastcv_la-fastcvSVDC.o)
 .ARM.extab     0x00000000002d4b4c        0x0 lib/libfastcv.a(libfastcv_la-fastcvSVMPredictC.o)
 .ARM.extab     0x00000000002d4b4c        0x0 lib/libfastcv.a(libfastcv_la-fastcvTrackC.o)
 .ARM.extab     0x00000000002d4b4c        0x0 lib/libfastcv.a(libfastcv_la-fastcvTransformC.o)
 .ARM.extab.text.L_cmult32x16
                0x00000000002d4b4c        0x0 lib/libfastcv.a(libfastcv_la-fastcvTransformC.o)
 .ARM.extab     0x00000000002d4b4c        0x0 lib/libfastcv.a(libfastcv_la-fastcvUpsampleC.o)
 .ARM.extab     0x00000000002d4b4c        0x0 lib/libfastcv.a(libfastcv_la-fastcvVectorC.o)
 .ARM.extab     0x00000000002d4b4c        0x0 lib/libfastcv.a(libfastcv_la-fastcvWarpC.o)
 .ARM.extab.text._Z16samplePixCheckedPKhjRK5Vec2X
                0x00000000002d4b4c        0x0 lib/libfastcv.a(libfastcv_la-fastcvWarpC.o)
 .ARM.extab     0x00000000002d4b4c        0x0 lib/libfastcv.a(libfastcv_la-fastcvHwAndroid.o)
 .ARM.extab     0x00000000002d4b4c        0x0 lib/libfastcv.a(libfastcv_la-fastcvRemoteLibAndroid.o)
 .ARM.extab     0x00000000002d4b4c        0x0 lib/libfastcv.a(libfastcv_la-fastcvDotC.o)
 .ARM.extab     0x00000000002d4b4c        0x0 lib/libfastcv.a(libfastcv_la-fastcvEdgeC.o)
 .ARM.extab     0x00000000002d4b4c        0x0 lib/libfastcv.a(libfastcv_la-fastcvFastC.o)
 .ARM.extab     0x00000000002d4b4c        0x0 lib/libfastcv.a(libfastcv_la-fastcvRectangleC.o)
 .ARM.extab     0x00000000002d4b4c        0x0 lib/libfastcv.a(libfastcv_la-fastcvSSDC.o)
 .ARM.extab     0x00000000002d4b4c        0x0 lib/libfastcv.a(libfastcvAbsDiffV_la-fastcvAbsDiffV.o)
 .ARM.extab     0x00000000002d4b4c        0x0 lib/libfastcv.a(libfastcvAdaptiveThresholdV_la-fastcvAdaptiveThresholdV.o)
 .ARM.extab     0x00000000002d4b4c        0x0 lib/libfastcv.a(libfastcvBlurV_la-fastcvBlurV.o)
 .ARM.extab     0x00000000002d4b4c        0x0 lib/libfastcv.a(libfastcvDescriptorV_la-fastcvDescriptorV.o)
 .ARM.extab     0x00000000002d4b4c        0x0 lib/libfastcv.a(libfastcvDotV_la-fastcvDotV.o)
 .ARM.extab     0x00000000002d4b4c        0x0 lib/libfastcv.a(libfastcvFast10V_la-fastcvFast10V.o)
 .ARM.extab     0x00000000002d4b4c        0x0 lib/libfastcv.a(libfastcvFastV_la-fastcvFastV.o)
 .ARM.extab     0x00000000002d4b4c        0x0 lib/libfastcv.a(libfastcvFilter1V_la-fastcvFilter1V.o)
 .ARM.extab     0x00000000002d4b4c        0x0 lib/libfastcv.a(libfastcvFilterV_la-fastcvFilterV.o)
 .ARM.extab     0x00000000002d4b4c        0x0 lib/libfastcv.a(libfastcvMeanShiftV_la-fastcvMeanShiftV.o)
 .ARM.extab     0x00000000002d4b4c        0x0 lib/libfastcv.a(libfastcvSVDV_la-fastcvSVDV.o)
 .ARM.extab     0x00000000002d4b4c        0x0 lib/libfastcv.a(libfastcvScaleV_la-fastcvScaleV.o)
 .ARM.extab     0x00000000002d4b4c        0x0 lib/libfastcv.a(libfastcvWarpV_la-fastcvWarpV.o)
 .ARM.extab     0x00000000002d4b4c        0x0 lib/libfastcv.a(libfastcvv_la-fastcvAffineV1.o)
 .ARM.extab     0x00000000002d4b4c        0x0 lib/libfastcv.a(libfastcvv_la-fastcvArithmV.o)
 .ARM.extab     0x00000000002d4b4c        0x0 lib/libfastcv.a(libfastcvv_la-fastcvAverageV.o)
 .ARM.extab     0x00000000002d4b4c        0x0 lib/libfastcv.a(libfastcvv_la-fastcvBitCntWrapV.o)
 .ARM.extab     0x00000000002d4b4c        0x0 lib/libfastcv.a(libfastcvv_la-fastcvBitwiseOpV.o)
 .ARM.extab     0x00000000002d4b4c        0x0 lib/libfastcv.a(libfastcvv_la-fastcvBoundingRectV.o)
 .ARM.extab     0x00000000002d4b4c        0x0 lib/libfastcv.a(libfastcvv_la-fastcvCalib3DV.o)
 .ARM.extab     0x00000000002d4b4c        0x0 lib/libfastcv.a(libfastcvv_la-fastcvCalibrateV1.o)
 .ARM.extab     0x00000000002d4b4c        0x0 lib/libfastcv.a(libfastcvv_la-fastcvChannelV.o)
 .ARM.extab     0x00000000002d4b4c        0x0 lib/libfastcv.a(libfastcvv_la-fastcvColorPpfYuvUtilsV.o)
 .ARM.extab     0x00000000002d4b4c        0x0 lib/libfastcv.a(libfastcvv_la-fastcvColorRgb2LabV.o)
 .ARM.extab     0x00000000002d4b4c        0x0 lib/libfastcv.a(libfastcvv_la-fastcvColorRgb2YuvV.o)
 .ARM.extab     0x00000000002d4b4c        0x0 lib/libfastcv.a(libfastcvv_la-fastcvColorRgbConversionV.o)
 .ARM.extab     0x00000000002d4b4c        0x0 lib/libfastcv.a(libfastcvv_la-fastcvColorV.o)
 .ARM.extab     0x00000000002d4b4c        0x0 lib/libfastcv.a(libfastcvv_la-fastcvColorYuvConversionV.o)
 .ARM.extab     0x00000000002d4b4c        0x0 lib/libfastcv.a(libfastcvv_la-fastcvContourV.o)
 .ARM.extab     0x00000000002d4b4c        0x0 lib/libfastcv.a(libfastcvv_la-fastcvCopyV.o)
 .ARM.extab     0x00000000002d4b4c        0x0 lib/libfastcv.a(libfastcvv_la-fastcvCornerSubPixelV.o)
 .ARM.extab     0x00000000002d4b4c        0x0 lib/libfastcv.a(libfastcvv_la-fastcvDepthFusionV.o)
 .ARM.extab     0x00000000002d4b4c        0x0 lib/libfastcv.a(libfastcvv_la-fastcvDescriptor2V.o)
 .ARM.extab     0x00000000002d4b4c        0x0 lib/libfastcv.a(libfastcvv_la-fastcvEdgeV.o)
 .ARM.extab     0x00000000002d4b4c        0x0 lib/libfastcv.a(libfastcvv_la-fastcvEucldeanV.o)
 .ARM.extab     0x00000000002d4b4c        0x0 lib/libfastcv.a(libfastcvv_la-fastcvFloodFillV.o)
 .ARM.extab     0x00000000002d4b4c        0x0 lib/libfastcv.a(libfastcvv_la-fastcvGeomV.o)
 .ARM.extab     0x00000000002d4b4c        0x0 lib/libfastcv.a(libfastcvv_la-fastcvHOGV.o)
 .ARM.extab     0x00000000002d4b4c        0x0 lib/libfastcv.a(libfastcvv_la-fastcvHarrisV.o)
 .ARM.extab     0x00000000002d4b4c        0x0 lib/libfastcv.a(libfastcvv_la-fastcvHomographyV.o)
 .ARM.extab     0x00000000002d4b4c        0x0 lib/libfastcv.a(libfastcvv_la-fastcvHoughCircleV.o)
 .ARM.extab     0x00000000002d4b4c        0x0 lib/libfastcv.a(libfastcvv_la-fastcvHoughLineV.o)
 .ARM.extab     0x00000000002d4b4c        0x0 lib/libfastcv.a(libfastcvv_la-fastcvImageDiffV.o)
 .ARM.extab     0x00000000002d4b4c        0x0 lib/libfastcv.a(libfastcvv_la-fastcvImageIntensityV.o)
 .ARM.extab     0x00000000002d4b4c        0x0 lib/libfastcv.a(libfastcvv_la-fastcvImagePostProcV.o)
 .ARM.extab     0x00000000002d4b4c        0x0 lib/libfastcv.a(libfastcvv_la-fastcvIntegrateImageV.o)
 .ARM.extab     0x00000000002d4b4c        0x0 lib/libfastcv.a(libfastcvv_la-fastcvIntegrateImageYuvV.o)
 .ARM.extab     0x00000000002d4b4c        0x0 lib/libfastcv.a(libfastcvv_la-fastcvIppScaleV.o)
 .ARM.extab     0x00000000002d4b4c        0x0 lib/libfastcv.a(libfastcvv_la-fastcvIppTransformV.o)
 .ARM.extab     0x00000000002d4b4c        0x0 lib/libfastcv.a(libfastcvv_la-fastcvLBPV.o)
 .ARM.extab     0x00000000002d4b4c        0x0 lib/libfastcv.a(libfastcvv_la-fastcvMotionHistoryV.o)
 .ARM.extab     0x00000000002d4b4c        0x0 lib/libfastcv.a(libfastcvv_la-fastcvMserFxpV.o)
 .ARM.extab     0x00000000002d4b4c        0x0 lib/libfastcv.a(libfastcvv_la-fastcvNCCPatchV.o)
 .ARM.extab     0x00000000002d4b4c        0x0 lib/libfastcv.a(libfastcvv_la-fastcvPolygonV.o)
 .ARM.extab     0x00000000002d4b4c        0x0 lib/libfastcv.a(libfastcvv_la-fastcvPyramidV.o)
 .ARM.extab     0x00000000002d4b4c        0x0 lib/libfastcv.a(libfastcvv_la-fastcvRemapV.o)
 .ARM.extab     0x00000000002d4b4c        0x0 lib/libfastcv.a(libfastcvv_la-fastcvSADV.o)
 .ARM.extab     0x00000000002d4b4c        0x0 lib/libfastcv.a(libfastcvv_la-fastcvSSDV.o)
 .ARM.extab     0x00000000002d4b4c        0x0 lib/libfastcv.a(libfastcvv_la-fastcvSVMPredictV.o)
 .ARM.extab     0x00000000002d4b4c        0x0 lib/libfastcv.a(libfastcvv_la-fastcvSetV.o)
 .ARM.extab     0x00000000002d4b4c        0x0 lib/libfastcv.a(libfastcvv_la-fastcvSmoothV.o)
 .ARM.extab     0x00000000002d4b4c        0x0 lib/libfastcv.a(libfastcvv_la-fastcvThresholdV.o)
 .ARM.extab     0x00000000002d4b4c        0x0 lib/libfastcv.a(libfastcvv_la-fastcvTrackV.o)
 .ARM.extab     0x00000000002d4b4c        0x0 lib/libfastcv.a(libfastcvv_la-fastcvTransformV.o)
 .ARM.extab     0x00000000002d4b4c        0x0 lib/libfastcv.a(libfastcvv_la-fastcvUpsampleV.o)
 .ARM.extab     0x00000000002d4b4c        0x0 lib/libfastcv.a(libfastcvv_la-fastcvVectorV.o)
 .ARM.extab     0x00000000002d4b4c        0x0 lib/libfastcv.a(libIlpsources_la-fastcvBitCntIlpC.o)
 .ARM.extab     0x00000000002d4b4c        0x0 lib/libfastcv.a(libIlpsources_la-fastcvBlurIlpC.o)
 .ARM.extab.text._Z16fast_median_sortIsET_PS0_i
                0x00000000002d4b4c        0x0 lib/libfastcv.a(libIlpsources_la-fastcvBlurIlpC.o)
 .ARM.extab     0x00000000002d4b4c        0x0 lib/libfastcv.a(libIlpsources_la-fastcvBoundingRectC.o)
 .ARM.extab     0x00000000002d4b4c        0x0 lib/libfastcv.a(libIlpsources_la-fastcvFilter1C.o)
 .ARM.extab     0x00000000002d4b4c        0x0 lib/libfastcv.a(libIlpsources_la-fastcvImagePostProcIlpC.o)
 .ARM.extab     0x00000000002d4b4c        0x0 lib/libfastcv.a(libIlpsources_la-fastcvScaleIlpC.o)
 .ARM.extab     0x00000000002d4b4c        0x0 lib/libfastcv.a(libfastcvIlpC_la-fastcvFastIlpC.o)
 .ARM.extab     0x00000000002d4b4c        0x0 lib/libfastcv.a(libfastcvFast10C_la-fastcvFast10C.o)
 .ARM.extab     0x00000000002d4b4c        0x0 lib/libfastcv.a(libfastcvMeanShiftC_la-fastcvMeanShiftC.o)
 .ARM.extab     0x00000000002d4b4c        0x0 lib/libfastcv.a(libfastcvPyramidC_la-fastcvPyramidC.o)
 .ARM.extab     0x00000000002d4b4c        0x0 lib/libfastcv.a(libfastcvHomographyC_la-fastcvHomographyC.o)
 .ARM.extab     0x00000000002d4b4c        0x0 lib/libfastcv.a(libfastcvThresholdC_la-fastcvThresholdC.o)
 .ARM.extab     0x00000000002d4b4c        0x0 lib/libfastcv.a(libfastcvBlurC_la-fastcvBlurC.o)
 .ARM.extab     0x00000000002d4b4c        0x0 lib/libfastcv.a(libfastcvFilterC_la-fastcvFilterC.o)
 .ARM.extab     0x00000000002d4b4c        0x0 lib/libfastcv.a(libfastcv_la-fastcvManager_.o)
 .ARM.extab     0x00000000002d4b4c        0x0 lib/libfastcv.a(libfastcv_la-fastcvUtils.o)
 .ARM.extab     0x00000000002d4b4c        0x0 lib/libfastcv.a(libfastcvv_la-fastcvColorIppPlanarV.o)
 .ARM.extab     0x00000000002d4b4c        0x0 lib/libfastcv.a(libfastcvv_la-fastcvColorIppV.o)
 .ARM.extab     0x00000000002d4b4c        0x0 lib/libfastcv.a(libfastcvv_la-fastcvColorRgb2RgbV.o)
 .ARM.extab     0x00000000002d4b4c        0x0 lib/libfastcv.a(libfastcvv_la-fastcvIppDwtV.o)
 .ARM.extab     0x00000000002d4b4c        0x0 lib/libfastcv.a(libfastcvv_la-fastcvIppIdwtV.o)
 .ARM.extab     0x00000000002d4b4c        0x0 /media/ram/363029d1-6365-487a-b2e3-bd8d034c2ea4/fastcv/hexagondsp/Hexagon_SDK/3.5.2/tools/linaro/bin/../lib/gcc/arm-linux-gnueabihf/8.2.1/libgcc_eh.a(unwind-arm.o)
 .ARM.extab     0x00000000002d4b4c        0x0 /media/ram/363029d1-6365-487a-b2e3-bd8d034c2ea4/fastcv/hexagondsp/Hexagon_SDK/3.5.2/tools/linaro/bin/../lib/gcc/arm-linux-gnueabihf/8.2.1/libgcc_eh.a(pr-support.o)
 .ARM.extab.text.unlikely
                0x00000000002d4b4c        0x0 /media/ram/363029d1-6365-487a-b2e3-bd8d034c2ea4/fastcv/hexagondsp/Hexagon_SDK/3.5.2/tools/linaro/bin/../lib/gcc/arm-linux-gnueabihf/8.2.1/libgcc_eh.a(pr-support.o)
 .ARM.extab     0x00000000002d4b4c        0x0 /media/ram/363029d1-6365-487a-b2e3-bd8d034c2ea4/fastcv/hexagondsp/Hexagon_SDK/3.5.2/tools/linaro/bin/../lib/gcc/arm-linux-gnueabihf/8.2.1/libgcc.a(_udivmoddi4.o)
                0x00000000002d4b4c                PROVIDE (__exidx_start = .)

.ARM.exidx      0x00000000002d4b4c      0x160
 *(.ARM.exidx* .gnu.linkonce.armexidx.*)
 .ARM.exidx     0x00000000002d4b5c        0x8 /media/ram/363029d1-6365-487a-b2e3-bd8d034c2ea4/fastcv/hexagondsp/Hexagon_SDK/3.5.2/tools/linaro/bin/../arm-linux-gnueabihf/libc/usr/lib/crt1.o
 .ARM.exidx.text._ZN7cvflann7anyimpl14big_any_policyINS0_9empty_anyEED2Ev
                0x00000000002d4b8c        0x8 UbuntuARM_Release/ImageEnhance.o
 .ARM.exidx.text._ZN7cvflann7anyimpl16small_any_policyIPKcED2Ev
                0x00000000002d4b94        0x0 UbuntuARM_Release/ImageEnhance.o
                                          0x8 (size before relaxing)
 .ARM.exidx.text._ZN7cvflann7anyimpl16small_any_policyIiED2Ev
                0x00000000002d4b94        0x0 UbuntuARM_Release/ImageEnhance.o
                                          0x8 (size before relaxing)
 .ARM.exidx.text._ZN7cvflann7anyimpl16small_any_policyIfED2Ev
                0x00000000002d4b94        0x0 UbuntuARM_Release/ImageEnhance.o
                                          0x8 (size before relaxing)
 .ARM.exidx.text._ZN7cvflann7anyimpl16small_any_policyIbED2Ev
                0x00000000002d4b94        0x0 UbuntuARM_Release/ImageEnhance.o
                                          0x8 (size before relaxing)
 .ARM.exidx.text._ZN7cvflann7anyimpl14big_any_policyINS_17flann_algorithm_tEED2Ev
                0x00000000002d4b94        0x0 UbuntuARM_Release/ImageEnhance.o
                                          0x8 (size before relaxing)
 .ARM.exidx.text._ZN7cvflann7anyimpl14big_any_policyINS_20flann_centers_init_tEED2Ev
                0x00000000002d4b94        0x0 UbuntuARM_Release/ImageEnhance.o
                                          0x8 (size before relaxing)
 .ARM.exidx.text._ZN7cvflann7anyimpl16small_any_policyIjED2Ev
                0x00000000002d4b94        0x0 UbuntuARM_Release/ImageEnhance.o
                                          0x8 (size before relaxing)
 .ARM.exidx.text._ZN7cvflann7anyimpl14big_any_policyIN2cv6StringEED2Ev
                0x00000000002d4b94        0x0 UbuntuARM_Release/ImageEnhance.o
                                          0x8 (size before relaxing)
 .ARM.exidx.text._ZN7cvflann7anyimpl16small_any_policyIjE13static_deleteEPPv
                0x00000000002d4b94        0x0 UbuntuARM_Release/ImageEnhance.o
                                          0x8 (size before relaxing)
 .ARM.exidx.text._ZN7cvflann7anyimpl16small_any_policyIjE15copy_from_valueEPKvPPv
                0x00000000002d4b94        0x0 UbuntuARM_Release/ImageEnhance.o
                                          0x8 (size before relaxing)
 .ARM.exidx.text._ZN7cvflann7anyimpl16small_any_policyIjE5cloneEPKPvPS3_
                0x00000000002d4b94        0x0 UbuntuARM_Release/ImageEnhance.o
                                          0x8 (size before relaxing)
 .ARM.exidx.text._ZN7cvflann7anyimpl16small_any_policyIjE4moveEPKPvPS3_
                0x00000000002d4b94        0x0 UbuntuARM_Release/ImageEnhance.o
                                          0x8 (size before relaxing)
 .ARM.exidx.text._ZN7cvflann7anyimpl16small_any_policyIjE9get_valueEPPv
                0x00000000002d4b94        0x0 UbuntuARM_Release/ImageEnhance.o
                                          0x8 (size before relaxing)
 .ARM.exidx.text._ZN7cvflann7anyimpl16small_any_policyIjE9get_valueEPKPv
                0x00000000002d4b94        0x0 UbuntuARM_Release/ImageEnhance.o
                                          0x8 (size before relaxing)
 .ARM.exidx.text._ZN7cvflann7anyimpl21typed_base_any_policyIjE8get_sizeEv
                0x00000000002d4b94        0x0 UbuntuARM_Release/ImageEnhance.o
                                          0x8 (size before relaxing)
 .ARM.exidx.text._ZN7cvflann7anyimpl21typed_base_any_policyIjE4typeEv
                0x00000000002d4b94        0x0 UbuntuARM_Release/ImageEnhance.o
                                          0x8 (size before relaxing)
 .ARM.exidx.text._ZN7cvflann7anyimpl16small_any_policyIbE13static_deleteEPPv
                0x00000000002d4b94        0x0 UbuntuARM_Release/ImageEnhance.o
                                          0x8 (size before relaxing)
 .ARM.exidx.text._ZN7cvflann7anyimpl16small_any_policyIbE15copy_from_valueEPKvPPv
                0x00000000002d4b94        0x0 UbuntuARM_Release/ImageEnhance.o
                                          0x8 (size before relaxing)
 .ARM.exidx.text._ZN7cvflann7anyimpl16small_any_policyIbE5cloneEPKPvPS3_
                0x00000000002d4b94        0x0 UbuntuARM_Release/ImageEnhance.o
                                          0x8 (size before relaxing)
 .ARM.exidx.text._ZN7cvflann7anyimpl16small_any_policyIbE4moveEPKPvPS3_
                0x00000000002d4b94        0x0 UbuntuARM_Release/ImageEnhance.o
                                          0x8 (size before relaxing)
 .ARM.exidx.text._ZN7cvflann7anyimpl16small_any_policyIbE9get_valueEPPv
                0x00000000002d4b94        0x0 UbuntuARM_Release/ImageEnhance.o
                                          0x8 (size before relaxing)
 .ARM.exidx.text._ZN7cvflann7anyimpl16small_any_policyIbE9get_valueEPKPv
                0x00000000002d4b94        0x0 UbuntuARM_Release/ImageEnhance.o
                                          0x8 (size before relaxing)
 .ARM.exidx.text._ZN7cvflann7anyimpl21typed_base_any_policyIbE8get_sizeEv
                0x00000000002d4b94        0x0 UbuntuARM_Release/ImageEnhance.o
                                          0x8 (size before relaxing)
 .ARM.exidx.text._ZN7cvflann7anyimpl21typed_base_any_policyIbE4typeEv
                0x00000000002d4b94        0x0 UbuntuARM_Release/ImageEnhance.o
                                          0x8 (size before relaxing)
 .ARM.exidx.text._ZN7cvflann7anyimpl16small_any_policyIfE13static_deleteEPPv
                0x00000000002d4b94        0x0 UbuntuARM_Release/ImageEnhance.o
                                          0x8 (size before relaxing)
 .ARM.exidx.text._ZN7cvflann7anyimpl16small_any_policyIfE15copy_from_valueEPKvPPv
                0x00000000002d4b94        0x0 UbuntuARM_Release/ImageEnhance.o
                                          0x8 (size before relaxing)
 .ARM.exidx.text._ZN7cvflann7anyimpl16small_any_policyIfE5cloneEPKPvPS3_
                0x00000000002d4b94        0x0 UbuntuARM_Release/ImageEnhance.o
                                          0x8 (size before relaxing)
 .ARM.exidx.text._ZN7cvflann7anyimpl16small_any_policyIfE4moveEPKPvPS3_
                0x00000000002d4b94        0x0 UbuntuARM_Release/ImageEnhance.o
                                          0x8 (size before relaxing)
 .ARM.exidx.text._ZN7cvflann7anyimpl16small_any_policyIfE9get_valueEPPv
                0x00000000002d4b94        0x0 UbuntuARM_Release/ImageEnhance.o
                                          0x8 (size before relaxing)
 .ARM.exidx.text._ZN7cvflann7anyimpl16small_any_policyIfE9get_valueEPKPv
                0x00000000002d4b94        0x0 UbuntuARM_Release/ImageEnhance.o
                                          0x8 (size before relaxing)
 .ARM.exidx.text._ZN7cvflann7anyimpl21typed_base_any_policyIfE8get_sizeEv
                0x00000000002d4b94        0x0 UbuntuARM_Release/ImageEnhance.o
                                          0x8 (size before relaxing)
 .ARM.exidx.text._ZN7cvflann7anyimpl21typed_base_any_policyIfE4typeEv
                0x00000000002d4b94        0x0 UbuntuARM_Release/ImageEnhance.o
                                          0x8 (size before relaxing)
 .ARM.exidx.text._ZN7cvflann7anyimpl16small_any_policyIiE13static_deleteEPPv
                0x00000000002d4b94        0x0 UbuntuARM_Release/ImageEnhance.o
                                          0x8 (size before relaxing)
 .ARM.exidx.text._ZN7cvflann7anyimpl16small_any_policyIiE15copy_from_valueEPKvPPv
                0x00000000002d4b94        0x0 UbuntuARM_Release/ImageEnhance.o
                                          0x8 (size before relaxing)
 .ARM.exidx.text._ZN7cvflann7anyimpl16small_any_policyIiE5cloneEPKPvPS3_
                0x00000000002d4b94        0x0 UbuntuARM_Release/ImageEnhance.o
                                          0x8 (size before relaxing)
 .ARM.exidx.text._ZN7cvflann7anyimpl16small_any_policyIiE4moveEPKPvPS3_
                0x00000000002d4b94        0x0 UbuntuARM_Release/ImageEnhance.o
                                          0x8 (size before relaxing)
 .ARM.exidx.text._ZN7cvflann7anyimpl16small_any_policyIiE9get_valueEPPv
                0x00000000002d4b94        0x0 UbuntuARM_Release/ImageEnhance.o
                                          0x8 (size before relaxing)
 .ARM.exidx.text._ZN7cvflann7anyimpl16small_any_policyIiE9get_valueEPKPv
                0x00000000002d4b94        0x0 UbuntuARM_Release/ImageEnhance.o
                                          0x8 (size before relaxing)
 .ARM.exidx.text._ZN7cvflann7anyimpl21typed_base_any_policyIiE8get_sizeEv
                0x00000000002d4b94        0x0 UbuntuARM_Release/ImageEnhance.o
                                          0x8 (size before relaxing)
 .ARM.exidx.text._ZN7cvflann7anyimpl21typed_base_any_policyIiE4typeEv
                0x00000000002d4b94        0x0 UbuntuARM_Release/ImageEnhance.o
                                          0x8 (size before relaxing)
 .ARM.exidx.text._ZN7cvflann7anyimpl16small_any_policyIPKcE13static_deleteEPPv
                0x00000000002d4b94        0x0 UbuntuARM_Release/ImageEnhance.o
                                          0x8 (size before relaxing)
 .ARM.exidx.text._ZN7cvflann7anyimpl16small_any_policyIPKcE15copy_from_valueEPKvPPv
                0x00000000002d4b94        0x0 UbuntuARM_Release/ImageEnhance.o
                                          0x8 (size before relaxing)
 .ARM.exidx.text._ZN7cvflann7anyimpl16small_any_policyIPKcE5cloneEPKPvPS5_
                0x00000000002d4b94        0x0 UbuntuARM_Release/ImageEnhance.o
                                          0x8 (size before relaxing)
 .ARM.exidx.text._ZN7cvflann7anyimpl16small_any_policyIPKcE4moveEPKPvPS5_
                0x00000000002d4b94        0x0 UbuntuARM_Release/ImageEnhance.o
                                          0x8 (size before relaxing)
 .ARM.exidx.text._ZN7cvflann7anyimpl16small_any_policyIPKcE9get_valueEPPv
                0x00000000002d4b94        0x0 UbuntuARM_Release/ImageEnhance.o
                                          0x8 (size before relaxing)
 .ARM.exidx.text._ZN7cvflann7anyimpl16small_any_policyIPKcE9get_valueEPKPv
                0x00000000002d4b94        0x0 UbuntuARM_Release/ImageEnhance.o
                                          0x8 (size before relaxing)
 .ARM.exidx.text._ZN7cvflann7anyimpl21typed_base_any_policyIPKcE8get_sizeEv
                0x00000000002d4b94        0x0 UbuntuARM_Release/ImageEnhance.o
                                          0x8 (size before relaxing)
 .ARM.exidx.text._ZN7cvflann7anyimpl21typed_base_any_policyIPKcE4typeEv
                0x00000000002d4b94        0x0 UbuntuARM_Release/ImageEnhance.o
                                          0x8 (size before relaxing)
 .ARM.exidx.text._ZN7cvflann7anyimpl14big_any_policyINS0_9empty_anyEE4moveEPKPvPS4_
                0x00000000002d4b94        0x0 UbuntuARM_Release/ImageEnhance.o
                                          0x8 (size before relaxing)
 .ARM.exidx.text._ZN7cvflann7anyimpl14big_any_policyINS0_9empty_anyEE9get_valueEPPv
                0x00000000002d4b94        0x0 UbuntuARM_Release/ImageEnhance.o
                                          0x8 (size before relaxing)
 .ARM.exidx.text._ZN7cvflann7anyimpl14big_any_policyINS0_9empty_anyEE9get_valueEPKPv
                0x00000000002d4b94        0x0 UbuntuARM_Release/ImageEnhance.o
                                          0x8 (size before relaxing)
 .ARM.exidx.text._ZN7cvflann7anyimpl21typed_base_any_policyINS0_9empty_anyEE8get_sizeEv
                0x00000000002d4b94        0x0 UbuntuARM_Release/ImageEnhance.o
                                          0x8 (size before relaxing)
 .ARM.exidx.text._ZN7cvflann7anyimpl21typed_base_any_policyINS0_9empty_anyEE4typeEv
                0x00000000002d4b94        0x0 UbuntuARM_Release/ImageEnhance.o
                                          0x8 (size before relaxing)
 .ARM.exidx.text._ZN7cvflann7anyimpl14big_any_policyIN2cv6StringEE9get_valueEPPv
                0x00000000002d4b94        0x0 UbuntuARM_Release/ImageEnhance.o
                                          0x8 (size before relaxing)
 .ARM.exidx.text._ZN7cvflann7anyimpl14big_any_policyIN2cv6StringEE9get_valueEPKPv
                0x00000000002d4b94        0x0 UbuntuARM_Release/ImageEnhance.o
                                          0x8 (size before relaxing)
 .ARM.exidx.text._ZN7cvflann7anyimpl21typed_base_any_policyIN2cv6StringEE8get_sizeEv
                0x00000000002d4b94        0x0 UbuntuARM_Release/ImageEnhance.o
                                          0x8 (size before relaxing)
 .ARM.exidx.text._ZN7cvflann7anyimpl21typed_base_any_policyIN2cv6StringEE4typeEv
                0x00000000002d4b94        0x0 UbuntuARM_Release/ImageEnhance.o
                                          0x8 (size before relaxing)
 .ARM.exidx.text._ZN7cvflann7anyimpl14big_any_policyINS_17flann_algorithm_tEE4moveEPKPvPS4_
                0x00000000002d4b94        0x0 UbuntuARM_Release/ImageEnhance.o
                                          0x8 (size before relaxing)
 .ARM.exidx.text._ZN7cvflann7anyimpl14big_any_policyINS_17flann_algorithm_tEE9get_valueEPPv
                0x00000000002d4b94        0x0 UbuntuARM_Release/ImageEnhance.o
                                          0x8 (size before relaxing)
 .ARM.exidx.text._ZN7cvflann7anyimpl14big_any_policyINS_17flann_algorithm_tEE9get_valueEPKPv
                0x00000000002d4b94        0x0 UbuntuARM_Release/ImageEnhance.o
                                          0x8 (size before relaxing)
 .ARM.exidx.text._ZN7cvflann7anyimpl21typed_base_any_policyINS_17flann_algorithm_tEE8get_sizeEv
                0x00000000002d4b94        0x0 UbuntuARM_Release/ImageEnhance.o
                                          0x8 (size before relaxing)
 .ARM.exidx.text._ZN7cvflann7anyimpl21typed_base_any_policyINS_17flann_algorithm_tEE4typeEv
                0x00000000002d4b94        0x0 UbuntuARM_Release/ImageEnhance.o
                                          0x8 (size before relaxing)
 .ARM.exidx.text._ZN7cvflann7anyimpl14big_any_policyINS_20flann_centers_init_tEE4moveEPKPvPS4_
                0x00000000002d4b94        0x0 UbuntuARM_Release/ImageEnhance.o
                                          0x8 (size before relaxing)
 .ARM.exidx.text._ZN7cvflann7anyimpl14big_any_policyINS_20flann_centers_init_tEE9get_valueEPPv
                0x00000000002d4b94        0x0 UbuntuARM_Release/ImageEnhance.o
                                          0x8 (size before relaxing)
 .ARM.exidx.text._ZN7cvflann7anyimpl14big_any_policyINS_20flann_centers_init_tEE9get_valueEPKPv
                0x00000000002d4b94        0x0 UbuntuARM_Release/ImageEnhance.o
                                          0x8 (size before relaxing)
 .ARM.exidx.text._ZN7cvflann7anyimpl21typed_base_any_policyINS_20flann_centers_init_tEE8get_sizeEv
                0x00000000002d4b94        0x0 UbuntuARM_Release/ImageEnhance.o
                                          0x8 (size before relaxing)
 .ARM.exidx.text._ZN7cvflann7anyimpl21typed_base_any_policyINS_20flann_centers_init_tEE4typeEv
                0x00000000002d4b94        0x0 UbuntuARM_Release/ImageEnhance.o
                                          0x8 (size before relaxing)
 .ARM.exidx.text._ZN7cvflann7anyimpl14big_any_policyINS_20flann_centers_init_tEE5cloneEPKPvPS4_
                0x00000000002d4b94        0x8 UbuntuARM_Release/ImageEnhance.o
 .ARM.exidx.text._ZN7cvflann7anyimpl14big_any_policyINS_20flann_centers_init_tEE15copy_from_valueEPKvPPv
                0x00000000002d4b9c        0x0 UbuntuARM_Release/ImageEnhance.o
                                          0x8 (size before relaxing)
 .ARM.exidx.text._ZN7cvflann7anyimpl14big_any_policyINS_17flann_algorithm_tEE5cloneEPKPvPS4_
                0x00000000002d4b9c        0x0 UbuntuARM_Release/ImageEnhance.o
                                          0x8 (size before relaxing)
 .ARM.exidx.text._ZN7cvflann7anyimpl14big_any_policyINS_17flann_algorithm_tEE15copy_from_valueEPKvPPv
                0x00000000002d4b9c        0x0 UbuntuARM_Release/ImageEnhance.o
                                          0x8 (size before relaxing)
 .ARM.exidx.text._ZN7cvflann7anyimpl14big_any_policyINS0_9empty_anyEE5cloneEPKPvPS4_
                0x00000000002d4b9c        0x8 UbuntuARM_Release/ImageEnhance.o
 .ARM.exidx.text._ZN7cvflann7anyimpl14big_any_policyINS0_9empty_anyEE15copy_from_valueEPKvPPv
                0x00000000002d4ba4        0x0 UbuntuARM_Release/ImageEnhance.o
                                          0x8 (size before relaxing)
 .ARM.exidx.text._ZN7cvflann7anyimpl14big_any_policyIN2cv6StringEE5cloneEPKPvPS5_
                0x00000000002d4ba4        0x8 UbuntuARM_Release/ImageEnhance.o
 .ARM.exidx.text._ZN7cvflann7anyimpl14big_any_policyIN2cv6StringEE15copy_from_valueEPKvPPv
                0x00000000002d4bac        0x0 UbuntuARM_Release/ImageEnhance.o
                                          0x8 (size before relaxing)
 .ARM.exidx.text._ZN7cvflann7anyimpl14big_any_policyINS_20flann_centers_init_tEE13static_deleteEPPv
                0x00000000002d4bac        0x8 UbuntuARM_Release/ImageEnhance.o
 .ARM.exidx.text._ZN7cvflann7anyimpl14big_any_policyINS_17flann_algorithm_tEE13static_deleteEPPv
                0x00000000002d4bb4        0x0 UbuntuARM_Release/ImageEnhance.o
                                          0x8 (size before relaxing)
 .ARM.exidx.text._ZN7cvflann7anyimpl14big_any_policyINS0_9empty_anyEE13static_deleteEPPv
                0x00000000002d4bb4        0x0 UbuntuARM_Release/ImageEnhance.o
                                          0x8 (size before relaxing)
 .ARM.exidx.text._ZN7cvflann7anyimpl14big_any_policyINS0_9empty_anyEED0Ev
                0x00000000002d4bb4        0x0 UbuntuARM_Release/ImageEnhance.o
                                          0x8 (size before relaxing)
 .ARM.exidx.text._ZN7cvflann7anyimpl16small_any_policyIPKcED0Ev
                0x00000000002d4bb4        0x0 UbuntuARM_Release/ImageEnhance.o
                                          0x8 (size before relaxing)
 .ARM.exidx.text._ZN7cvflann7anyimpl16small_any_policyIiED0Ev
                0x00000000002d4bb4        0x0 UbuntuARM_Release/ImageEnhance.o
                                          0x8 (size before relaxing)
 .ARM.exidx.text._ZN7cvflann7anyimpl16small_any_policyIfED0Ev
                0x00000000002d4bb4        0x0 UbuntuARM_Release/ImageEnhance.o
                                          0x8 (size before relaxing)
 .ARM.exidx.text._ZN7cvflann7anyimpl16small_any_policyIbED0Ev
                0x00000000002d4bb4        0x0 UbuntuARM_Release/ImageEnhance.o
                                          0x8 (size before relaxing)
 .ARM.exidx.text._ZN7cvflann7anyimpl14big_any_policyINS_17flann_algorithm_tEED0Ev
                0x00000000002d4bb4        0x0 UbuntuARM_Release/ImageEnhance.o
                                          0x8 (size before relaxing)
 .ARM.exidx.text._ZN7cvflann7anyimpl14big_any_policyINS_20flann_centers_init_tEED0Ev
                0x00000000002d4bb4        0x0 UbuntuARM_Release/ImageEnhance.o
                                          0x8 (size before relaxing)
 .ARM.exidx.text._ZN7cvflann7anyimpl16small_any_policyIjED0Ev
                0x00000000002d4bb4        0x0 UbuntuARM_Release/ImageEnhance.o
                                          0x8 (size before relaxing)
 .ARM.exidx.text._ZN7cvflann7anyimpl14big_any_policyIN2cv6StringEED0Ev
                0x00000000002d4bb4        0x0 UbuntuARM_Release/ImageEnhance.o
                                          0x8 (size before relaxing)
 .ARM.exidx.text._ZN7cvflann7anyimpl14big_any_policyIN2cv6StringEE13static_deleteEPPv
                0x00000000002d4bb4        0x8 UbuntuARM_Release/ImageEnhance.o
 .ARM.exidx.text._ZN7cvflann7anyimpl16small_any_policyIjE5printERSoPKPv
                0x00000000002d4bbc        0x8 UbuntuARM_Release/ImageEnhance.o
 .ARM.exidx.text._ZN7cvflann7anyimpl14big_any_policyINS_20flann_centers_init_tEE5printERSoPKPv
                0x00000000002d4bc4        0x0 UbuntuARM_Release/ImageEnhance.o
                                          0x8 (size before relaxing)
 .ARM.exidx.text._ZN7cvflann7anyimpl14big_any_policyINS_17flann_algorithm_tEE5printERSoPKPv
                0x00000000002d4bc4        0x0 UbuntuARM_Release/ImageEnhance.o
                                          0x8 (size before relaxing)
 .ARM.exidx.text._ZN7cvflann7anyimpl16small_any_policyIiE5printERSoPKPv
                0x00000000002d4bc4        0x0 UbuntuARM_Release/ImageEnhance.o
                                          0x8 (size before relaxing)
 .ARM.exidx.text._ZN7cvflann7anyimpl16small_any_policyIbE5printERSoPKPv
                0x00000000002d4bc4        0x0 UbuntuARM_Release/ImageEnhance.o
                                          0x8 (size before relaxing)
 .ARM.exidx.text._ZN7cvflann7anyimpl16small_any_policyIfE5printERSoPKPv
                0x00000000002d4bc4        0x0 UbuntuARM_Release/ImageEnhance.o
                                          0x8 (size before relaxing)
 .ARM.exidx.text._ZN7cvflann7anyimpl14big_any_policyIN2cv6StringEE4moveEPKPvPS5_
                0x00000000002d4bc4        0x8 UbuntuARM_Release/ImageEnhance.o
 .ARM.exidx.text._ZN7cvflann7anyimpl14big_any_policyIN2cv6StringEE5printERSoPKPv
                0x00000000002d4bcc        0x8 UbuntuARM_Release/ImageEnhance.o
 .ARM.exidx.text._ZN7cvflann7anyimpl14big_any_policyINS0_9empty_anyEE5printERSoPKPv
                0x00000000002d4bd4        0x0 UbuntuARM_Release/ImageEnhance.o
                                          0x8 (size before relaxing)
 .ARM.exidx.text._ZN7cvflann7anyimpl16small_any_policyIPKcE5printERSoPKPv
                0x00000000002d4bd4        0x0 UbuntuARM_Release/ImageEnhance.o
                                          0x8 (size before relaxing)
 .ARM.exidx.text._ZN2cv3MatC2ERKS0_
                0x00000000002d4bd4        0x8 UbuntuARM_Release/ImageEnhance.o
 .ARM.exidx.text._ZN2cv3MatD2Ev
                0x00000000002d4bdc        0x8 UbuntuARM_Release/ImageEnhance.o
 .ARM.exidx.text._ZN2cv3MataSEOS0_
                0x00000000002d4be4        0x8 UbuntuARM_Release/ImageEnhance.o
 .ARM.exidx     0x00000000002d4b64       0x28 UbuntuARM_Release/ImageEnhance.o
 .ARM.exidx.text._ZNSt6vectorIN2cv3MatESaIS1_EED2Ev
                0x00000000002d4bec        0x8 UbuntuARM_Release/ImageEnhance.o
 .ARM.exidx.text._ZNSt6vectorIN2cv3MatESaIS1_EE17_M_realloc_insertIJRKS1_EEEvN9__gnu_cxx17__normal_iteratorIPS1_S3_EEDpOT_
                0x00000000002d4bf4        0x8 UbuntuARM_Release/ImageEnhance.o
 .ARM.exidx.text.startup
                0x00000000002d4b54        0x8 UbuntuARM_Release/ImageEnhance.o
                                         0x10 (size before relaxing)
 .ARM.exidx     0x00000000002d4bfc        0x8 lib/libfastcv.a(libfastcv_la-fastcvManager.o)
                                       0x1128 (size before relaxing)
 .ARM.exidx     0x00000000002d4c04        0x0 lib/libfastcv.a(libfastcv_la-fastcvMemAndroid.o)
                                         0x20 (size before relaxing)
 .ARM.exidx     0x00000000002d4c04        0x0 lib/libfastcv.a(libfastcv_la-fastcvMem.o)
                                         0x48 (size before relaxing)
 .ARM.exidx     0x00000000002d4c04        0x0 lib/libfastcv.a(libfastcv_la-fastcv.o)
                                         0x48 (size before relaxing)
 .ARM.exidx     0x00000000002d4c04        0x0 lib/libfastcv.a(libfastcv_la-fastcvHeapStats.o)
                                         0x20 (size before relaxing)
 .ARM.exidx     0x00000000002d4c04        0x0 lib/libfastcv.a(libfastcv_la-fastcvHelper.o)
                                         0x10 (size before relaxing)
 .ARM.exidx     0x00000000002d4c04        0x0 lib/libfastcv.a(libfastcv_la-fastcvHW.o)
                                         0x30 (size before relaxing)
 .ARM.exidx     0x00000000002d4c04        0x0 lib/libfastcv.a(libfastcv_la-fastcvAbsDiffC.o)
                                         0x60 (size before relaxing)
 .ARM.exidx     0x00000000002d4c04        0x0 lib/libfastcv.a(libfastcv_la-fastcvAdaptiveThresholdC.o)
                                         0x38 (size before relaxing)
 .ARM.exidx     0x00000000002d4c04        0x0 lib/libfastcv.a(libfastcv_la-fastcvAffineC.o)
                                         0x18 (size before relaxing)
 .ARM.exidx     0x00000000002d4c04        0x0 lib/libfastcv.a(libfastcv_la-fastcvArithmC.o)
                                        0x178 (size before relaxing)
 .ARM.exidx     0x00000000002d4c04        0x0 lib/libfastcv.a(libfastcv_la-fastcvAverageC.o)
                                         0x10 (size before relaxing)
 .ARM.exidx     0x00000000002d4c04        0x0 lib/libfastcv.a(libfastcv_la-fastcvBGCodeBookC.o)
                                         0x50 (size before relaxing)
 .ARM.exidx     0x00000000002d4c04        0x0 lib/libfastcv.a(libfastcv_la-fastcvBitCntC.o)
                                         0x60 (size before relaxing)
 .ARM.exidx     0x00000000002d4c04        0x0 lib/libfastcv.a(libfastcv_la-fastcvBitwiseOpC.o)
                                         0x28 (size before relaxing)
 .ARM.exidx     0x00000000002d4c04        0x0 lib/libfastcv.a(libfastcv_la-fastcvCalib3DC.o)
                                         0x18 (size before relaxing)
 .ARM.exidx     0x00000000002d4c04        0x0 lib/libfastcv.a(libfastcv_la-fastcvCalibrateC.o)
                                         0x30 (size before relaxing)
 .ARM.exidx     0x00000000002d4c04        0x0 lib/libfastcv.a(libfastcv_la-fastcvChannelC.o)
                                         0x60 (size before relaxing)
 .ARM.exidx     0x00000000002d4c04        0x0 lib/libfastcv.a(libfastcv_la-fastcvColor2C.o)
                                        0x208 (size before relaxing)
 .ARM.exidx     0x00000000002d4c04        0x0 lib/libfastcv.a(libfastcv_la-fastcvColorC.o)
                                        0x158 (size before relaxing)
 .ARM.exidx     0x00000000002d4c04        0x0 lib/libfastcv.a(libfastcv_la-fastcvColorPpfYuvUtilsC.o)
                                         0x18 (size before relaxing)
 .ARM.exidx     0x00000000002d4c04        0x0 lib/libfastcv.a(libfastcv_la-fastcvColorRgb2LabC.o)
                                          0x8 (size before relaxing)
 .ARM.exidx     0x00000000002d4c04        0x0 lib/libfastcv.a(libfastcv_la-fastcvColorRgb2YuvC.o)
                                         0x78 (size before relaxing)
 .ARM.exidx     0x00000000002d4c04        0x0 lib/libfastcv.a(libfastcv_la-fastcvColorRgbConversionC.o)
                                         0x78 (size before relaxing)
 .ARM.exidx     0x00000000002d4c04        0x0 lib/libfastcv.a(libfastcv_la-fastcvColorYuvConversionC.o)
                                         0x40 (size before relaxing)
 .ARM.exidx     0x00000000002d4c04        0x0 lib/libfastcv.a(libfastcv_la-fastcvContourC.o)
                                         0x58 (size before relaxing)
 .ARM.exidx     0x00000000002d4c04        0x0 lib/libfastcv.a(libfastcv_la-fastcvCopyC.o)
                                         0x10 (size before relaxing)
 .ARM.exidx     0x00000000002d4c04        0x0 lib/libfastcv.a(libfastcv_la-fastcvCornerSubPixelC.o)
                                          0x8 (size before relaxing)
 .ARM.exidx     0x00000000002d4c04        0x0 lib/libfastcv.a(libfastcv_la-fastcvDepthFusionC.o)
                                          0x8 (size before relaxing)
 .ARM.exidx     0x00000000002d4c04        0x0 lib/libfastcv.a(libfastcv_la-fastcvDescriptor2C.o)
                                          0x8 (size before relaxing)
 .ARM.exidx     0x00000000002d4c04        0x0 lib/libfastcv.a(libfastcv_la-fastcvDescriptorC.o)
                                          0x8 (size before relaxing)
 .ARM.exidx     0x00000000002d4c04        0x0 lib/libfastcv.a(libfastcv_la-fastcvEucldeanC.o)
                                         0x28 (size before relaxing)
 .ARM.exidx     0x00000000002d4c04        0x0 lib/libfastcv.a(libfastcv_la-fastcvFloodFillC.o)
                                         0x18 (size before relaxing)
 .ARM.exidx     0x00000000002d4c04        0x0 lib/libfastcv.a(libfastcv_la-fastcvGeomC.o)
                                         0x50 (size before relaxing)
 .ARM.exidx     0x00000000002d4c04        0x0 lib/libfastcv.a(libfastcv_la-fastcvHarrisC.o)
                                         0x48 (size before relaxing)
 .ARM.exidx     0x00000000002d4c04        0x0 lib/libfastcv.a(libfastcv_la-fastcvHOGC.o)
                                         0x40 (size before relaxing)
 .ARM.exidx     0x00000000002d4c04        0x0 lib/libfastcv.a(libfastcv_la-fastcvHoughCircleC.o)
                                         0x70 (size before relaxing)
 .ARM.exidx     0x00000000002d4c04        0x0 lib/libfastcv.a(libfastcv_la-fastcvHoughLineC.o)
                                         0x98 (size before relaxing)
 .ARM.exidx     0x00000000002d4c04        0x0 lib/libfastcv.a(libfastcv_la-fastcvImageDiffC.o)
                                         0x28 (size before relaxing)
 .ARM.exidx     0x00000000002d4c04        0x0 lib/libfastcv.a(libfastcv_la-fastcvImageIntensityC.o)
                                         0x40 (size before relaxing)
 .ARM.exidx     0x00000000002d4c04        0x0 lib/libfastcv.a(libfastcv_la-fastcvImagePostProcC.o)
                                         0x58 (size before relaxing)
 .ARM.exidx     0x00000000002d4c04        0x0 lib/libfastcv.a(libfastcv_la-fastcvImageSegmentationC.o)
                                         0x10 (size before relaxing)
 .ARM.exidx     0x00000000002d4c04        0x0 lib/libfastcv.a(libfastcv_la-fastcvIntegrateImageC.o)
                                         0x50 (size before relaxing)
 .ARM.exidx     0x00000000002d4c04        0x0 lib/libfastcv.a(libfastcv_la-fastcvIntegrateImageYuvC.o)
                                         0x10 (size before relaxing)
 .ARM.exidx     0x00000000002d4c04        0x0 lib/libfastcv.a(libfastcv_la-fastcvIppScaleC.o)
                                         0x88 (size before relaxing)
 .ARM.exidx     0x00000000002d4c04        0x0 lib/libfastcv.a(libfastcv_la-fastcvIppTransformC.o)
                                         0xd0 (size before relaxing)
 .ARM.exidx     0x00000000002d4c04        0x0 lib/libfastcv.a(libfastcv_la-fastcvKDTree36s8f32C.o)
                                         0x70 (size before relaxing)
 .ARM.exidx     0x00000000002d4c04        0x0 lib/libfastcv.a(libfastcv_la-fastcvKMeansTreeSearchC.o)
                                          0x8 (size before relaxing)
 .ARM.exidx     0x00000000002d4c04        0x0 lib/libfastcv.a(libfastcv_la-fastcvLBPC.o)
                                          0x8 (size before relaxing)
 .ARM.exidx     0x00000000002d4c04        0x0 lib/libfastcv.a(libfastcv_la-fastcvLinearSearchC.o)
                                         0x18 (size before relaxing)
 .ARM.exidx     0x00000000002d4c04        0x0 lib/libfastcv.a(libfastcv_la-fastcvMotionHistoryC.o)
                                          0x8 (size before relaxing)
 .ARM.exidx     0x00000000002d4c04        0x0 lib/libfastcv.a(libfastcv_la-fastcvMserFxpC.o)
                                        0x178 (size before relaxing)
 .ARM.exidx     0x00000000002d4c04        0x0 lib/libfastcv.a(libfastcv_la-fastcvNCCPatchC.o)
                                         0x50 (size before relaxing)
 .ARM.exidx     0x00000000002d4c04        0x0 lib/libfastcv.a(libfastcv_la-fastcvPolygonC.o)
                                         0x30 (size before relaxing)
 .ARM.exidx     0x00000000002d4c04        0x0 lib/libfastcv.a(libfastcv_la-fastcvRemapC.o)
                                         0x38 (size before relaxing)
 .ARM.exidx     0x00000000002d4c04        0x0 lib/libfastcv.a(libfastcv_la-fastcvSADC.o)
                                         0x20 (size before relaxing)
 .ARM.exidx     0x00000000002d4c04        0x0 lib/libfastcv.a(libfastcv_la-fastcvScaleC.o)
                                         0x70 (size before relaxing)
 .ARM.exidx     0x00000000002d4c04        0x0 lib/libfastcv.a(libfastcv_la-fastcvSegmentMaskC.o)
                                        0x130 (size before relaxing)
 .ARM.exidx.text.invert_newton_64
                0x00000000002d4c04        0x0 lib/libfastcv.a(libfastcv_la-fastcvSegmentMaskC.o)
                                          0x8 (size before relaxing)
 .ARM.exidx     0x00000000002d4c04        0x0 lib/libfastcv.a(libfastcv_la-fastcvSetC.o)
                                         0x48 (size before relaxing)
 .ARM.exidx     0x00000000002d4c04        0x0 lib/libfastcv.a(libfastcv_la-fastcvSmoothC.o)
                                         0x60 (size before relaxing)
 .ARM.exidx     0x00000000002d4c04        0x0 lib/libfastcv.a(libfastcv_la-fastcvSolveC.o)
                                         0x18 (size before relaxing)
 .ARM.exidx     0x00000000002d4c04        0x0 lib/libfastcv.a(libfastcv_la-fastcvSVDC.o)
                                         0x48 (size before relaxing)
 .ARM.exidx     0x00000000002d4c04        0x0 lib/libfastcv.a(libfastcv_la-fastcvSVMPredictC.o)
                                          0x8 (size before relaxing)
 .ARM.exidx     0x00000000002d4c04        0x0 lib/libfastcv.a(libfastcv_la-fastcvTrackC.o)
                                         0x60 (size before relaxing)
 .ARM.exidx     0x00000000002d4c04        0x0 lib/libfastcv.a(libfastcv_la-fastcvTransformC.o)
                                         0x70 (size before relaxing)
 .ARM.exidx.text.L_cmult32x16
                0x00000000002d4c04        0x0 lib/libfastcv.a(libfastcv_la-fastcvTransformC.o)
                                          0x8 (size before relaxing)
 .ARM.exidx     0x00000000002d4c04        0x0 lib/libfastcv.a(libfastcv_la-fastcvUpsampleC.o)
                                         0x20 (size before relaxing)
 .ARM.exidx     0x00000000002d4c04        0x0 lib/libfastcv.a(libfastcv_la-fastcvVectorC.o)
                                          0x8 (size before relaxing)
 .ARM.exidx     0x00000000002d4c04        0x0 lib/libfastcv.a(libfastcv_la-fastcvWarpC.o)
                                         0x80 (size before relaxing)
 .ARM.exidx.text._Z16samplePixCheckedPKhjRK5Vec2X
                0x00000000002d4c04        0x0 lib/libfastcv.a(libfastcv_la-fastcvWarpC.o)
                                          0x8 (size before relaxing)
 .ARM.exidx     0x00000000002d4c04        0x0 lib/libfastcv.a(libfastcv_la-fastcvHwAndroid.o)
                                         0x40 (size before relaxing)
 .ARM.exidx     0x00000000002d4c04        0x0 lib/libfastcv.a(libfastcv_la-fastcvRemoteLibAndroid.o)
                                         0x38 (size before relaxing)
 .ARM.exidx     0x00000000002d4c04        0x0 lib/libfastcv.a(libfastcv_la-fastcvDotC.o)
                                         0xc0 (size before relaxing)
 .ARM.exidx     0x00000000002d4c04        0x0 lib/libfastcv.a(libfastcv_la-fastcvEdgeC.o)
                                         0xb0 (size before relaxing)
 .ARM.exidx     0x00000000002d4c04        0x0 lib/libfastcv.a(libfastcv_la-fastcvFastC.o)
                                         0x28 (size before relaxing)
 .ARM.exidx     0x00000000002d4c04        0x0 lib/libfastcv.a(libfastcv_la-fastcvRectangleC.o)
                                          0x8 (size before relaxing)
 .ARM.exidx     0x00000000002d4c04        0x0 lib/libfastcv.a(libfastcv_la-fastcvSSDC.o)
                                         0x30 (size before relaxing)
 .ARM.exidx     0x00000000002d4c04        0x0 lib/libfastcv.a(libfastcvAbsDiffV_la-fastcvAbsDiffV.o)
                                         0x60 (size before relaxing)
 .ARM.exidx     0x00000000002d4c04        0x0 lib/libfastcv.a(libfastcvAdaptiveThresholdV_la-fastcvAdaptiveThresholdV.o)
                                          0x8 (size before relaxing)
 .ARM.exidx     0x00000000002d4c04        0x0 lib/libfastcv.a(libfastcvBlurV_la-fastcvBlurV.o)
                                         0x50 (size before relaxing)
 .ARM.exidx     0x00000000002d4c04        0x0 lib/libfastcv.a(libfastcvDescriptorV_la-fastcvDescriptorV.o)
                                          0x8 (size before relaxing)
 .ARM.exidx     0x00000000002d4c04        0x0 lib/libfastcv.a(libfastcvDotV_la-fastcvDotV.o)
                                         0xc0 (size before relaxing)
 .ARM.exidx     0x00000000002d4c04        0x0 lib/libfastcv.a(libfastcvFast10V_la-fastcvFast10V.o)
                                         0x20 (size before relaxing)
 .ARM.exidx     0x00000000002d4c04        0x0 lib/libfastcv.a(libfastcvFastV_la-fastcvFastV.o)
                                         0x28 (size before relaxing)
 .ARM.exidx     0x00000000002d4c04        0x0 lib/libfastcv.a(libfastcvFilter1V_la-fastcvFilter1V.o)
                                         0x50 (size before relaxing)
 .ARM.exidx     0x00000000002d4c04        0x0 lib/libfastcv.a(libfastcvFilterV_la-fastcvFilterV.o)
                                         0x98 (size before relaxing)
 .ARM.exidx     0x00000000002d4c04        0x0 lib/libfastcv.a(libfastcvMeanShiftV_la-fastcvMeanShiftV.o)
                                         0x18 (size before relaxing)
 .ARM.exidx     0x00000000002d4c04        0x0 lib/libfastcv.a(libfastcvSVDV_la-fastcvSVDV.o)
                                         0x28 (size before relaxing)
 .ARM.exidx     0x00000000002d4c04        0x0 lib/libfastcv.a(libfastcvScaleV_la-fastcvScaleV.o)
                                         0x88 (size before relaxing)
 .ARM.exidx     0x00000000002d4c04        0x0 lib/libfastcv.a(libfastcvWarpV_la-fastcvWarpV.o)
                                         0x80 (size before relaxing)
 .ARM.exidx     0x00000000002d4c04        0x0 lib/libfastcv.a(libfastcvv_la-fastcvAffineV1.o)
                                         0x10 (size before relaxing)
 .ARM.exidx     0x00000000002d4c04        0x0 lib/libfastcv.a(libfastcvv_la-fastcvArithmV.o)
                                        0x148 (size before relaxing)
 .ARM.exidx     0x00000000002d4c04        0x0 lib/libfastcv.a(libfastcvv_la-fastcvAverageV.o)
                                         0x10 (size before relaxing)
 .ARM.exidx     0x00000000002d4c04        0x0 lib/libfastcv.a(libfastcvv_la-fastcvBitCntWrapV.o)
                                         0x58 (size before relaxing)
 .ARM.exidx     0x00000000002d4c04        0x0 lib/libfastcv.a(libfastcvv_la-fastcvBitwiseOpV.o)
                                         0x28 (size before relaxing)
 .ARM.exidx     0x00000000002d4c04        0x0 lib/libfastcv.a(libfastcvv_la-fastcvBoundingRectV.o)
                                          0x8 (size before relaxing)
 .ARM.exidx     0x00000000002d4c04        0x0 lib/libfastcv.a(libfastcvv_la-fastcvCalib3DV.o)
                                         0x18 (size before relaxing)
 .ARM.exidx     0x00000000002d4c04        0x0 lib/libfastcv.a(libfastcvv_la-fastcvCalibrateV1.o)
                                          0x8 (size before relaxing)
 .ARM.exidx     0x00000000002d4c04        0x0 lib/libfastcv.a(libfastcvv_la-fastcvChannelV.o)
                                         0x40 (size before relaxing)
 .ARM.exidx     0x00000000002d4c04        0x0 lib/libfastcv.a(libfastcvv_la-fastcvColorPpfYuvUtilsV.o)
                                         0x18 (size before relaxing)
 .ARM.exidx     0x00000000002d4c04        0x0 lib/libfastcv.a(libfastcvv_la-fastcvColorRgb2LabV.o)
                                          0x8 (size before relaxing)
 .ARM.exidx     0x00000000002d4c04        0x0 lib/libfastcv.a(libfastcvv_la-fastcvColorRgb2YuvV.o)
                                         0x78 (size before relaxing)
 .ARM.exidx     0x00000000002d4c04        0x0 lib/libfastcv.a(libfastcvv_la-fastcvColorRgbConversionV.o)
                                         0x78 (size before relaxing)
 .ARM.exidx     0x00000000002d4c04        0x0 lib/libfastcv.a(libfastcvv_la-fastcvColorV.o)
                                         0xf8 (size before relaxing)
 .ARM.exidx     0x00000000002d4c04        0x0 lib/libfastcv.a(libfastcvv_la-fastcvColorYuvConversionV.o)
                                         0x30 (size before relaxing)
 .ARM.exidx     0x00000000002d4c04        0x0 lib/libfastcv.a(libfastcvv_la-fastcvContourV.o)
                                         0x18 (size before relaxing)
 .ARM.exidx     0x00000000002d4c04        0x0 lib/libfastcv.a(libfastcvv_la-fastcvCopyV.o)
                                         0x10 (size before relaxing)
 .ARM.exidx     0x00000000002d4c04        0x0 lib/libfastcv.a(libfastcvv_la-fastcvCornerSubPixelV.o)
                                         0x18 (size before relaxing)
 .ARM.exidx     0x00000000002d4c04        0x0 lib/libfastcv.a(libfastcvv_la-fastcvDepthFusionV.o)
                                          0x8 (size before relaxing)
 .ARM.exidx     0x00000000002d4c04        0x0 lib/libfastcv.a(libfastcvv_la-fastcvDescriptor2V.o)
                                          0x8 (size before relaxing)
 .ARM.exidx     0x00000000002d4c04        0x0 lib/libfastcv.a(libfastcvv_la-fastcvEdgeV.o)
                                         0xa8 (size before relaxing)
 .ARM.exidx     0x00000000002d4c04        0x0 lib/libfastcv.a(libfastcvv_la-fastcvEucldeanV.o)
                                         0x20 (size before relaxing)
 .ARM.exidx     0x00000000002d4c04        0x0 lib/libfastcv.a(libfastcvv_la-fastcvFloodFillV.o)
                                         0x18 (size before relaxing)
 .ARM.exidx     0x00000000002d4c04        0x0 lib/libfastcv.a(libfastcvv_la-fastcvGeomV.o)
                                         0x40 (size before relaxing)
 .ARM.exidx     0x00000000002d4c04        0x0 lib/libfastcv.a(libfastcvv_la-fastcvHOGV.o)
                                         0x28 (size before relaxing)
 .ARM.exidx     0x00000000002d4c04        0x0 lib/libfastcv.a(libfastcvv_la-fastcvHarrisV.o)
                                         0x30 (size before relaxing)
 .ARM.exidx     0x00000000002d4c04        0x0 lib/libfastcv.a(libfastcvv_la-fastcvHomographyV.o)
                                         0x20 (size before relaxing)
 .ARM.exidx     0x00000000002d4c04        0x0 lib/libfastcv.a(libfastcvv_la-fastcvHoughCircleV.o)
                                          0x8 (size before relaxing)
 .ARM.exidx     0x00000000002d4c04        0x0 lib/libfastcv.a(libfastcvv_la-fastcvHoughLineV.o)
                                          0x8 (size before relaxing)
 .ARM.exidx     0x00000000002d4c04        0x0 lib/libfastcv.a(libfastcvv_la-fastcvImageDiffV.o)
                                         0x28 (size before relaxing)
 .ARM.exidx     0x00000000002d4c04        0x0 lib/libfastcv.a(libfastcvv_la-fastcvImageIntensityV.o)
                                         0x38 (size before relaxing)
 .ARM.exidx     0x00000000002d4c04        0x0 lib/libfastcv.a(libfastcvv_la-fastcvImagePostProcV.o)
                                         0x10 (size before relaxing)
 .ARM.exidx     0x00000000002d4c04        0x0 lib/libfastcv.a(libfastcvv_la-fastcvIntegrateImageV.o)
                                         0x58 (size before relaxing)
 .ARM.exidx     0x00000000002d4c04        0x0 lib/libfastcv.a(libfastcvv_la-fastcvIntegrateImageYuvV.o)
                                          0x8 (size before relaxing)
 .ARM.exidx     0x00000000002d4c04        0x0 lib/libfastcv.a(libfastcvv_la-fastcvIppScaleV.o)
                                         0x48 (size before relaxing)
 .ARM.exidx     0x00000000002d4c04        0x0 lib/libfastcv.a(libfastcvv_la-fastcvIppTransformV.o)
                                         0x50 (size before relaxing)
 .ARM.exidx     0x00000000002d4c04        0x0 lib/libfastcv.a(libfastcvv_la-fastcvLBPV.o)
                                          0x8 (size before relaxing)
 .ARM.exidx     0x00000000002d4c04        0x0 lib/libfastcv.a(libfastcvv_la-fastcvMotionHistoryV.o)
                                          0x8 (size before relaxing)
 .ARM.exidx     0x00000000002d4c04        0x0 lib/libfastcv.a(libfastcvv_la-fastcvMserFxpV.o)
                                         0x30 (size before relaxing)
 .ARM.exidx     0x00000000002d4c04        0x0 lib/libfastcv.a(libfastcvv_la-fastcvNCCPatchV.o)
                                         0x30 (size before relaxing)
 .ARM.exidx     0x00000000002d4c04        0x0 lib/libfastcv.a(libfastcvv_la-fastcvPolygonV.o)
                                         0x10 (size before relaxing)
 .ARM.exidx     0x00000000002d4c04        0x0 lib/libfastcv.a(libfastcvv_la-fastcvPyramidV.o)
                                         0x18 (size before relaxing)
 .ARM.exidx     0x00000000002d4c04        0x0 lib/libfastcv.a(libfastcvv_la-fastcvRemapV.o)
                                         0x38 (size before relaxing)
 .ARM.exidx     0x00000000002d4c04        0x0 lib/libfastcv.a(libfastcvv_la-fastcvSADV.o)
                                         0x20 (size before relaxing)
 .ARM.exidx     0x00000000002d4c04        0x0 lib/libfastcv.a(libfastcvv_la-fastcvSSDV.o)
                                         0x30 (size before relaxing)
 .ARM.exidx     0x00000000002d4c04        0x0 lib/libfastcv.a(libfastcvv_la-fastcvSVMPredictV.o)
                                          0x8 (size before relaxing)
 .ARM.exidx     0x00000000002d4c04        0x0 lib/libfastcv.a(libfastcvv_la-fastcvSetV.o)
                                         0x48 (size before relaxing)
 .ARM.exidx     0x00000000002d4c04        0x0 lib/libfastcv.a(libfastcvv_la-fastcvSmoothV.o)
                                         0x68 (size before relaxing)
 .ARM.exidx     0x00000000002d4c04        0x0 lib/libfastcv.a(libfastcvv_la-fastcvThresholdV.o)
                                         0x28 (size before relaxing)
 .ARM.exidx     0x00000000002d4c04        0x0 lib/libfastcv.a(libfastcvv_la-fastcvTrackV.o)
                                         0x18 (size before relaxing)
 .ARM.exidx     0x00000000002d4c04        0x0 lib/libfastcv.a(libfastcvv_la-fastcvTransformV.o)
                                         0x58 (size before relaxing)
 .ARM.exidx     0x00000000002d4c04        0x0 lib/libfastcv.a(libfastcvv_la-fastcvUpsampleV.o)
                                         0x28 (size before relaxing)
 .ARM.exidx     0x00000000002d4c04        0x0 lib/libfastcv.a(libfastcvv_la-fastcvVectorV.o)
                                          0x8 (size before relaxing)
 .ARM.exidx     0x00000000002d4c04        0x0 lib/libfastcv.a(libIlpsources_la-fastcvBitCntIlpC.o)
                                         0x10 (size before relaxing)
 .ARM.exidx     0x00000000002d4c04        0x0 lib/libfastcv.a(libIlpsources_la-fastcvBlurIlpC.o)
                                         0x30 (size before relaxing)
 .ARM.exidx.text._Z16fast_median_sortIsET_PS0_i
                0x00000000002d4c04        0x0 lib/libfastcv.a(libIlpsources_la-fastcvBlurIlpC.o)
                                          0x8 (size before relaxing)
 .ARM.exidx     0x00000000002d4c04        0x0 lib/libfastcv.a(libIlpsources_la-fastcvBoundingRectC.o)
                                          0x8 (size before relaxing)
 .ARM.exidx     0x00000000002d4c04        0x0 lib/libfastcv.a(libIlpsources_la-fastcvFilter1C.o)
                                         0x38 (size before relaxing)
 .ARM.exidx     0x00000000002d4c04        0x0 lib/libfastcv.a(libIlpsources_la-fastcvImagePostProcIlpC.o)
                                         0x10 (size before relaxing)
 .ARM.exidx     0x00000000002d4c04        0x0 lib/libfastcv.a(libIlpsources_la-fastcvScaleIlpC.o)
                                         0x20 (size before relaxing)
 .ARM.exidx     0x00000000002d4c04        0x0 lib/libfastcv.a(libfastcvIlpC_la-fastcvFastIlpC.o)
                                         0x20 (size before relaxing)
 .ARM.exidx     0x00000000002d4c04        0x0 lib/libfastcv.a(libfastcvFast10C_la-fastcvFast10C.o)
                                         0x30 (size before relaxing)
 .ARM.exidx     0x00000000002d4c04        0x0 lib/libfastcv.a(libfastcvMeanShiftC_la-fastcvMeanShiftC.o)
                                         0x70 (size before relaxing)
 .ARM.exidx     0x00000000002d4c04        0x0 lib/libfastcv.a(libfastcvPyramidC_la-fastcvPyramidC.o)
                                         0x68 (size before relaxing)
 .ARM.exidx     0x00000000002d4c04        0x0 lib/libfastcv.a(libfastcvHomographyC_la-fastcvHomographyC.o)
                                         0x48 (size before relaxing)
 .ARM.exidx     0x00000000002d4c04        0x0 lib/libfastcv.a(libfastcvThresholdC_la-fastcvThresholdC.o)
                                         0x38 (size before relaxing)
 .ARM.exidx     0x00000000002d4c04        0x0 lib/libfastcv.a(libfastcvBlurC_la-fastcvBlurC.o)
                                         0x28 (size before relaxing)
 .ARM.exidx     0x00000000002d4c04        0x0 lib/libfastcv.a(libfastcvFilterC_la-fastcvFilterC.o)
                                         0xd8 (size before relaxing)
 .ARM.exidx     0x00000000002d4c04        0x0 lib/libfastcv.a(libfastcv_la-fastcvManager_.o)
                                         0x80 (size before relaxing)
 .ARM.exidx     0x00000000002d4c04        0x0 lib/libfastcv.a(libfastcv_la-fastcvUtils.o)
                                         0x18 (size before relaxing)
 .ARM.exidx     0x00000000002d4c04        0x0 lib/libfastcv.a(libfastcvv_la-fastcvColorIppPlanarV.o)
                                         0x20 (size before relaxing)
 .ARM.exidx     0x00000000002d4c04        0x0 lib/libfastcv.a(libfastcvv_la-fastcvColorIppV.o)
                                         0x20 (size before relaxing)
 .ARM.exidx     0x00000000002d4c04        0x0 lib/libfastcv.a(libfastcvv_la-fastcvColorRgb2RgbV.o)
                                          0x8 (size before relaxing)
 .ARM.exidx     0x00000000002d4c04        0x0 lib/libfastcv.a(libfastcvv_la-fastcvIppDwtV.o)
                                         0x38 (size before relaxing)
 .ARM.exidx     0x00000000002d4c04        0x0 lib/libfastcv.a(libfastcvv_la-fastcvIppIdwtV.o)
                                         0x38 (size before relaxing)
 .ARM.exidx     0x00000000002d4c04       0x78 /media/ram/363029d1-6365-487a-b2e3-bd8d034c2ea4/fastcv/hexagondsp/Hexagon_SDK/3.5.2/tools/linaro/bin/../lib/gcc/arm-linux-gnueabihf/8.2.1/libgcc_eh.a(unwind-arm.o)
                                         0xd8 (size before relaxing)
 .ARM.exidx     0x00000000002d4c7c       0x30 /media/ram/363029d1-6365-487a-b2e3-bd8d034c2ea4/fastcv/hexagondsp/Hexagon_SDK/3.5.2/tools/linaro/bin/../lib/gcc/arm-linux-gnueabihf/8.2.1/libgcc_eh.a(pr-support.o)
                                         0x38 (size before relaxing)
 .ARM.exidx.text.unlikely
                0x00000000002d4b4c        0x8 /media/ram/363029d1-6365-487a-b2e3-bd8d034c2ea4/fastcv/hexagondsp/Hexagon_SDK/3.5.2/tools/linaro/bin/../lib/gcc/arm-linux-gnueabihf/8.2.1/libgcc_eh.a(pr-support.o)
                                         0x10 (size before relaxing)
 .ARM.exidx     0x00000000002d4cac        0x0 /media/ram/363029d1-6365-487a-b2e3-bd8d034c2ea4/fastcv/hexagondsp/Hexagon_SDK/3.5.2/tools/linaro/bin/../lib/gcc/arm-linux-gnueabihf/8.2.1/libgcc.a(_udivmoddi4.o)
                                          0x8 (size before relaxing)
                0x00000000002d4cac                PROVIDE (__exidx_end = .)

.eh_frame_hdr
 *(.eh_frame_hdr)
 *(.eh_frame_entry .eh_frame_entry.*)

.eh_frame       0x00000000002d4cac        0x4
 *(.eh_frame)
 .eh_frame      0x00000000002d4cac        0x4 /media/ram/363029d1-6365-487a-b2e3-bd8d034c2ea4/fastcv/hexagondsp/Hexagon_SDK/3.5.2/tools/linaro/bin/../lib/gcc/arm-linux-gnueabihf/8.2.1/crtend.o
 *(.eh_frame.*)

.gcc_except_table
 *(.gcc_except_table .gcc_except_table.*)

.gnu_extab
 *(.gnu_extab*)

.exception_ranges
 *(.exception_ranges .exception_ranges*)
                0x00000000002e5b60                . = DATA_SEGMENT_ALIGN (CONSTANT (MAXPAGESIZE), CONSTANT (COMMONPAGESIZE))

.eh_frame
 *(.eh_frame)
 *(.eh_frame.*)

.gnu_extab
 *(.gnu_extab)

.gcc_except_table
 *(.gcc_except_table .gcc_except_table.*)

.exception_ranges
 *(.exception_ranges .exception_ranges*)

.tdata
 *(.tdata .tdata.* .gnu.linkonce.td.*)

.tbss
 *(.tbss .tbss.* .gnu.linkonce.tb.*)
 *(.tcommon)

.preinit_array  0x00000000002e5b60        0x0
                [!provide]                        PROVIDE (__preinit_array_start = .)
 *(.preinit_array)
                [!provide]                        PROVIDE (__preinit_array_end = .)

.init_array     0x00000000002e5b60        0x8
                0x00000000002e5b60                PROVIDE (__init_array_start = .)
 *(SORT_BY_INIT_PRIORITY(.init_array.*) SORT_BY_INIT_PRIORITY(.ctors.*))
 *(.init_array EXCLUDE_FILE(*crtend?.o *crtend.o *crtbegin?.o *crtbegin.o) .ctors)
 .init_array    0x00000000002e5b60        0x4 /media/ram/363029d1-6365-487a-b2e3-bd8d034c2ea4/fastcv/hexagondsp/Hexagon_SDK/3.5.2/tools/linaro/bin/../lib/gcc/arm-linux-gnueabihf/8.2.1/crtbegin.o
 .init_array    0x00000000002e5b64        0x4 UbuntuARM_Release/ImageEnhance.o
                0x00000000002e5b68                PROVIDE (__init_array_end = .)

.fini_array     0x00000000002e5b68        0x4
                [!provide]                        PROVIDE (__fini_array_start = .)
 *(SORT_BY_INIT_PRIORITY(.fini_array.*) SORT_BY_INIT_PRIORITY(.dtors.*))
 *(.fini_array EXCLUDE_FILE(*crtend?.o *crtend.o *crtbegin?.o *crtbegin.o) .dtors)
 .fini_array    0x00000000002e5b68        0x4 /media/ram/363029d1-6365-487a-b2e3-bd8d034c2ea4/fastcv/hexagondsp/Hexagon_SDK/3.5.2/tools/linaro/bin/../lib/gcc/arm-linux-gnueabihf/8.2.1/crtbegin.o
                [!provide]                        PROVIDE (__fini_array_end = .)

.ctors
 *crtbegin.o(.ctors)
 *crtbegin?.o(.ctors)
 *(EXCLUDE_FILE(*crtend?.o *crtend.o) .ctors)
 *(SORT_BY_NAME(.ctors.*))
 *(.ctors)

.dtors
 *crtbegin.o(.dtors)
 *crtbegin?.o(.dtors)
 *(EXCLUDE_FILE(*crtend?.o *crtend.o) .dtors)
 *(SORT_BY_NAME(.dtors.*))
 *(.dtors)

.jcr
 *(.jcr)

.data.rel.ro    0x00000000002e5b6c      0x34c
 *(.data.rel.ro.local* .gnu.linkonce.d.rel.ro.local.*)
 *(.data.rel.ro .data.rel.ro.* .gnu.linkonce.d.rel.ro.*)
 .data.rel.ro   0x00000000002e5b6c       0x78 /media/ram/363029d1-6365-487a-b2e3-bd8d034c2ea4/fastcv/hexagondsp/Hexagon_SDK/3.5.2/tools/linaro/bin/../arm-linux-gnueabihf/libc/usr/lib/crt1.o
                0x00000000002e5b6c                vtable for __cxxabiv1::__enum_type_info
                0x00000000002e5b8c                vtable for __cxxabiv1::__class_type_info
                0x00000000002e5bb8                vtable for __cxxabiv1::__si_class_type_info
 .data.rel.ro._ZTIN2cv6StringE
                0x00000000002e5be4        0x8 UbuntuARM_Release/ImageEnhance.o
                0x00000000002e5be4                typeinfo for cv::String
 .data.rel.ro._ZTIN7cvflann17flann_algorithm_tE
                0x00000000002e5bec        0x8 UbuntuARM_Release/ImageEnhance.o
                0x00000000002e5bec                typeinfo for cvflann::flann_algorithm_t
 .data.rel.ro._ZTIN7cvflann20flann_centers_init_tE
                0x00000000002e5bf4        0x8 UbuntuARM_Release/ImageEnhance.o
                0x00000000002e5bf4                typeinfo for cvflann::flann_centers_init_t
 .data.rel.ro._ZTIN7cvflann7anyimpl15base_any_policyE
                0x00000000002e5bfc        0x8 UbuntuARM_Release/ImageEnhance.o
                0x00000000002e5bfc                typeinfo for cvflann::anyimpl::base_any_policy
 .data.rel.ro._ZTIN7cvflann7anyimpl21typed_base_any_policyINS_20flann_centers_init_tEEE
                0x00000000002e5c04        0xc UbuntuARM_Release/ImageEnhance.o
                0x00000000002e5c04                typeinfo for cvflann::anyimpl::typed_base_any_policy<cvflann::flann_centers_init_t>
 .data.rel.ro._ZTIN7cvflann7anyimpl14big_any_policyINS_20flann_centers_init_tEEE
                0x00000000002e5c10        0xc UbuntuARM_Release/ImageEnhance.o
                0x00000000002e5c10                typeinfo for cvflann::anyimpl::big_any_policy<cvflann::flann_centers_init_t>
 .data.rel.ro._ZTIN7cvflann7anyimpl21typed_base_any_policyINS_17flann_algorithm_tEEE
                0x00000000002e5c1c        0xc UbuntuARM_Release/ImageEnhance.o
                0x00000000002e5c1c                typeinfo for cvflann::anyimpl::typed_base_any_policy<cvflann::flann_algorithm_t>
 .data.rel.ro._ZTIN7cvflann7anyimpl14big_any_policyINS_17flann_algorithm_tEEE
                0x00000000002e5c28        0xc UbuntuARM_Release/ImageEnhance.o
                0x00000000002e5c28                typeinfo for cvflann::anyimpl::big_any_policy<cvflann::flann_algorithm_t>
 .data.rel.ro._ZTIN7cvflann7anyimpl21typed_base_any_policyIN2cv6StringEEE
                0x00000000002e5c34        0xc UbuntuARM_Release/ImageEnhance.o
                0x00000000002e5c34                typeinfo for cvflann::anyimpl::typed_base_any_policy<cv::String>
 .data.rel.ro._ZTIN7cvflann7anyimpl14big_any_policyIN2cv6StringEEE
                0x00000000002e5c40        0xc UbuntuARM_Release/ImageEnhance.o
                0x00000000002e5c40                typeinfo for cvflann::anyimpl::big_any_policy<cv::String>
 .data.rel.ro._ZTIN7cvflann7anyimpl21typed_base_any_policyINS0_9empty_anyEEE
                0x00000000002e5c4c        0xc UbuntuARM_Release/ImageEnhance.o
                0x00000000002e5c4c                typeinfo for cvflann::anyimpl::typed_base_any_policy<cvflann::anyimpl::empty_any>
 .data.rel.ro._ZTIN7cvflann7anyimpl14big_any_policyINS0_9empty_anyEEE
                0x00000000002e5c58        0xc UbuntuARM_Release/ImageEnhance.o
                0x00000000002e5c58                typeinfo for cvflann::anyimpl::big_any_policy<cvflann::anyimpl::empty_any>
 .data.rel.ro._ZTIN7cvflann7anyimpl9empty_anyE
                0x00000000002e5c64        0x8 UbuntuARM_Release/ImageEnhance.o
                0x00000000002e5c64                typeinfo for cvflann::anyimpl::empty_any
 .data.rel.ro._ZTIN7cvflann7anyimpl21typed_base_any_policyIPKcEE
                0x00000000002e5c6c        0xc UbuntuARM_Release/ImageEnhance.o
                0x00000000002e5c6c                typeinfo for cvflann::anyimpl::typed_base_any_policy<char const*>
 .data.rel.ro._ZTIN7cvflann7anyimpl16small_any_policyIPKcEE
                0x00000000002e5c78        0xc UbuntuARM_Release/ImageEnhance.o
                0x00000000002e5c78                typeinfo for cvflann::anyimpl::small_any_policy<char const*>
 .data.rel.ro._ZTIN7cvflann7anyimpl21typed_base_any_policyIiEE
                0x00000000002e5c84        0xc UbuntuARM_Release/ImageEnhance.o
                0x00000000002e5c84                typeinfo for cvflann::anyimpl::typed_base_any_policy<int>
 .data.rel.ro._ZTIN7cvflann7anyimpl16small_any_policyIiEE
                0x00000000002e5c90        0xc UbuntuARM_Release/ImageEnhance.o
                0x00000000002e5c90                typeinfo for cvflann::anyimpl::small_any_policy<int>
 .data.rel.ro._ZTIN7cvflann7anyimpl21typed_base_any_policyIfEE
                0x00000000002e5c9c        0xc UbuntuARM_Release/ImageEnhance.o
                0x00000000002e5c9c                typeinfo for cvflann::anyimpl::typed_base_any_policy<float>
 .data.rel.ro._ZTIN7cvflann7anyimpl16small_any_policyIfEE
                0x00000000002e5ca8        0xc UbuntuARM_Release/ImageEnhance.o
                0x00000000002e5ca8                typeinfo for cvflann::anyimpl::small_any_policy<float>
 .data.rel.ro._ZTIN7cvflann7anyimpl21typed_base_any_policyIbEE
                0x00000000002e5cb4        0xc UbuntuARM_Release/ImageEnhance.o
                0x00000000002e5cb4                typeinfo for cvflann::anyimpl::typed_base_any_policy<bool>
 .data.rel.ro._ZTIN7cvflann7anyimpl16small_any_policyIbEE
                0x00000000002e5cc0        0xc UbuntuARM_Release/ImageEnhance.o
                0x00000000002e5cc0                typeinfo for cvflann::anyimpl::small_any_policy<bool>
 .data.rel.ro._ZTIN7cvflann7anyimpl21typed_base_any_policyIjEE
                0x00000000002e5ccc        0xc UbuntuARM_Release/ImageEnhance.o
                0x00000000002e5ccc                typeinfo for cvflann::anyimpl::typed_base_any_policy<unsigned int>
 .data.rel.ro._ZTIN7cvflann7anyimpl16small_any_policyIjEE
                0x00000000002e5cd8        0xc UbuntuARM_Release/ImageEnhance.o
                0x00000000002e5cd8                typeinfo for cvflann::anyimpl::small_any_policy<unsigned int>
 .data.rel.ro._ZTVN7cvflann7anyimpl14big_any_policyINS_20flann_centers_init_tEEE
                0x00000000002e5ce4       0x34 UbuntuARM_Release/ImageEnhance.o
                0x00000000002e5ce4                vtable for cvflann::anyimpl::big_any_policy<cvflann::flann_centers_init_t>
 .data.rel.ro._ZTVN7cvflann7anyimpl14big_any_policyINS_17flann_algorithm_tEEE
                0x00000000002e5d18       0x34 UbuntuARM_Release/ImageEnhance.o
                0x00000000002e5d18                vtable for cvflann::anyimpl::big_any_policy<cvflann::flann_algorithm_t>
 .data.rel.ro._ZTVN7cvflann7anyimpl14big_any_policyIN2cv6StringEEE
                0x00000000002e5d4c       0x34 UbuntuARM_Release/ImageEnhance.o
                0x00000000002e5d4c                vtable for cvflann::anyimpl::big_any_policy<cv::String>
 .data.rel.ro._ZTVN7cvflann7anyimpl14big_any_policyINS0_9empty_anyEEE
                0x00000000002e5d80       0x34 UbuntuARM_Release/ImageEnhance.o
                0x00000000002e5d80                vtable for cvflann::anyimpl::big_any_policy<cvflann::anyimpl::empty_any>
 .data.rel.ro._ZTVN7cvflann7anyimpl16small_any_policyIPKcEE
                0x00000000002e5db4       0x34 UbuntuARM_Release/ImageEnhance.o
                0x00000000002e5db4                vtable for cvflann::anyimpl::small_any_policy<char const*>
 .data.rel.ro._ZTVN7cvflann7anyimpl16small_any_policyIiEE
                0x00000000002e5de8       0x34 UbuntuARM_Release/ImageEnhance.o
                0x00000000002e5de8                vtable for cvflann::anyimpl::small_any_policy<int>
 .data.rel.ro._ZTVN7cvflann7anyimpl16small_any_policyIfEE
                0x00000000002e5e1c       0x34 UbuntuARM_Release/ImageEnhance.o
                0x00000000002e5e1c                vtable for cvflann::anyimpl::small_any_policy<float>
 .data.rel.ro._ZTVN7cvflann7anyimpl16small_any_policyIbEE
                0x00000000002e5e50       0x34 UbuntuARM_Release/ImageEnhance.o
                0x00000000002e5e50                vtable for cvflann::anyimpl::small_any_policy<bool>
 .data.rel.ro._ZTVN7cvflann7anyimpl16small_any_policyIjEE
                0x00000000002e5e84       0x34 UbuntuARM_Release/ImageEnhance.o
                0x00000000002e5e84                vtable for cvflann::anyimpl::small_any_policy<unsigned int>

.dynamic        0x00000000002e5eb8      0x148
 *(.dynamic)
 .dynamic       0x00000000002e5eb8      0x148 /media/ram/363029d1-6365-487a-b2e3-bd8d034c2ea4/fastcv/hexagondsp/Hexagon_SDK/3.5.2/tools/linaro/bin/../arm-linux-gnueabihf/libc/usr/lib/crt1.o
                0x00000000002e5eb8                _DYNAMIC
                0x00000000002e6000                . = DATA_SEGMENT_RELRO_END (., 0x0)

.got            0x00000000002e6000     0x1428
 *(.got.plt)
 .got.plt       0x00000000002e6000      0x178 /media/ram/363029d1-6365-487a-b2e3-bd8d034c2ea4/fastcv/hexagondsp/Hexagon_SDK/3.5.2/tools/linaro/bin/../arm-linux-gnueabihf/libc/usr/lib/crt1.o
                0x00000000002e6000                _GLOBAL_OFFSET_TABLE_
 *(.igot.plt)
 .igot.plt      0x00000000002e6178        0x0 /media/ram/363029d1-6365-487a-b2e3-bd8d034c2ea4/fastcv/hexagondsp/Hexagon_SDK/3.5.2/tools/linaro/bin/../arm-linux-gnueabihf/libc/usr/lib/crt1.o
 *(.got)
 .got           0x00000000002e6178     0x12b0 /media/ram/363029d1-6365-487a-b2e3-bd8d034c2ea4/fastcv/hexagondsp/Hexagon_SDK/3.5.2/tools/linaro/bin/../arm-linux-gnueabihf/libc/usr/lib/crt1.o
 *(.igot)

.data           0x00000000002e7428     0x9b74
                [!provide]                        PROVIDE (__data_start = .)
 *(.data .data.* .gnu.linkonce.d.*)
 .data          0x00000000002e7428        0x4 /media/ram/363029d1-6365-487a-b2e3-bd8d034c2ea4/fastcv/hexagondsp/Hexagon_SDK/3.5.2/tools/linaro/bin/../arm-linux-gnueabihf/libc/usr/lib/crt1.o
                0x00000000002e7428                data_start
                0x00000000002e7428                __data_start
 .data          0x00000000002e742c        0x0 /media/ram/363029d1-6365-487a-b2e3-bd8d034c2ea4/fastcv/hexagondsp/Hexagon_SDK/3.5.2/tools/linaro/bin/../arm-linux-gnueabihf/libc/usr/lib/crti.o
 .data          0x00000000002e742c        0x4 /media/ram/363029d1-6365-487a-b2e3-bd8d034c2ea4/fastcv/hexagondsp/Hexagon_SDK/3.5.2/tools/linaro/bin/../lib/gcc/arm-linux-gnueabihf/8.2.1/crtbegin.o
                0x00000000002e742c                __dso_handle
 .data          0x00000000002e7430        0x0 /media/ram/363029d1-6365-487a-b2e3-bd8d034c2ea4/fastcv/hexagondsp/Hexagon_SDK/3.5.2/tools/linaro/bin/../arm-linux-gnueabihf/libc/usr/lib/libc_nonshared.a(elf-init.oS)
 .data          0x00000000002e7430        0x0 UbuntuARM_Release/ImageEnhance.o
 .data.rel._ZN7cvflann7anyimpl12SinglePolicyIN2cv6StringEE6policyE
                0x00000000002e7430        0x4 UbuntuARM_Release/ImageEnhance.o
                0x00000000002e7430                cvflann::anyimpl::SinglePolicy<cv::String>::policy
 .data.rel._ZN7cvflann7anyimpl12SinglePolicyIjE6policyE
                0x00000000002e7434        0x4 UbuntuARM_Release/ImageEnhance.o
                0x00000000002e7434                cvflann::anyimpl::SinglePolicy<unsigned int>::policy
 .data.rel._ZN7cvflann7anyimpl12SinglePolicyINS_20flann_centers_init_tEE6policyE
                0x00000000002e7438        0x4 UbuntuARM_Release/ImageEnhance.o
                0x00000000002e7438                cvflann::anyimpl::SinglePolicy<cvflann::flann_centers_init_t>::policy
 .data.rel._ZN7cvflann7anyimpl12SinglePolicyINS_17flann_algorithm_tEE6policyE
                0x00000000002e743c        0x4 UbuntuARM_Release/ImageEnhance.o
                0x00000000002e743c                cvflann::anyimpl::SinglePolicy<cvflann::flann_algorithm_t>::policy
 .data.rel._ZN7cvflann7anyimpl12SinglePolicyIbE6policyE
                0x00000000002e7440        0x4 UbuntuARM_Release/ImageEnhance.o
                0x00000000002e7440                cvflann::anyimpl::SinglePolicy<bool>::policy
 .data.rel._ZN7cvflann7anyimpl12SinglePolicyIfE6policyE
                0x00000000002e7444        0x4 UbuntuARM_Release/ImageEnhance.o
                0x00000000002e7444                cvflann::anyimpl::SinglePolicy<float>::policy
 .data.rel._ZN7cvflann7anyimpl12SinglePolicyIiE6policyE
                0x00000000002e7448        0x4 UbuntuARM_Release/ImageEnhance.o
                0x00000000002e7448                cvflann::anyimpl::SinglePolicy<int>::policy
 .data.rel._ZN7cvflann7anyimpl12SinglePolicyIPKcE6policyE
                0x00000000002e744c        0x4 UbuntuARM_Release/ImageEnhance.o
                0x00000000002e744c                cvflann::anyimpl::SinglePolicy<char const*>::policy
 .data.rel._ZN7cvflann7anyimpl12SinglePolicyINS0_9empty_anyEE6policyE
                0x00000000002e7450        0x4 UbuntuARM_Release/ImageEnhance.o
                0x00000000002e7450                cvflann::anyimpl::SinglePolicy<cvflann::anyimpl::empty_any>::policy
 .data          0x00000000002e7454       0x1c lib/libfastcv.a(libfastcv_la-fastcvManager.o)
                0x00000000002e7454                fcvImplChar
 .data          0x00000000002e7470        0x0 lib/libfastcv.a(libfastcv_la-fastcvMemAndroid.o)
 .data          0x00000000002e7470        0xc lib/libfastcv.a(libfastcv_la-fastcvMem.o)
                0x00000000002e7470                fcvGetScratchBufferAligned_
                0x00000000002e7474                fcvGetScratchBufferUnaligned_
                0x00000000002e7478                fcvReleaseScratchBuffer_
 .data          0x00000000002e747c     0x45d8 lib/libfastcv.a(libfastcv_la-fastcv.o)
                0x00000000002e747c                nFcvAvailableProc
                0x00000000002e7480                fcvFuncTable
                0x00000000002eabd8                fcvInternalFuncTable
                0x00000000002ead98                mode_globalVar
                0x00000000002ead9c                fcvFilterMedian3x3u8_v2_
                0x00000000002eada0                ppfcvFilterMedian3x3u8_v2
                0x00000000002eada4                fcvFilterGaussian3x3u8_v2_
                0x00000000002eada8                ppfcvFilterGaussian3x3u8_v2
                0x00000000002eadac                fcvFilterGaussian5x5u8_v2_
                0x00000000002eadb0                ppfcvFilterGaussian5x5u8_v2
                0x00000000002eadb4                fcvFilterGaussian11x11u8_v2_
                0x00000000002eadb8                ppfcvFilterGaussian11x11u8_v2
                0x00000000002eadbc                fcvColorYCrCb420PseudoPlanarToRGB8888u8_
                0x00000000002eadc0                ppfcvColorYCrCb420PseudoPlanarToRGB8888u8
                0x00000000002eadc4                fcvColorYUV420toRGB565u8_
                0x00000000002eadc8                ppfcvColorYUV420toRGB565u8
                0x00000000002eadcc                fcvColorYCrCbH1V1toRGB888u8_
                0x00000000002eadd0                ppfcvColorYCrCbH1V1toRGB888u8
                0x00000000002eadd4                fcvColorYCrCbH2V2toRGB888u8_
                0x00000000002eadd8                ppfcvColorYCrCbH2V2toRGB888u8
                0x00000000002eaddc                fcvColorYCrCbH2V1toRGB888u8_
                0x00000000002eade0                ppfcvColorYCrCbH2V1toRGB888u8
                0x00000000002eade4                fcvColorYCrCbH1V2toRGB888u8_
                0x00000000002eade8                ppfcvColorYCrCbH1V2toRGB888u8
                0x00000000002eadec                fcvColorRGB888toYCrCbu8_v2_
                0x00000000002eadf0                ppfcvColorRGB888toYCrCbu8_v2
                0x00000000002eadf4                fcvDescriptor17x17u8To36s8_
                0x00000000002eadf8                ppfcvDescriptor17x17u8To36s8
                0x00000000002eadfc                fcvDescriptorSampledMeanAndVar36f32_
                0x00000000002eae00                ppfcvDescriptorSampledMeanAndVar36f32
                0x00000000002eae04                fcvDotProducts8_
                0x00000000002eae08                ppfcvDotProducts8
                0x00000000002eae0c                fcvDotProductu8_
                0x00000000002eae10                ppfcvDotProductu8
                0x00000000002eae14                fcvDotProduct36x1s8_
                0x00000000002eae18                ppfcvDotProduct36x1s8
                0x00000000002eae1c                fcvDotProduct36x4s8_
                0x00000000002eae20                ppfcvDotProduct36x4s8
                0x00000000002eae24                fcvDotProductNorm36x4s8_
                0x00000000002eae28                ppfcvDotProductNorm36x4s8
                0x00000000002eae2c                fcvDotProduct36x1u8_
                0x00000000002eae30                ppfcvDotProduct36x1u8
                0x00000000002eae34                fcvDotProduct36x4u8_
                0x00000000002eae38                ppfcvDotProduct36x4u8
                0x00000000002eae3c                fcvDotProductNorm36x4u8_
                0x00000000002eae40                ppfcvDotProductNorm36x4u8
                0x00000000002eae44                fcvDotProduct64x1s8_
                0x00000000002eae48                ppfcvDotProduct64x1s8
                0x00000000002eae4c                fcvDotProduct64x4s8_
                0x00000000002eae50                ppfcvDotProduct64x4s8
                0x00000000002eae54                fcvDotProductNorm64x4s8_
                0x00000000002eae58                ppfcvDotProductNorm64x4s8
                0x00000000002eae5c                fcvDotProduct64x1u8_
                0x00000000002eae60                ppfcvDotProduct64x1u8
                0x00000000002eae64                fcvDotProduct64x4u8_
                0x00000000002eae68                ppfcvDotProduct64x4u8
                0x00000000002eae6c                fcvDotProductNorm64x4u8_
                0x00000000002eae70                ppfcvDotProductNorm64x4u8
                0x00000000002eae74                fcvDotProduct128x1s8_
                0x00000000002eae78                ppfcvDotProduct128x1s8
                0x00000000002eae7c                fcvDotProduct128x4s8_
                0x00000000002eae80                ppfcvDotProduct128x4s8
                0x00000000002eae84                fcvDotProductNorm128x4s8_
                0x00000000002eae88                ppfcvDotProductNorm128x4s8
                0x00000000002eae8c                fcvDotProduct128x1u8_
                0x00000000002eae90                ppfcvDotProduct128x1u8
                0x00000000002eae94                fcvDotProduct128x4u8_
                0x00000000002eae98                ppfcvDotProduct128x4u8
                0x00000000002eae9c                fcvDotProductNorm128x4u8_
                0x00000000002eaea0                ppfcvDotProductNorm128x4u8
                0x00000000002eaea4                fcvDotProduct8x8u8_
                0x00000000002eaea8                ppfcvDotProduct8x8u8
                0x00000000002eaeac                fcvDotProduct11x12u8_
                0x00000000002eaeb0                ppfcvDotProduct11x12u8
                0x00000000002eaeb4                fcvFilterSobel3x3u8_v2_
                0x00000000002eaeb8                ppfcvFilterSobel3x3u8_v2
                0x00000000002eaebc                fcvFilterCanny3x3u8_v2_
                0x00000000002eaec0                ppfcvFilterCanny3x3u8_v2
                0x00000000002eaec4                fcvFilterCanny3x3u8_v3_
                0x00000000002eaec8                ppfcvFilterCanny3x3u8_v3
                0x00000000002eaecc                fcvImageDiffu8_v2_
                0x00000000002eaed0                ppfcvImageDiffu8_v2
                0x00000000002eaed4                fcvImageDiffs16_v2_
                0x00000000002eaed8                ppfcvImageDiffs16_v2
                0x00000000002eaedc                fcvImageGradientInterleaveds16_v2_
                0x00000000002eaee0                ppfcvImageGradientInterleaveds16_v2
                0x00000000002eaee4                fcvImageGradientInterleavedf32_v2_
                0x00000000002eaee8                ppfcvImageGradientInterleavedf32_v2
                0x00000000002eaeec                fcvImageGradientPlanars16_v2_
                0x00000000002eaef0                ppfcvImageGradientPlanars16_v2
                0x00000000002eaef4                fcvImageGradientPlanarf32_v2_
                0x00000000002eaef8                ppfcvImageGradientPlanarf32_v2
                0x00000000002eaefc                fcvImageGradientSobelInterleaveds16_v2_
                0x00000000002eaf00                ppfcvImageGradientSobelInterleaveds16_v2
                0x00000000002eaf04                fcvImageGradientSobelInterleaveds16_v3_
                0x00000000002eaf08                ppfcvImageGradientSobelInterleaveds16_v3
                0x00000000002eaf0c                fcvImageGradientSobelInterleavedf32_v2_
                0x00000000002eaf10                ppfcvImageGradientSobelInterleavedf32_v2
                0x00000000002eaf14                fcvImageGradientSobelPlanars16_v2_
                0x00000000002eaf18                ppfcvImageGradientSobelPlanars16_v2
                0x00000000002eaf1c                fcvImageGradientSobelPlanars16_v3_
                0x00000000002eaf20                ppfcvImageGradientSobelPlanars16_v3
                0x00000000002eaf24                fcvImageGradientSobelPlanarf32_v2_
                0x00000000002eaf28                ppfcvImageGradientSobelPlanarf32_v2
                0x00000000002eaf2c                fcvImageGradientSobelPlanarf32f32_v2_
                0x00000000002eaf30                ppfcvImageGradientSobelPlanarf32f32_v2
                0x00000000002eaf34                fcvClusterEuclideanf32_
                0x00000000002eaf38                ppfcvClusterEuclideanf32
                0x00000000002eaf3c                fcvClusterEuclideanu8_
                0x00000000002eaf40                ppfcvClusterEuclideanu8
                0x00000000002eaf44                fcvClusterEuclideanNormedf32_
                0x00000000002eaf48                ppfcvClusterEuclideanNormedf32
                0x00000000002eaf4c                fcvClusterEuclideanNormed36f32_
                0x00000000002eaf50                ppfcvClusterEuclideanNormed36f32
                0x00000000002eaf54                fcvImageGradientSobelPlanars8_v2_
                0x00000000002eaf58                ppfcvImageGradientSobelPlanars8_v2
                0x00000000002eaf5c                fcvCornerFast9u8_v2_
                0x00000000002eaf60                ppfcvCornerFast9u8_v2
                0x00000000002eaf64                fcvCornerFast9Scoreu8_v3_
                0x00000000002eaf68                ppfcvCornerFast9Scoreu8_v3
                0x00000000002eaf6c                fcvCornerFast9InMasku8_v2_
                0x00000000002eaf70                ppfcvCornerFast9InMasku8_v2
                0x00000000002eaf74                fcvCornerFast9InMaskScoreu8_v3_
                0x00000000002eaf78                ppfcvCornerFast9InMaskScoreu8_v3
                0x00000000002eaf7c                fcvCornerFast9Scoreu8_v4_
                0x00000000002eaf80                ppfcvCornerFast9Scoreu8_v4
                0x00000000002eaf84                fcvCornerFast9InMaskScoreu8_v4_
                0x00000000002eaf88                ppfcvCornerFast9InMaskScoreu8_v4
                0x00000000002eaf8c                fcvCornerHarrisu8_
                0x00000000002eaf90                ppfcvCornerHarrisu8
                0x00000000002eaf94                fcvLocalHarrisMaxu8_
                0x00000000002eaf98                ppfcvLocalHarrisMaxu8
                0x00000000002eaf9c                fcvCornerHarrisInMasku8_
                0x00000000002eafa0                ppfcvCornerHarrisInMasku8
                0x00000000002eafa4                fcvGeomAffineFitf32_
                0x00000000002eafa8                ppfcvGeomAffineFitf32
                0x00000000002eafac                fcvGeomAffineEvaluatef32_
                0x00000000002eafb0                ppfcvGeomAffineEvaluatef32
                0x00000000002eafb4                fcvGeomHomographyFitf32_
                0x00000000002eafb8                ppfcvGeomHomographyFitf32
                0x00000000002eafbc                fcvGeomHomographyEvaluatef32_
                0x00000000002eafc0                ppfcvGeomHomographyEvaluatef32
                0x00000000002eafc4                fcvGeomPoseRefineGNf32_
                0x00000000002eafc8                ppfcvGeomPoseRefineGNf32
                0x00000000002eafcc                fcvGeomPoseUpdatef32_
                0x00000000002eafd0                ppfcvGeomPoseUpdatef32
                0x00000000002eafd4                fcvGeomPoseOptimizeGNf32_
                0x00000000002eafd8                ppfcvGeomPoseOptimizeGNf32
                0x00000000002eafdc                fcvGeomPoseEvaluateErrorf32_
                0x00000000002eafe0                ppfcvGeomPoseEvaluateErrorf32
                0x00000000002eafe4                fcvGeomPoseEvaluatef32_
                0x00000000002eafe8                ppfcvGeomPoseEvaluatef32
                0x00000000002eafec                fcvGeom3PointPoseEstimatef32_
                0x00000000002eaff0                ppfcvGeom3PointPoseEstimatef32
                0x00000000002eaff4                fcvImageSegmentationRegionGrow_
                0x00000000002eaff8                ppfcvImageSegmentationRegionGrow
                0x00000000002eaffc                fcvFilterCorr3x3s8_v2_
                0x00000000002eb000                ppfcvFilterCorr3x3s8_v2
                0x00000000002eb004                fcvFilterCorrSep9x9s16_v3_
                0x00000000002eb008                ppfcvFilterCorrSep9x9s16_v3
                0x00000000002eb00c                fcvFilterCorrSep11x11s16_v3_
                0x00000000002eb010                ppfcvFilterCorrSep11x11s16_v3
                0x00000000002eb014                fcvFilterCorrSep13x13s16_v3_
                0x00000000002eb018                ppfcvFilterCorrSep13x13s16_v3
                0x00000000002eb01c                fcvFilterCorrSep15x15s16_v3_
                0x00000000002eb020                ppfcvFilterCorrSep15x15s16_v3
                0x00000000002eb024                fcvFilterCorrSep17x17s16_v3_
                0x00000000002eb028                ppfcvFilterCorrSep17x17s16_v3
                0x00000000002eb02c                fcvFilterCorrSepNxNs16_
                0x00000000002eb030                ppfcvFilterCorrSepNxNs16
                0x00000000002eb034                fcvImageIntensityStats_
                0x00000000002eb038                ppfcvImageIntensityStats
                0x00000000002eb03c                fcvImageIntensityHistogram_
                0x00000000002eb040                ppfcvImageIntensityHistogram
                0x00000000002eb044                fcvIntegrateImageu8_v2_
                0x00000000002eb048                ppfcvIntegrateImageu8_v2
                0x00000000002eb04c                fcvIntegratePatchu8_v2_
                0x00000000002eb050                ppfcvIntegratePatchu8_v2
                0x00000000002eb054                fcvIntegratePatch12x12u8_v2_
                0x00000000002eb058                ppfcvIntegratePatch12x12u8_v2
                0x00000000002eb05c                fcvIntegratePatch18x18u8_v2_
                0x00000000002eb060                ppfcvIntegratePatch18x18u8_v2
                0x00000000002eb064                fcvIntegrateImageLineu8_
                0x00000000002eb068                ppfcvIntegrateImageLineu8
                0x00000000002eb06c                fcvIntegrateImageLine64u8_
                0x00000000002eb070                ppfcvIntegrateImageLine64u8
                0x00000000002eb074                fcvNCCPatchOnCircle8x8u8_v2_
                0x00000000002eb078                ppfcvNCCPatchOnCircle8x8u8_v2
                0x00000000002eb07c                fcvNCCPatchOnSquare8x8u8_v2_
                0x00000000002eb080                ppfcvNCCPatchOnSquare8x8u8_v2
                0x00000000002eb084                fcvVecNormalize36s8f32_
                0x00000000002eb088                ppfcvVecNormalize36s8f32
                0x00000000002eb08c                fcvSumOfAbsoluteDiffs8x8u8_v2_
                0x00000000002eb090                ppfcvSumOfAbsoluteDiffs8x8u8_v2
                0x00000000002eb094                fcvSumOfAbsoluteDiffs16x16u8_
                0x00000000002eb098                ppfcvSumOfAbsoluteDiffs16x16u8
                0x00000000002eb09c                fcvSumOfAbsoluteDiff8x8u8_
                0x00000000002eb0a0                ppfcvSumOfAbsoluteDiff8x8u8
                0x00000000002eb0a4                fcvSumOfAbsoluteDiff16x16u8_
                0x00000000002eb0a8                ppfcvSumOfAbsoluteDiff16x16u8
                0x00000000002eb0ac                fcvScaleDownBy2u8_v2_
                0x00000000002eb0b0                ppfcvScaleDownBy2u8_v2
                0x00000000002eb0b4                fcvScaleDownBy4u8_v2_
                0x00000000002eb0b8                ppfcvScaleDownBy4u8_v2
                0x00000000002eb0bc                fcvScaleDown3To2u8_
                0x00000000002eb0c0                ppfcvScaleDown3To2u8
                0x00000000002eb0c4                fcvScaleDownNNu8_
                0x00000000002eb0c8                ppfcvScaleDownNNu8
                0x00000000002eb0cc                fcvScaleDownu8_v2_
                0x00000000002eb0d0                ppfcvScaleDownu8_v2
                0x00000000002eb0d4                fcvScaleUpBy2Gaussian5x5u8_v2_
                0x00000000002eb0d8                ppfcvScaleUpBy2Gaussian5x5u8_v2
                0x00000000002eb0dc                fcvScaleDownBy2Gaussian5x5u8_
                0x00000000002eb0e0                ppfcvScaleDownBy2Gaussian5x5u8
                0x00000000002eb0e4                fcvScaleDownBy2Gaussian5x5u8_v2_
                0x00000000002eb0e8                ppfcvScaleDownBy2Gaussian5x5u8_v2
                0x00000000002eb0ec                fcvScaleDownBy2Gaussian5x5f32_
                0x00000000002eb0f0                ppfcvScaleDownBy2Gaussian5x5f32
                0x00000000002eb0f4                fcvScaleDownBy2Gaussian5x5f32_v2_
                0x00000000002eb0f8                ppfcvScaleDownBy2Gaussian5x5f32_v2
                0x00000000002eb0fc                fcvSumOfSquaredDiffs36x4s8_
                0x00000000002eb100                ppfcvSumOfSquaredDiffs36x4s8
                0x00000000002eb104                fcvSumOfSquaredDiffs36xNs8_
                0x00000000002eb108                ppfcvSumOfSquaredDiffs36xNs8
                0x00000000002eb10c                fcvSort8Scoresf32_
                0x00000000002eb110                ppfcvSort8Scoresf32
                0x00000000002eb114                fcvFilterThresholdu8_v2_
                0x00000000002eb118                ppfcvFilterThresholdu8_v2
                0x00000000002eb11c                fcvTransformAffine8x8u8_v2_
                0x00000000002eb120                ppfcvTransformAffine8x8u8_v2
                0x00000000002eb124                fcvWarpPerspectiveu8_
                0x00000000002eb128                ppfcvWarpPerspectiveu8
                0x00000000002eb12c                fcvWarpPerspectiveu8_v2_
                0x00000000002eb130                ppfcvWarpPerspectiveu8_v2
                0x00000000002eb134                fcv3ChannelWarpPerspectiveu8_
                0x00000000002eb138                ppfcv3ChannelWarpPerspectiveu8
                0x00000000002eb13c                fcv3ChannelWarpPerspectiveu8_v2_
                0x00000000002eb140                ppfcv3ChannelWarpPerspectiveu8_v2
                0x00000000002eb144                fcvFilterDilate3x3u8_v2_
                0x00000000002eb148                ppfcvFilterDilate3x3u8_v2
                0x00000000002eb14c                fcvFilterErode3x3u8_v2_
                0x00000000002eb150                ppfcvFilterErode3x3u8_v2
                0x00000000002eb154                fcvFilterGaussian5x5s16_v2_
                0x00000000002eb158                ppfcvFilterGaussian5x5s16_v2
                0x00000000002eb15c                fcvFilterGaussian5x5s32_v2_
                0x00000000002eb160                ppfcvFilterGaussian5x5s32_v2
                0x00000000002eb164                fcvTransformAffineu8_v2_
                0x00000000002eb168                ppfcvTransformAffineu8_v2
                0x00000000002eb16c                fcvCopyRotated17x17u8_
                0x00000000002eb170                ppfcvCopyRotated17x17u8
                0x00000000002eb174                fcvCopy_
                0x00000000002eb178                ppfcvCopy
                0x00000000002eb17c                fcvTrackLKOpticalFlowf32_
                0x00000000002eb180                ppfcvTrackLKOpticalFlowf32
                0x00000000002eb184                fcvTrackLKOpticalFlowu8_
                0x00000000002eb188                ppfcvTrackLKOpticalFlowu8
                0x00000000002eb18c                fcvPyramidCreatef32_
                0x00000000002eb190                ppfcvPyramidCreatef32
                0x00000000002eb194                fcvPyramidCreateu8_
                0x00000000002eb198                ppfcvPyramidCreateu8
                0x00000000002eb19c                fcvPyramidAllocate_
                0x00000000002eb1a0                ppfcvPyramidAllocate
                0x00000000002eb1a4                fcvPyramidDelete_
                0x00000000002eb1a8                ppfcvPyramidDelete
                0x00000000002eb1ac                fcvPyramidSobelGradientCreatei16_
                0x00000000002eb1b0                ppfcvPyramidSobelGradientCreatei16
                0x00000000002eb1b4                fcvPyramidSobelGradientCreatei8_
                0x00000000002eb1b8                ppfcvPyramidSobelGradientCreatei8
                0x00000000002eb1bc                fcvPyramidSobelGradientCreatef32_
                0x00000000002eb1c0                ppfcvPyramidSobelGradientCreatef32
                0x00000000002eb1c4                fcvBitCountu8_
                0x00000000002eb1c8                ppfcvBitCountu8
                0x00000000002eb1cc                fcvBitCount32x1u8_
                0x00000000002eb1d0                ppfcvBitCount32x1u8
                0x00000000002eb1d4                fcvBitCount32x4u8_
                0x00000000002eb1d8                ppfcvBitCount32x4u8
                0x00000000002eb1dc                fcvBitCount64x1u8_
                0x00000000002eb1e0                ppfcvBitCount64x1u8
                0x00000000002eb1e4                fcvBitCount64x4u8_
                0x00000000002eb1e8                ppfcvBitCount64x4u8
                0x00000000002eb1ec                fcvBitCountu32_
                0x00000000002eb1f0                ppfcvBitCountu32
                0x00000000002eb1f4                fcvHammingDistanceu8_
                0x00000000002eb1f8                ppfcvHammingDistanceu8
                0x00000000002eb1fc                fcvHammingDistance32x1u8a4_
                0x00000000002eb200                ppfcvHammingDistance32x1u8a4
                0x00000000002eb204                fcvHammingDistance64x1u8a4_
                0x00000000002eb208                ppfcvHammingDistance64x1u8a4
                0x00000000002eb20c                fcvHammingDistance32x1u8_
                0x00000000002eb210                ppfcvHammingDistance32x1u8
                0x00000000002eb214                fcvHammingDistance64x1u8_
                0x00000000002eb218                ppfcvHammingDistance64x1u8
                0x00000000002eb21c                fcvHammingDistance32x4u8a4_
                0x00000000002eb220                ppfcvHammingDistance32x4u8a4
                0x00000000002eb224                fcvHammingDistance64x4u8a4_
                0x00000000002eb228                ppfcvHammingDistance64x4u8a4
                0x00000000002eb22c                fcvHammingDistance64x4u8_
                0x00000000002eb230                ppfcvHammingDistance64x4u8
                0x00000000002eb234                fcvBitwiseOru8_
                0x00000000002eb238                ppfcvBitwiseOru8
                0x00000000002eb23c                fcvBitwiseOrs32_
                0x00000000002eb240                ppfcvBitwiseOrs32
                0x00000000002eb244                fcvColorRGB888ToGrayu8_
                0x00000000002eb248                ppfcvColorRGB888ToGrayu8
                0x00000000002eb24c                fcvTiltedIntegralu8s32_
                0x00000000002eb250                ppfcvTiltedIntegralu8s32
                0x00000000002eb254                fcvConvValids16_
                0x00000000002eb258                ppfcvConvValids16
                0x00000000002eb25c                fcvKMeansTreeSearch36x10s8_
                0x00000000002eb260                ppfcvKMeansTreeSearch36x10s8
                0x00000000002eb264                fcvLinearSearch8x36s8_
                0x00000000002eb268                ppfcvLinearSearch8x36s8
                0x00000000002eb26c                fcvLinearSearchPrepare8x36s8_v2_
                0x00000000002eb270                ppfcvLinearSearchPrepare8x36s8_v2
                0x00000000002eb274                fcvImageDifff32_v2_
                0x00000000002eb278                ppfcvImageDifff32_v2
                0x00000000002eb27c                fcvImageDiffu8f32_v3_
                0x00000000002eb280                ppfcvImageDiffu8f32_v3
                0x00000000002eb284                fcvImageDiffu8s8_v2_
                0x00000000002eb288                ppfcvImageDiffu8s8_v2
                0x00000000002eb28c                fcvKDTreeCreate36s8f32_
                0x00000000002eb290                ppfcvKDTreeCreate36s8f32
                0x00000000002eb294                fcvKDTreeDestroy36s8f32_
                0x00000000002eb298                ppfcvKDTreeDestroy36s8f32
                0x00000000002eb29c                fcvKDTreeQuery36s8f32_
                0x00000000002eb2a0                ppfcvKDTreeQuery36s8f32
                0x00000000002eb2a4                fcvColorYUV420toRGB565u8Rotate180_
                0x00000000002eb2a8                ppfcvColorYUV420toRGB565u8Rotate180
                0x00000000002eb2ac                fcvTrackBMOpticalFlow16x16u8_
                0x00000000002eb2b0                ppfcvTrackBMOpticalFlow16x16u8
                0x00000000002eb2b4                fcvBoundingRectangle_
                0x00000000002eb2b8                ppfcvBoundingRectangle
                0x00000000002eb2bc                fcvMserInit_
                0x00000000002eb2c0                ppfcvMserInit
                0x00000000002eb2c4                fcvMseru8_
                0x00000000002eb2c8                ppfcvMseru8
                0x00000000002eb2cc                fcvMserExtu8_
                0x00000000002eb2d0                ppfcvMserExtu8
                0x00000000002eb2d4                fcvMseru8_v2_
                0x00000000002eb2d8                ppfcvMseru8_v2
                0x00000000002eb2dc                fcvMserExtu8_v2_
                0x00000000002eb2e0                ppfcvMserExtu8_v2
                0x00000000002eb2e4                fcvMserExtu8_v3_
                0x00000000002eb2e8                ppfcvMserExtu8_v3
                0x00000000002eb2ec                fcvMserSplitExtu8_
                0x00000000002eb2f0                ppfcvMserSplitExtu8
                0x00000000002eb2f4                fcvMserRelease_
                0x00000000002eb2f8                ppfcvMserRelease
                0x00000000002eb2fc                fcvMserNN8Init_
                0x00000000002eb300                ppfcvMserNN8Init
                0x00000000002eb304                fcvMserNN8u8_
                0x00000000002eb308                ppfcvMserNN8u8
                0x00000000002eb30c                fcvMserExtNN8u8_
                0x00000000002eb310                ppfcvMserExtNN8u8
                0x00000000002eb314                fcvUpsampleVerticalu8_
                0x00000000002eb318                ppfcvUpsampleVerticalu8
                0x00000000002eb31c                fcvUpsampleHorizontalu8_
                0x00000000002eb320                ppfcvUpsampleHorizontalu8
                0x00000000002eb324                fcvUpsample2Du8_
                0x00000000002eb328                ppfcvUpsample2Du8
                0x00000000002eb32c                fcvUpsampleVerticalInterleavedu8_
                0x00000000002eb330                ppfcvUpsampleVerticalInterleavedu8
                0x00000000002eb334                fcvUpsampleHorizontalInterleavedu8_
                0x00000000002eb338                ppfcvUpsampleHorizontalInterleavedu8
                0x00000000002eb33c                fcvUpsample2DInterleavedu8_
                0x00000000002eb340                ppfcvUpsample2DInterleavedu8
                0x00000000002eb344                fcvColorRGB565ToYCbCr444Planaru8_
                0x00000000002eb348                ppfcvColorRGB565ToYCbCr444Planaru8
                0x00000000002eb34c                fcvColorRGB565ToYCbCr422Planaru8_
                0x00000000002eb350                ppfcvColorRGB565ToYCbCr422Planaru8
                0x00000000002eb354                fcvColorRGB565ToYCbCr420Planaru8_
                0x00000000002eb358                ppfcvColorRGB565ToYCbCr420Planaru8
                0x00000000002eb35c                fcvColorRGB888ToYCbCr444Planaru8_
                0x00000000002eb360                ppfcvColorRGB888ToYCbCr444Planaru8
                0x00000000002eb364                fcvColorRGB888ToYCbCr422Planaru8_
                0x00000000002eb368                ppfcvColorRGB888ToYCbCr422Planaru8
                0x00000000002eb36c                fcvColorRGB888ToYCbCr420Planaru8_
                0x00000000002eb370                ppfcvColorRGB888ToYCbCr420Planaru8
                0x00000000002eb374                fcvColorRGBA8888ToYCbCr444Planaru8_
                0x00000000002eb378                ppfcvColorRGBA8888ToYCbCr444Planaru8
                0x00000000002eb37c                fcvColorRGBA8888ToYCbCr422Planaru8_
                0x00000000002eb380                ppfcvColorRGBA8888ToYCbCr422Planaru8
                0x00000000002eb384                fcvColorRGBA8888ToYCbCr420Planaru8_
                0x00000000002eb388                ppfcvColorRGBA8888ToYCbCr420Planaru8
                0x00000000002eb38c                fcvColorRGB565ToYCbCr444PseudoPlanaru8_
                0x00000000002eb390                ppfcvColorRGB565ToYCbCr444PseudoPlanaru8
                0x00000000002eb394                fcvColorRGB565ToYCbCr422PseudoPlanaru8_
                0x00000000002eb398                ppfcvColorRGB565ToYCbCr422PseudoPlanaru8
                0x00000000002eb39c                fcvColorRGB565ToYCbCr420PseudoPlanaru8_
                0x00000000002eb3a0                ppfcvColorRGB565ToYCbCr420PseudoPlanaru8
                0x00000000002eb3a4                fcvColorRGB888ToYCbCr444PseudoPlanaru8_
                0x00000000002eb3a8                ppfcvColorRGB888ToYCbCr444PseudoPlanaru8
                0x00000000002eb3ac                fcvColorRGB888ToYCbCr422PseudoPlanaru8_
                0x00000000002eb3b0                ppfcvColorRGB888ToYCbCr422PseudoPlanaru8
                0x00000000002eb3b4                fcvColorRGB888ToYCbCr420PseudoPlanaru8_
                0x00000000002eb3b8                ppfcvColorRGB888ToYCbCr420PseudoPlanaru8
                0x00000000002eb3bc                fcvColorRGBA8888ToYCbCr444PseudoPlanaru8_
                0x00000000002eb3c0                ppfcvColorRGBA8888ToYCbCr444PseudoPlanaru8
                0x00000000002eb3c4                fcvColorRGBA8888ToYCbCr422PseudoPlanaru8_
                0x00000000002eb3c8                ppfcvColorRGBA8888ToYCbCr422PseudoPlanaru8
                0x00000000002eb3cc                fcvColorRGBA8888ToYCbCr420PseudoPlanaru8_
                0x00000000002eb3d0                ppfcvColorRGBA8888ToYCbCr420PseudoPlanaru8
                0x00000000002eb3d4                fcvColorRGB565ToRGB888u8_
                0x00000000002eb3d8                ppfcvColorRGB565ToRGB888u8
                0x00000000002eb3dc                fcvColorRGB565ToRGBA8888u8_
                0x00000000002eb3e0                ppfcvColorRGB565ToRGBA8888u8
                0x00000000002eb3e4                fcvColorRGB565ToBGR565u8_
                0x00000000002eb3e8                ppfcvColorRGB565ToBGR565u8
                0x00000000002eb3ec                fcvColorRGB565ToBGR888u8_
                0x00000000002eb3f0                ppfcvColorRGB565ToBGR888u8
                0x00000000002eb3f4                fcvColorRGB565ToBGRA8888u8_
                0x00000000002eb3f8                ppfcvColorRGB565ToBGRA8888u8
                0x00000000002eb3fc                fcvColorRGB888ToRGB565u8_
                0x00000000002eb400                ppfcvColorRGB888ToRGB565u8
                0x00000000002eb404                fcvColorRGB888ToRGBA8888u8_
                0x00000000002eb408                ppfcvColorRGB888ToRGBA8888u8
                0x00000000002eb40c                fcvColorRGB888ToBGR565u8_
                0x00000000002eb410                ppfcvColorRGB888ToBGR565u8
                0x00000000002eb414                fcvColorRGB888ToBGR888u8_
                0x00000000002eb418                ppfcvColorRGB888ToBGR888u8
                0x00000000002eb41c                fcvColorRGB888ToBGRA8888u8_
                0x00000000002eb420                ppfcvColorRGB888ToBGRA8888u8
                0x00000000002eb424                fcvColorRGBA8888ToRGB565u8_
                0x00000000002eb428                ppfcvColorRGBA8888ToRGB565u8
                0x00000000002eb42c                fcvColorRGBA8888ToRGB888u8_
                0x00000000002eb430                ppfcvColorRGBA8888ToRGB888u8
                0x00000000002eb434                fcvColorRGBA8888ToBGR565u8_
                0x00000000002eb438                ppfcvColorRGBA8888ToBGR565u8
                0x00000000002eb43c                fcvColorRGBA8888ToBGR888u8_
                0x00000000002eb440                ppfcvColorRGBA8888ToBGR888u8
                0x00000000002eb444                fcvColorRGBA8888ToBGRA8888u8_
                0x00000000002eb448                ppfcvColorRGBA8888ToBGRA8888u8
                0x00000000002eb44c                fcvColorRGBA8888ToLABu8_
                0x00000000002eb450                ppfcvColorRGBA8888ToLABu8
                0x00000000002eb454                fcvColorYCbCr444PlanarToYCbCr422Planaru8_
                0x00000000002eb458                ppfcvColorYCbCr444PlanarToYCbCr422Planaru8
                0x00000000002eb45c                fcvColorYCbCr444PlanarToYCbCr420Planaru8_
                0x00000000002eb460                ppfcvColorYCbCr444PlanarToYCbCr420Planaru8
                0x00000000002eb464                fcvColorYCbCr444PlanarToYCbCr444PseudoPlanaru8_
                0x00000000002eb468                ppfcvColorYCbCr444PlanarToYCbCr444PseudoPlanaru8
                0x00000000002eb46c                fcvColorYCbCr444PlanarToYCbCr422PseudoPlanaru8_
                0x00000000002eb470                ppfcvColorYCbCr444PlanarToYCbCr422PseudoPlanaru8
                0x00000000002eb474                fcvColorYCbCr444PlanarToYCbCr420PseudoPlanaru8_
                0x00000000002eb478                ppfcvColorYCbCr444PlanarToYCbCr420PseudoPlanaru8
                0x00000000002eb47c                fcvColorYCbCr422PlanarToYCbCr444Planaru8_
                0x00000000002eb480                ppfcvColorYCbCr422PlanarToYCbCr444Planaru8
                0x00000000002eb484                fcvColorYCbCr422PlanarToYCbCr420Planaru8_
                0x00000000002eb488                ppfcvColorYCbCr422PlanarToYCbCr420Planaru8
                0x00000000002eb48c                fcvColorYCbCr422PlanarToYCbCr444PseudoPlanaru8_
                0x00000000002eb490                ppfcvColorYCbCr422PlanarToYCbCr444PseudoPlanaru8
                0x00000000002eb494                fcvColorYCbCr422PlanarToYCbCr422PseudoPlanaru8_
                0x00000000002eb498                ppfcvColorYCbCr422PlanarToYCbCr422PseudoPlanaru8
                0x00000000002eb49c                fcvColorYCbCr422PlanarToYCbCr420PseudoPlanaru8_
                0x00000000002eb4a0                ppfcvColorYCbCr422PlanarToYCbCr420PseudoPlanaru8
                0x00000000002eb4a4                fcvColorYCbCr420PlanarToYCbCr444Planaru8_
                0x00000000002eb4a8                ppfcvColorYCbCr420PlanarToYCbCr444Planaru8
                0x00000000002eb4ac                fcvColorYCbCr420PlanarToYCbCr422Planaru8_
                0x00000000002eb4b0                ppfcvColorYCbCr420PlanarToYCbCr422Planaru8
                0x00000000002eb4b4                fcvColorYCbCr420PlanarToYCbCr444PseudoPlanaru8_
                0x00000000002eb4b8                ppfcvColorYCbCr420PlanarToYCbCr444PseudoPlanaru8
                0x00000000002eb4bc                fcvColorYCbCr420PlanarToYCbCr422PseudoPlanaru8_
                0x00000000002eb4c0                ppfcvColorYCbCr420PlanarToYCbCr422PseudoPlanaru8
                0x00000000002eb4c4                fcvColorYCbCr420PlanarToYCbCr420PseudoPlanaru8_
                0x00000000002eb4c8                ppfcvColorYCbCr420PlanarToYCbCr420PseudoPlanaru8
                0x00000000002eb4cc                fcvColorYCbCr444PseudoPlanarToYCbCr422PseudoPlanaru8_
                0x00000000002eb4d0                ppfcvColorYCbCr444PseudoPlanarToYCbCr422PseudoPlanaru8
                0x00000000002eb4d4                fcvColorYCbCr444PseudoPlanarToYCbCr420PseudoPlanaru8_
                0x00000000002eb4d8                ppfcvColorYCbCr444PseudoPlanarToYCbCr420PseudoPlanaru8
                0x00000000002eb4dc                fcvColorYCbCr444PseudoPlanarToYCbCr444Planaru8_
                0x00000000002eb4e0                ppfcvColorYCbCr444PseudoPlanarToYCbCr444Planaru8
                0x00000000002eb4e4                fcvColorYCbCr444PseudoPlanarToYCbCr422Planaru8_
                0x00000000002eb4e8                ppfcvColorYCbCr444PseudoPlanarToYCbCr422Planaru8
                0x00000000002eb4ec                fcvColorYCbCr444PseudoPlanarToYCbCr420Planaru8_
                0x00000000002eb4f0                ppfcvColorYCbCr444PseudoPlanarToYCbCr420Planaru8
                0x00000000002eb4f4                fcvColorYCbCr422PseudoPlanarToYCbCr444PseudoPlanaru8_
                0x00000000002eb4f8                ppfcvColorYCbCr422PseudoPlanarToYCbCr444PseudoPlanaru8
                0x00000000002eb4fc                fcvColorYCbCr422PseudoPlanarToYCbCr420PseudoPlanaru8_
                0x00000000002eb500                ppfcvColorYCbCr422PseudoPlanarToYCbCr420PseudoPlanaru8
                0x00000000002eb504                fcvColorYCbCr422PseudoPlanarToYCbCr444Planaru8_
                0x00000000002eb508                ppfcvColorYCbCr422PseudoPlanarToYCbCr444Planaru8
                0x00000000002eb50c                fcvColorYCbCr422PseudoPlanarToYCbCr422Planaru8_
                0x00000000002eb510                ppfcvColorYCbCr422PseudoPlanarToYCbCr422Planaru8
                0x00000000002eb514                fcvColorYCbCr422PseudoPlanarToYCbCr420Planaru8_
                0x00000000002eb518                ppfcvColorYCbCr422PseudoPlanarToYCbCr420Planaru8
                0x00000000002eb51c                fcvColorYCbCr420PseudoPlanarToYCbCr444PseudoPlanaru8_
                0x00000000002eb520                ppfcvColorYCbCr420PseudoPlanarToYCbCr444PseudoPlanaru8
                0x00000000002eb524                fcvColorYCbCr420PseudoPlanarToYCbCr422PseudoPlanaru8_
                0x00000000002eb528                ppfcvColorYCbCr420PseudoPlanarToYCbCr422PseudoPlanaru8
                0x00000000002eb52c                fcvColorYCbCr420PseudoPlanarToYCbCr444Planaru8_
                0x00000000002eb530                ppfcvColorYCbCr420PseudoPlanarToYCbCr444Planaru8
                0x00000000002eb534                fcvColorYCbCr420PseudoPlanarToYCbCr422Planaru8_
                0x00000000002eb538                ppfcvColorYCbCr420PseudoPlanarToYCbCr422Planaru8
                0x00000000002eb53c                fcvColorYCbCr420PseudoPlanarToYCbCr420Planaru8_
                0x00000000002eb540                ppfcvColorYCbCr420PseudoPlanarToYCbCr420Planaru8
                0x00000000002eb544                fcvColorYCbCr444PlanarToRGB565u8_
                0x00000000002eb548                ppfcvColorYCbCr444PlanarToRGB565u8
                0x00000000002eb54c                fcvColorYCbCr444PlanarToRGB888u8_
                0x00000000002eb550                ppfcvColorYCbCr444PlanarToRGB888u8
                0x00000000002eb554                fcvColorYCbCr444PlanarToRGBA8888u8_
                0x00000000002eb558                ppfcvColorYCbCr444PlanarToRGBA8888u8
                0x00000000002eb55c                fcvColorYCbCr422PlanarToRGB565u8_
                0x00000000002eb560                ppfcvColorYCbCr422PlanarToRGB565u8
                0x00000000002eb564                fcvColorYCbCr422PlanarToRGB888u8_
                0x00000000002eb568                ppfcvColorYCbCr422PlanarToRGB888u8
                0x00000000002eb56c                fcvColorYCbCr422PlanarToRGBA8888u8_
                0x00000000002eb570                ppfcvColorYCbCr422PlanarToRGBA8888u8
                0x00000000002eb574                fcvColorYCbCr420PlanarToRGB565u8_
                0x00000000002eb578                ppfcvColorYCbCr420PlanarToRGB565u8
                0x00000000002eb57c                fcvColorYCbCr420PlanarToRGB888u8_
                0x00000000002eb580                ppfcvColorYCbCr420PlanarToRGB888u8
                0x00000000002eb584                fcvColorYCbCr420PlanarToRGBA8888u8_
                0x00000000002eb588                ppfcvColorYCbCr420PlanarToRGBA8888u8
                0x00000000002eb58c                fcvColorYCbCr444PseudoPlanarToRGB565u8_
                0x00000000002eb590                ppfcvColorYCbCr444PseudoPlanarToRGB565u8
                0x00000000002eb594                fcvColorYCbCr444PseudoPlanarToRGB888u8_
                0x00000000002eb598                ppfcvColorYCbCr444PseudoPlanarToRGB888u8
                0x00000000002eb59c                fcvColorYCbCr444PseudoPlanarToRGBA8888u8_
                0x00000000002eb5a0                ppfcvColorYCbCr444PseudoPlanarToRGBA8888u8
                0x00000000002eb5a4                fcvColorYCbCr422PseudoPlanarToRGB565u8_
                0x00000000002eb5a8                ppfcvColorYCbCr422PseudoPlanarToRGB565u8
                0x00000000002eb5ac                fcvColorYCbCr422PseudoPlanarToRGB888u8_
                0x00000000002eb5b0                ppfcvColorYCbCr422PseudoPlanarToRGB888u8
                0x00000000002eb5b4                fcvColorYCbCr422PseudoPlanarToRGBA8888u8_
                0x00000000002eb5b8                ppfcvColorYCbCr422PseudoPlanarToRGBA8888u8
                0x00000000002eb5bc                fcvColorYCbCr420PseudoPlanarToRGB565u8_
                0x00000000002eb5c0                ppfcvColorYCbCr420PseudoPlanarToRGB565u8
                0x00000000002eb5c4                fcvColorYCbCr420PseudoPlanarToRGB888u8_
                0x00000000002eb5c8                ppfcvColorYCbCr420PseudoPlanarToRGB888u8
                0x00000000002eb5cc                fcvColorYCbCr420PseudoPlanarToRGBA8888u8_
                0x00000000002eb5d0                ppfcvColorYCbCr420PseudoPlanarToRGBA8888u8
                0x00000000002eb5d4                fcvEdgeWeightings16_
                0x00000000002eb5d8                ppfcvEdgeWeightings16
                0x00000000002eb5dc                fcvDeinterleaveu8_
                0x00000000002eb5e0                ppfcvDeinterleaveu8
                0x00000000002eb5e4                fcvInterleaveu8_
                0x00000000002eb5e8                ppfcvInterleaveu8
                0x00000000002eb5ec                fcvDWTHaarTransposeu8_
                0x00000000002eb5f0                ppfcvDWTHaarTransposeu8
                0x00000000002eb5f4                fcvDWT53TabTransposes16_
                0x00000000002eb5f8                ppfcvDWT53TabTransposes16
                0x00000000002eb5fc                fcvIDWT53TabTransposes16_
                0x00000000002eb600                ppfcvIDWT53TabTransposes16
                0x00000000002eb604                fcvIDWTHaarTransposes16_
                0x00000000002eb608                ppfcvIDWTHaarTransposes16
                0x00000000002eb60c                fcvScaleUpPolyu8_
                0x00000000002eb610                ppfcvScaleUpPolyu8
                0x00000000002eb614                fcvScaleUpPolyInterleaveu8_
                0x00000000002eb618                ppfcvScaleUpPolyInterleaveu8
                0x00000000002eb61c                fcvScaleDownMNu8_
                0x00000000002eb620                ppfcvScaleDownMNu8
                0x00000000002eb624                fcvScaleDownMNInterleaveu8_
                0x00000000002eb628                ppfcvScaleDownMNInterleaveu8
                0x00000000002eb62c                fcvFindContoursExternalu8_
                0x00000000002eb630                ppfcvFindContoursExternalu8
                0x00000000002eb634                fcvFindContoursListu8_
                0x00000000002eb638                ppfcvFindContoursListu8
                0x00000000002eb63c                fcvFindContoursCcompu8_
                0x00000000002eb640                ppfcvFindContoursCcompu8
                0x00000000002eb644                fcvFindContoursTreeu8_
                0x00000000002eb648                ppfcvFindContoursTreeu8
                0x00000000002eb64c                fcvFindContoursAllocate_
                0x00000000002eb650                ppfcvFindContoursAllocate
                0x00000000002eb654                fcvFindContoursDelete_
                0x00000000002eb658                ppfcvFindContoursDelete
                0x00000000002eb65c                fcvSolvef32_
                0x00000000002eb660                ppfcvSolvef32
                0x00000000002eb664                fcvGetPerspectiveTransformf32_
                0x00000000002eb668                ppfcvGetPerspectiveTransformf32
                0x00000000002eb66c                fcvSetElementsu8_
                0x00000000002eb670                ppfcvSetElementsu8
                0x00000000002eb674                fcvSetElementss32_
                0x00000000002eb678                ppfcvSetElementss32
                0x00000000002eb67c                fcvSetElementsf32_
                0x00000000002eb680                ppfcvSetElementsf32
                0x00000000002eb684                fcvSetElementsc4u8_
                0x00000000002eb688                ppfcvSetElementsc4u8
                0x00000000002eb68c                fcvSetElementsc4s32_
                0x00000000002eb690                ppfcvSetElementsc4s32
                0x00000000002eb694                fcvSetElementsc4f32_
                0x00000000002eb698                ppfcvSetElementsc4f32
                0x00000000002eb69c                fcvSetElementsc3u8_
                0x00000000002eb6a0                ppfcvSetElementsc3u8
                0x00000000002eb6a4                fcvSetElementsc3s32_
                0x00000000002eb6a8                ppfcvSetElementsc3s32
                0x00000000002eb6ac                fcvSetElementsc3f32_
                0x00000000002eb6b0                ppfcvSetElementsc3f32
                0x00000000002eb6b4                fcvAdaptiveThresholdGaussian3x3u8_
                0x00000000002eb6b8                ppfcvAdaptiveThresholdGaussian3x3u8
                0x00000000002eb6bc                fcvAdaptiveThresholdGaussian5x5u8_
                0x00000000002eb6c0                ppfcvAdaptiveThresholdGaussian5x5u8
                0x00000000002eb6c4                fcvAdaptiveThresholdGaussian11x11u8_
                0x00000000002eb6c8                ppfcvAdaptiveThresholdGaussian11x11u8
                0x00000000002eb6cc                fcvAdaptiveThresholdMean3x3u8_
                0x00000000002eb6d0                ppfcvAdaptiveThresholdMean3x3u8
                0x00000000002eb6d4                fcvAdaptiveThresholdMean5x5u8_
                0x00000000002eb6d8                ppfcvAdaptiveThresholdMean5x5u8
                0x00000000002eb6dc                fcvAdaptiveThresholdMean11x11u8_
                0x00000000002eb6e0                ppfcvAdaptiveThresholdMean11x11u8
                0x00000000002eb6e4                fcvBoxFilter3x3u8_
                0x00000000002eb6e8                ppfcvBoxFilter3x3u8
                0x00000000002eb6ec                fcvBoxFilter5x5u8_
                0x00000000002eb6f0                ppfcvBoxFilter5x5u8
                0x00000000002eb6f4                fcvBoxFilter11x11u8_
                0x00000000002eb6f8                ppfcvBoxFilter11x11u8
                0x00000000002eb6fc                fcvBoxFilterNxNf32_
                0x00000000002eb700                ppfcvBoxFilterNxNf32
                0x00000000002eb704                fcvBilateralFilter5x5u8_
                0x00000000002eb708                ppfcvBilateralFilter5x5u8
                0x00000000002eb70c                fcvBilateralFilter7x7u8_
                0x00000000002eb710                ppfcvBilateralFilter7x7u8
                0x00000000002eb714                fcvBilateralFilter9x9u8_
                0x00000000002eb718                ppfcvBilateralFilter9x9u8
                0x00000000002eb71c                fcvSegmentFGMasku8_
                0x00000000002eb720                ppfcvSegmentFGMasku8
                0x00000000002eb724                fcvDrawContouru8_
                0x00000000002eb728                ppfcvDrawContouru8
                0x00000000002eb72c                fcvDrawContourInterleavedu8_
                0x00000000002eb730                ppfcvDrawContourInterleavedu8
                0x00000000002eb734                fcvDrawContourPlanaru8_
                0x00000000002eb738                ppfcvDrawContourPlanaru8
                0x00000000002eb73c                fcvAbsDiffu8_
                0x00000000002eb740                ppfcvAbsDiffu8
                0x00000000002eb744                fcvAbsDiffs32_
                0x00000000002eb748                ppfcvAbsDiffs32
                0x00000000002eb74c                fcvAbsDifff32_
                0x00000000002eb750                ppfcvAbsDifff32
                0x00000000002eb754                fcvAbsDiffVu8_
                0x00000000002eb758                ppfcvAbsDiffVu8
                0x00000000002eb75c                fcvAbsDiffVs32_
                0x00000000002eb760                ppfcvAbsDiffVs32
                0x00000000002eb764                fcvAbsDiffVf32_
                0x00000000002eb768                ppfcvAbsDiffVf32
                0x00000000002eb76c                fcvAbsDiffVc4u8_
                0x00000000002eb770                ppfcvAbsDiffVc4u8
                0x00000000002eb774                fcvAbsDiffVc4s32_
                0x00000000002eb778                ppfcvAbsDiffVc4s32
                0x00000000002eb77c                fcvAbsDiffVc4f32_
                0x00000000002eb780                ppfcvAbsDiffVc4f32
                0x00000000002eb784                fcvAbsDiffVc3u8_
                0x00000000002eb788                ppfcvAbsDiffVc3u8
                0x00000000002eb78c                fcvAbsDiffVc3s32_
                0x00000000002eb790                ppfcvAbsDiffVc3s32
                0x00000000002eb794                fcvAbsDiffVc3f32_
                0x00000000002eb798                ppfcvAbsDiffVc3f32
                0x00000000002eb79c                fcvImageGradientScharrInterleaveds16_
                0x00000000002eb7a0                ppfcvImageGradientScharrInterleaveds16
                0x00000000002eb7a4                fcvColorRGB888ToRGB565Rotate180u8_
                0x00000000002eb7a8                ppfcvColorRGB888ToRGB565Rotate180u8
                0x00000000002eb7ac                fcvDWTHaaru8_
                0x00000000002eb7b0                ppfcvDWTHaaru8
                0x00000000002eb7b4                fcvDWT53Tabs16_
                0x00000000002eb7b8                ppfcvDWT53Tabs16
                0x00000000002eb7bc                fcvIDWT53Tabs16_
                0x00000000002eb7c0                ppfcvIDWT53Tabs16
                0x00000000002eb7c4                fcvIDWTHaars16_
                0x00000000002eb7c8                ppfcvIDWTHaars16
                0x00000000002eb7cc                fcvDCTu8_
                0x00000000002eb7d0                ppfcvDCTu8
                0x00000000002eb7d4                fcvIDCTs16_
                0x00000000002eb7d8                ppfcvIDCTs16
                0x00000000002eb7dc                fcvCornerFast10u8_
                0x00000000002eb7e0                ppfcvCornerFast10u8
                0x00000000002eb7e4                fcvCornerFast10Scoreu8_
                0x00000000002eb7e8                ppfcvCornerFast10Scoreu8
                0x00000000002eb7ec                fcvCornerFast10InMasku8_
                0x00000000002eb7f0                ppfcvCornerFast10InMasku8
                0x00000000002eb7f4                fcvCornerFast10InMaskScoreu8_
                0x00000000002eb7f8                ppfcvCornerFast10InMaskScoreu8
                0x00000000002eb7fc                fcvSVDf32_
                0x00000000002eb800                ppfcvSVDf32
                0x00000000002eb804                fcvFloodfillSimpleu8_
                0x00000000002eb808                ppfcvFloodfillSimpleu8
                0x00000000002eb80c                fcvUpdateMotionHistoryu8s32_
                0x00000000002eb810                ppfcvUpdateMotionHistoryu8s32
                0x00000000002eb814                fcvIntegrateImageYCbCr420PseudoPlanaru8_
                0x00000000002eb818                ppfcvIntegrateImageYCbCr420PseudoPlanaru8
                0x00000000002eb81c                fcvFindForegroundIntegrateImageYCbCr420u32_
                0x00000000002eb820                ppfcvFindForegroundIntegrateImageYCbCr420u32
                0x00000000002eb824                fcvAverages32_
                0x00000000002eb828                ppfcvAverages32
                0x00000000002eb82c                fcvAverageu8_
                0x00000000002eb830                ppfcvAverageu8
                0x00000000002eb834                fcvRemapRGBA8888NNu8_
                0x00000000002eb838                ppfcvRemapRGBA8888NNu8
                0x00000000002eb83c                fcvRemapRGBA8888BLu8_
                0x00000000002eb840                ppfcvRemapRGBA8888BLu8
                0x00000000002eb844                fcvCreateBGCodeBookModel_
                0x00000000002eb848                ppfcvCreateBGCodeBookModel
                0x00000000002eb84c                fcvReleaseBGCodeBookModel_
                0x00000000002eb850                ppfcvReleaseBGCodeBookModel
                0x00000000002eb854                fcvConfigBGCodeBookModel_
                0x00000000002eb858                ppfcvConfigBGCodeBookModel
                0x00000000002eb85c                fcvBGCodeBookUpdateu8_
                0x00000000002eb860                ppfcvBGCodeBookUpdateu8
                0x00000000002eb864                fcvBGCodeBookDiffu8_
                0x00000000002eb868                ppfcvBGCodeBookDiffu8
                0x00000000002eb86c                fcvBGCodeBookClearStaleu8_
                0x00000000002eb870                ppfcvBGCodeBookClearStaleu8
                0x00000000002eb874                fcvGeomDistortPoint2x1f32_
                0x00000000002eb878                ppfcvGeomDistortPoint2x1f32
                0x00000000002eb87c                fcvGeomDistortPoint2xNf32_
                0x00000000002eb880                ppfcvGeomDistortPoint2xNf32
                0x00000000002eb884                fcvGeomUndistortPoint2x1f32_
                0x00000000002eb888                ppfcvGeomUndistortPoint2x1f32
                0x00000000002eb88c                fcvGeomUndistortPoint2xNf32_
                0x00000000002eb890                ppfcvGeomUndistortPoint2xNf32
                0x00000000002eb894                fcvGeomProjectPoint3x1f32_
                0x00000000002eb898                ppfcvGeomProjectPoint3x1f32
                0x00000000002eb89c                fcvGeomProjectPoint3xNf32_
                0x00000000002eb8a0                ppfcvGeomProjectPoint3xNf32
                0x00000000002eb8a4                fcvMeanShiftu8_
                0x00000000002eb8a8                ppfcvMeanShiftu8
                0x00000000002eb8ac                fcvMeanShifts32_
                0x00000000002eb8b0                ppfcvMeanShifts32
                0x00000000002eb8b4                fcvMeanShiftf32_
                0x00000000002eb8b8                ppfcvMeanShiftf32
                0x00000000002eb8bc                fcvConAdaTracku8_
                0x00000000002eb8c0                ppfcvConAdaTracku8
                0x00000000002eb8c4                fcvConAdaTracks32_
                0x00000000002eb8c8                ppfcvConAdaTracks32
                0x00000000002eb8cc                fcvConAdaTrackf32_
                0x00000000002eb8d0                ppfcvConAdaTrackf32
                0x00000000002eb8d4                fcvJacobianSE2f32_
                0x00000000002eb8d8                ppfcvJacobianSE2f32
                0x00000000002eb8dc                fcvSolveCholeskyf32_
                0x00000000002eb8e0                ppfcvSolveCholeskyf32
                0x00000000002eb8e4                fcvFillConvexPolyu8_
                0x00000000002eb8e8                ppfcvFillConvexPolyu8
                0x00000000002eb8ec                fcvPointPolygonTest_
                0x00000000002eb8f0                ppfcvPointPolygonTest
                0x00000000002eb8f4                fcvTransformAffineClippedu8_
                0x00000000002eb8f8                ppfcvTransformAffineClippedu8
                0x00000000002eb8fc                fcvHoughCircleu8_
                0x00000000002eb900                ppfcvHoughCircleu8
                0x00000000002eb904                fcvFindConvexHull_
                0x00000000002eb908                ppfcvFindConvexHull
                0x00000000002eb90c                probeQ6Time_
                0x00000000002eb910                ppprobeQ6Time
                0x00000000002eb914                fcvRegisterBuf_
                0x00000000002eb918                ppfcvRegisterBuf
                0x00000000002eb91c                fcvImageMomentsu8_
                0x00000000002eb920                ppfcvImageMomentsu8
                0x00000000002eb924                fcvImageMomentss32_
                0x00000000002eb928                ppfcvImageMomentss32
                0x00000000002eb92c                fcvImageMomentsf32_
                0x00000000002eb930                ppfcvImageMomentsf32
                0x00000000002eb934                fcvSolveLDLf32_
                0x00000000002eb938                ppfcvSolveLDLf32
                0x00000000002eb93c                fcvDotProductf32_
                0x00000000002eb940                ppfcvDotProductf32
                0x00000000002eb944                fcv3ChannelTransformAffineClippedBCu8_
                0x00000000002eb948                ppfcv3ChannelTransformAffineClippedBCu8
                0x00000000002eb94c                fcvFilterThresholdOtsuu8_
                0x00000000002eb950                ppfcvFilterThresholdOtsuu8
                0x00000000002eb954                fcvImageDetectEdgePixelsu8_
                0x00000000002eb958                ppfcvImageDetectEdgePixelsu8
                0x00000000002eb95c                fcvSumOfSquaredDiffsu8_
                0x00000000002eb960                ppfcvSumOfSquaredDiffsu8
                0x00000000002eb964                fcvTransposeu8_
                0x00000000002eb968                ppfcvTransposeu8
                0x00000000002eb96c                fcvSumOfSquaredDiffsf32_
                0x00000000002eb970                ppfcvSumOfSquaredDiffsf32
                0x00000000002eb974                fcvGeomHomographyEvaluatef32_v2_
                0x00000000002eb978                ppfcvGeomHomographyEvaluatef32_v2
                0x00000000002eb97c                fcvTransposeu16_
                0x00000000002eb980                ppfcvTransposeu16
                0x00000000002eb984                fcvTransposef32_
                0x00000000002eb988                ppfcvTransposef32
                0x00000000002eb98c                fcvFlipu8_
                0x00000000002eb990                ppfcvFlipu8
                0x00000000002eb994                fcvFlipu16_
                0x00000000002eb998                ppfcvFlipu16
                0x00000000002eb99c                fcvElementMultiplyu8u16_
                0x00000000002eb9a0                ppfcvElementMultiplyu8u16
                0x00000000002eb9a4                fcvElementMultiplyf32_
                0x00000000002eb9a8                ppfcvElementMultiplyf32
                0x00000000002eb9ac                fcvMatrixMultiplys8s32_
                0x00000000002eb9b0                ppfcvMatrixMultiplys8s32
                0x00000000002eb9b4                fcvMatrixMultiplyf32_
                0x00000000002eb9b8                ppfcvMatrixMultiplyf32
                0x00000000002eb9bc                fcvBlockDotProductu8_
                0x00000000002eb9c0                ppfcvBlockDotProductu8
                0x00000000002eb9c4                fcvBlockDotProductf32_
                0x00000000002eb9c8                ppfcvBlockDotProductf32
                0x00000000002eb9cc                fcvAddu8u16_
                0x00000000002eb9d0                ppfcvAddu8u16
                0x00000000002eb9d4                fcvAdds16_
                0x00000000002eb9d8                ppfcvAdds16
                0x00000000002eb9dc                fcvAddf32_
                0x00000000002eb9e0                ppfcvAddf32
                0x00000000002eb9e4                fcvIntegrateImageu8u64_
                0x00000000002eb9e8                ppfcvIntegrateImageu8u64
                0x00000000002eb9ec                fcvImageHistogramEqualizeu8_
                0x00000000002eb9f0                ppfcvImageHistogramEqualizeu8
                0x00000000002eb9f4                fcvImageSpatialHistogramu8_
                0x00000000002eb9f8                ppfcvImageSpatialHistogramu8
                0x00000000002eb9fc                fcvScaleDownBLu8_
                0x00000000002eba00                ppfcvScaleDownBLu8
                0x00000000002eba04                fcvPyramidCreatef32_v2_
                0x00000000002eba08                ppfcvPyramidCreatef32_v2
                0x00000000002eba0c                fcvPyramidCreateu8_v2_
                0x00000000002eba10                ppfcvPyramidCreateu8_v2
                0x00000000002eba14                fcvTrackLKOpticalFlowu8_v2_
                0x00000000002eba18                ppfcvTrackLKOpticalFlowu8_v2
                0x00000000002eba1c                fcvSumOfSquaredDiffss8_
                0x00000000002eba20                ppfcvSumOfSquaredDiffss8
                0x00000000002eba24                fcvHoughLineu8_
                0x00000000002eba28                ppfcvHoughLineu8
                0x00000000002eba2c                fcvPyramidAllocate_v2_
                0x00000000002eba30                ppfcvPyramidAllocate_v2
                0x00000000002eba34                fcvPyramidDelete_v2_
                0x00000000002eba38                ppfcvPyramidDelete_v2
                0x00000000002eba3c                fcvColorCbCrSwapu8_
                0x00000000002eba40                ppfcvColorCbCrSwapu8
                0x00000000002eba44                ppfcvSharedMemAlloc
                0x00000000002eba48                ppfcvSharedMemFree
                0x00000000002eba4c                fcvCornerHarrisAdaptiveu8_
                0x00000000002eba50                ppfcvCornerHarrisAdaptiveu8
 .data          0x00000000002eba54        0x0 lib/libfastcv.a(libfastcv_la-fastcvHeapStats.o)
 .data          0x00000000002eba54      0x144 lib/libfastcv.a(libfastcv_la-fastcvHelper.o)
                0x00000000002eba54                fast9_corner_score_
                0x00000000002eba58                fast10_corner_score_
                0x00000000002eba5c                fcvMomentsInTileu8_
                0x00000000002eba60                fcvMomentsInTiles32_
                0x00000000002eba64                fcvMomentsInTilef32_
                0x00000000002eba68                rgb5652yuvp_
                0x00000000002eba6c                rgb8882yuvp_
                0x00000000002eba70                rgba88882yuvp_
                0x00000000002eba74                rgb5652yyuvp_
                0x00000000002eba78                rgb8882yyuvp_
                0x00000000002eba7c                rgba88882yyuvp_
                0x00000000002eba80                rgb5652y_
                0x00000000002eba84                rgb8882y_
                0x00000000002eba88                rgba88882y_
                0x00000000002eba8c                rgb5652yuv_
                0x00000000002eba90                rgb8882yuv_
                0x00000000002eba94                rgba88882yuv_
                0x00000000002eba98                rgb5652yyuv_
                0x00000000002eba9c                rgb8882yyuv_
                0x00000000002ebaa0                rgba88882yyuv_
                0x00000000002ebaa4                rgb565_to_rgb888_
                0x00000000002ebaa8                rgb565_to_rgba8888_
                0x00000000002ebaac                rgb565_to_bgr565_
                0x00000000002ebab0                rgb565_to_bgr888_
                0x00000000002ebab4                rgb565_to_bgra8888_
                0x00000000002ebab8                rgb888_to_rgb565_
                0x00000000002ebabc                rgb888_to_rgba8888_
                0x00000000002ebac0                rgb888_to_bgr565_
                0x00000000002ebac4                rgb888_to_bgr888_
                0x00000000002ebac8                rgb888_to_bgra8888_
                0x00000000002ebacc                rgba8888_to_rgb565_
                0x00000000002ebad0                rgba8888_to_rgb888_
                0x00000000002ebad4                rgba8888_to_bgr565_
                0x00000000002ebad8                rgba8888_to_bgr888_
                0x00000000002ebadc                rgba8888_to_bgra8888_
                0x00000000002ebae0                downsample_horizontal_
                0x00000000002ebae4                downsample_horizontal_i_
                0x00000000002ebae8                downsample_and_interleave_horizontal_
                0x00000000002ebaec                upsample_and_interleave_horizontal_
                0x00000000002ebaf0                downsample_and_deinterleave_horizontal_
                0x00000000002ebaf4                upsample_and_deinterleave_horizontal_
                0x00000000002ebaf8                ifcv_yuv_deinterleave_cbcr_
                0x00000000002ebafc                ifcv_yuv_interleave_chroma_
                0x00000000002ebb00                interleaves16_
                0x00000000002ebb04                chroma_up_hori_planar_
                0x00000000002ebb08                chroma_up_2d_planar_
                0x00000000002ebb0c                chroma_up_vert_
                0x00000000002ebb10                chroma_up_hori_
                0x00000000002ebb14                chroma_up_2d_
                0x00000000002ebb18                rgb2lab_
                0x00000000002ebb1c                calculateBlockSum16x16_
                0x00000000002ebb20                calculateBlockSAD_ZeroMean16x16_
                0x00000000002ebb24                calcIxIy_32f_
                0x00000000002ebb28                MSER_PreProcessPlus_
                0x00000000002ebb2c                MSER_PreProcessMinus_
                0x00000000002ebb30                MSER_NN8_PreProcessPlus_
                0x00000000002ebb34                MSER_NN8_PreProcessMinus_
                0x00000000002ebb38                MSER_boundBox_
                0x00000000002ebb3c                MSER_boundBox_v3_
                0x00000000002ebb40                calc_accumData_
                0x00000000002ebb44                ScaleDownMNu8Core_
                0x00000000002ebb48                houghCPUAccumInArea_
                0x00000000002ebb4c                filterThresholdInvu8_
                0x00000000002ebb50                adaptiveThreshold_
                0x00000000002ebb54                integrateImageLine_
                0x00000000002ebb58                dotProductN_
                0x00000000002ebb5c                fcvPreProcessu8_
                0x00000000002ebb60                ifcvChannelExtractFromRGB_
                0x00000000002ebb64                ifcvChannelExtractFromRGBA_
                0x00000000002ebb68                ifcvChannelExtractFromNV12_
                0x00000000002ebb6c                ifcvChannelExtractFromNV21_
                0x00000000002ebb70                ifcvChannelExtractFromUYVY_
                0x00000000002ebb74                ifcvChannelExtractFromYUYV_
                0x00000000002ebb78                fcvFFTs16_
                0x00000000002ebb7c                fcvIFFTf32s16_
                0x00000000002ebb80                inflateKernel_
                0x00000000002ebb84                fcvSVDf32_v2_
                0x00000000002ebb88                normalise2dpts_
                0x00000000002ebb8c                fcvExtractHOGu16_reg_slow_
                0x00000000002ebb90                fcvExtractHOGu16_reg_fp_
                0x00000000002ebb94                fcvExtractHOGu16_fhog_fp_
 .data          0x00000000002ebb98        0x4 lib/libfastcv.a(libfastcv_la-fastcvHW.o)
                0x00000000002ebb98                HW_constraint_checks_enable
 .data          0x00000000002ebb9c        0x0 lib/libfastcv.a(libfastcv_la-fastcvAbsDiffC.o)
 .data          0x00000000002ebb9c        0x0 lib/libfastcv.a(libfastcv_la-fastcvAdaptiveThresholdC.o)
 .data          0x00000000002ebb9c        0x0 lib/libfastcv.a(libfastcv_la-fastcvAffineC.o)
 .data          0x00000000002ebb9c        0x0 lib/libfastcv.a(libfastcv_la-fastcvArithmC.o)
 .data          0x00000000002ebb9c        0x0 lib/libfastcv.a(libfastcv_la-fastcvAverageC.o)
 .data          0x00000000002ebb9c        0x0 lib/libfastcv.a(libfastcv_la-fastcvBGCodeBookC.o)
 .data          0x00000000002ebb9c      0x100 lib/libfastcv.a(libfastcv_la-fastcvBitCntC.o)
                0x00000000002ebb9c                precomputed
 .data          0x00000000002ebc9c        0x0 lib/libfastcv.a(libfastcv_la-fastcvBitwiseOpC.o)
 .data          0x00000000002ebc9c        0x0 lib/libfastcv.a(libfastcv_la-fastcvCalib3DC.o)
 .data          0x00000000002ebc9c        0x0 lib/libfastcv.a(libfastcv_la-fastcvCalibrateC.o)
 .data          0x00000000002ebc9c        0x0 lib/libfastcv.a(libfastcv_la-fastcvChannelC.o)
 .data          0x00000000002ebc9c      0x404 lib/libfastcv.a(libfastcv_la-fastcvColor2C.o)
                0x00000000002ebc9c                POW1O3TABLE
                0x00000000002ebea0                POW2DOT4TABLE2
 .data          0x00000000002ec0a0        0x0 lib/libfastcv.a(libfastcv_la-fastcvColorC.o)
 .data          0x00000000002ec0a0        0x0 lib/libfastcv.a(libfastcv_la-fastcvColorPpfYuvUtilsC.o)
 .data          0x00000000002ec0a0        0x0 lib/libfastcv.a(libfastcv_la-fastcvColorRgb2LabC.o)
 .data          0x00000000002ec0a0        0x0 lib/libfastcv.a(libfastcv_la-fastcvColorRgb2YuvC.o)
 .data          0x00000000002ec0a0        0x0 lib/libfastcv.a(libfastcv_la-fastcvColorRgbConversionC.o)
 .data          0x00000000002ec0a0        0x0 lib/libfastcv.a(libfastcv_la-fastcvColorYuvConversionC.o)
 .data          0x00000000002ec0a0        0x0 lib/libfastcv.a(libfastcv_la-fastcvContourC.o)
 .data          0x00000000002ec0a0      0x400 lib/libfastcv.a(libfastcv_la-fastcvCopyC.o)
                0x00000000002ec0a0                phasorLUT
 .data          0x00000000002ec4a0        0x0 lib/libfastcv.a(libfastcv_la-fastcvCornerSubPixelC.o)
 .data          0x00000000002ec4a0        0x0 lib/libfastcv.a(libfastcv_la-fastcvDepthFusionC.o)
 .data          0x00000000002ec4a0        0x0 lib/libfastcv.a(libfastcv_la-fastcvDescriptor2C.o)
 .data          0x00000000002ec4a0        0x0 lib/libfastcv.a(libfastcv_la-fastcvDescriptorC.o)
 .data          0x00000000002ec4a0        0x0 lib/libfastcv.a(libfastcv_la-fastcvEucldeanC.o)
 .data          0x00000000002ec4a0        0x0 lib/libfastcv.a(libfastcv_la-fastcvFloodFillC.o)
 .data          0x00000000002ec4a0        0x0 lib/libfastcv.a(libfastcv_la-fastcvGeomC.o)
 .data          0x00000000002ec4a0        0x0 lib/libfastcv.a(libfastcv_la-fastcvHarrisC.o)
 .data          0x00000000002ec4a0      0x2d8 lib/libfastcv.a(libfastcv_la-fastcvHOGC.o)
                0x00000000002ec4a0                w_lut
                0x00000000002ec4a4                w1_lut
 .data          0x00000000002ec778        0x0 lib/libfastcv.a(libfastcv_la-fastcvHoughCircleC.o)
 .data          0x00000000002ec778        0x0 lib/libfastcv.a(libfastcv_la-fastcvHoughLineC.o)
 .data          0x00000000002ec778        0x0 lib/libfastcv.a(libfastcv_la-fastcvImageDiffC.o)
 .data          0x00000000002ec778        0x0 lib/libfastcv.a(libfastcv_la-fastcvImageIntensityC.o)
 .data          0x00000000002ec778        0x0 lib/libfastcv.a(libfastcv_la-fastcvImagePostProcC.o)
 .data          0x00000000002ec778        0x0 lib/libfastcv.a(libfastcv_la-fastcvImageSegmentationC.o)
 .data          0x00000000002ec778        0x0 lib/libfastcv.a(libfastcv_la-fastcvIntegrateImageC.o)
 .data          0x00000000002ec778        0x0 lib/libfastcv.a(libfastcv_la-fastcvIntegrateImageYuvC.o)
 .data          0x00000000002ec778        0x0 lib/libfastcv.a(libfastcv_la-fastcvIppScaleC.o)
 .data          0x00000000002ec778        0x0 lib/libfastcv.a(libfastcv_la-fastcvIppTransformC.o)
 .data          0x00000000002ec778        0x0 lib/libfastcv.a(libfastcv_la-fastcvKDTree36s8f32C.o)
 .data          0x00000000002ec778        0x0 lib/libfastcv.a(libfastcv_la-fastcvKMeansTreeSearchC.o)
 .data          0x00000000002ec778        0x0 lib/libfastcv.a(libfastcv_la-fastcvLBPC.o)
 .data          0x00000000002ec778        0x0 lib/libfastcv.a(libfastcv_la-fastcvLinearSearchC.o)
 .data          0x00000000002ec778        0x0 lib/libfastcv.a(libfastcv_la-fastcvMotionHistoryC.o)
 .data          0x00000000002ec778        0x0 lib/libfastcv.a(libfastcv_la-fastcvMserFxpC.o)
 .data          0x00000000002ec778        0x0 lib/libfastcv.a(libfastcv_la-fastcvNCCPatchC.o)
 .data          0x00000000002ec778        0x0 lib/libfastcv.a(libfastcv_la-fastcvPolygonC.o)
 .data          0x00000000002ec778        0x0 lib/libfastcv.a(libfastcv_la-fastcvRemapC.o)
 .data          0x00000000002ec778        0x0 lib/libfastcv.a(libfastcv_la-fastcvSADC.o)
 .data          0x00000000002ec778        0x0 lib/libfastcv.a(libfastcv_la-fastcvScaleC.o)
 .data          0x00000000002ec778        0x0 lib/libfastcv.a(libfastcv_la-fastcvSegmentMaskC.o)
 .data          0x00000000002ec778        0x0 lib/libfastcv.a(libfastcv_la-fastcvSetC.o)
 .data          0x00000000002ec778        0x0 lib/libfastcv.a(libfastcv_la-fastcvSmoothC.o)
 .data          0x00000000002ec778        0x0 lib/libfastcv.a(libfastcv_la-fastcvSolveC.o)
 .data          0x00000000002ec778        0x0 lib/libfastcv.a(libfastcv_la-fastcvSVDC.o)
 .data          0x00000000002ec778        0x0 lib/libfastcv.a(libfastcv_la-fastcvSVMPredictC.o)
 .data          0x00000000002ec778        0x0 lib/libfastcv.a(libfastcv_la-fastcvTrackC.o)
 .data          0x00000000002ec778     0x4004 lib/libfastcv.a(libfastcv_la-fastcvTransformC.o)
                0x00000000002ec778                Wtwiddles
                0x00000000002ef778                Wtwiddles2
 .data          0x00000000002f077c        0x0 lib/libfastcv.a(libfastcv_la-fastcvUpsampleC.o)
 .data          0x00000000002f077c        0x0 lib/libfastcv.a(libfastcv_la-fastcvVectorC.o)
 .data          0x00000000002f077c        0x0 lib/libfastcv.a(libfastcv_la-fastcvWarpC.o)
 .data          0x00000000002f077c        0x0 lib/libfastcv.a(libfastcv_la-fastcvHwAndroid.o)
 .data          0x00000000002f077c        0x0 lib/libfastcv.a(libfastcv_la-fastcvRemoteLibAndroid.o)
 .data          0x00000000002f077c        0x0 lib/libfastcv.a(libfastcv_la-fastcvTrigonometricTable.o)
 .data          0x00000000002f077c        0x0 lib/libfastcv.a(libfastcv_la-fastcvDotC.o)
 .data          0x00000000002f077c        0x0 lib/libfastcv.a(libfastcv_la-fastcvEdgeC.o)
 .data          0x00000000002f077c        0x0 lib/libfastcv.a(libfastcv_la-fastcvFastC.o)
 .data          0x00000000002f077c        0x0 lib/libfastcv.a(libfastcv_la-fastcvRectangleC.o)
 .data          0x00000000002f077c        0x0 lib/libfastcv.a(libfastcv_la-fastcvSSDC.o)
 .data          0x00000000002f077c        0x0 lib/libfastcv.a(fastcvCalibrateV.o)
 .data          0x00000000002f077c        0x0 lib/libfastcv.a(fastcvEdgeV2.o)
 .data          0x00000000002f077c        0x0 lib/libfastcv.a(libfastcvAbsDiffV_la-fastcvAbsDiffV.o)
 .data          0x00000000002f077c        0x0 lib/libfastcv.a(libfastcvAdaptiveThresholdV_la-fastcvAdaptiveThresholdV.o)
 .data          0x00000000002f077c        0x0 lib/libfastcv.a(libfastcvBlurV_la-fastcvBlurV.o)
 .data          0x00000000002f077c        0x0 lib/libfastcv.a(libfastcvDescriptorV_la-fastcvDescriptorV.o)
 *fill*         0x00000000002f077c        0x4 
 .data          0x00000000002f0780       0x18 lib/libfastcv.a(libfastcvDotV_la-fastcvDotV.o)
 .data          0x00000000002f0798        0x0 lib/libfastcv.a(libfastcvFast10V_la-fastcvFast10V.o)
 .data          0x00000000002f0798        0x0 lib/libfastcv.a(libfastcvFastV_la-fastcvFastV.o)
 .data          0x00000000002f0798        0x0 lib/libfastcv.a(libfastcvFilter1V_la-fastcvFilter1V.o)
 .data          0x00000000002f0798        0x0 lib/libfastcv.a(libfastcvFilterV_la-fastcvFilterV.o)
 .data          0x00000000002f0798      0x300 lib/libfastcv.a(libfastcvMeanShiftV_la-fastcvMeanShiftV.o)
                0x00000000002f0798                idx_LUTs32
                0x00000000002f0818                idxSq_LUTs32
                0x00000000002f0898                idxCu_LUTs32
                0x00000000002f0918                idx_LUTf32
                0x00000000002f0998                idxSq_LUTf32
                0x00000000002f0a18                idxCu_LUTf32
 .data          0x00000000002f0a98        0x0 lib/libfastcv.a(libfastcvSVDV_la-fastcvSVDV.o)
 .data          0x00000000002f0a98      0x190 lib/libfastcv.a(libfastcvScaleV_la-fastcvScaleV.o)
                0x00000000002f0a98                mulshift
 .data          0x00000000002f0c28        0x0 lib/libfastcv.a(libfastcvWarpV_la-fastcvWarpV.o)
 .data          0x00000000002f0c28        0x0 lib/libfastcv.a(libfastcvv_la-fastcvAffineV1.o)
 .data          0x00000000002f0c28        0x0 lib/libfastcv.a(libfastcvv_la-fastcvArithmV.o)
 .data          0x00000000002f0c28        0x0 lib/libfastcv.a(libfastcvv_la-fastcvAverageV.o)
 .data          0x00000000002f0c28        0x0 lib/libfastcv.a(libfastcvv_la-fastcvBitCntWrapV.o)
 .data          0x00000000002f0c28        0x0 lib/libfastcv.a(libfastcvv_la-fastcvBitwiseOpV.o)
 .data          0x00000000002f0c28        0x0 lib/libfastcv.a(libfastcvv_la-fastcvBoundingRectV.o)
 .data          0x00000000002f0c28        0x0 lib/libfastcv.a(libfastcvv_la-fastcvCalib3DV.o)
 .data          0x00000000002f0c28        0x0 lib/libfastcv.a(libfastcvv_la-fastcvCalibrateV1.o)
 .data          0x00000000002f0c28        0x0 lib/libfastcv.a(libfastcvv_la-fastcvChannelV.o)
 .data          0x00000000002f0c28        0x0 lib/libfastcv.a(libfastcvv_la-fastcvColorPpfYuvUtilsV.o)
 .data          0x00000000002f0c28        0x0 lib/libfastcv.a(libfastcvv_la-fastcvColorRgb2LabV.o)
 .data          0x00000000002f0c28        0x0 lib/libfastcv.a(libfastcvv_la-fastcvColorRgb2YuvV.o)
 .data          0x00000000002f0c28        0x0 lib/libfastcv.a(libfastcvv_la-fastcvColorRgbConversionV.o)
 .data          0x00000000002f0c28        0x0 lib/libfastcv.a(libfastcvv_la-fastcvColorV.o)
 .data          0x00000000002f0c28        0x0 lib/libfastcv.a(libfastcvv_la-fastcvColorYuvConversionV.o)
 .data          0x00000000002f0c28        0x0 lib/libfastcv.a(libfastcvv_la-fastcvContourV.o)
 .data          0x00000000002f0c28        0x0 lib/libfastcv.a(libfastcvv_la-fastcvCopyV.o)
 .data          0x00000000002f0c28        0x0 lib/libfastcv.a(libfastcvv_la-fastcvCornerSubPixelV.o)
 .data          0x00000000002f0c28        0x0 lib/libfastcv.a(libfastcvv_la-fastcvDepthFusionV.o)
 .data          0x00000000002f0c28        0x0 lib/libfastcv.a(libfastcvv_la-fastcvDescriptor2V.o)
 .data          0x00000000002f0c28        0x0 lib/libfastcv.a(libfastcvv_la-fastcvEdgeV.o)
 .data          0x00000000002f0c28        0x0 lib/libfastcv.a(libfastcvv_la-fastcvEucldeanV.o)
 .data          0x00000000002f0c28        0x0 lib/libfastcv.a(libfastcvv_la-fastcvFloodFillV.o)
 .data          0x00000000002f0c28        0x0 lib/libfastcv.a(libfastcvv_la-fastcvGeomV.o)
 .data          0x00000000002f0c28        0x0 lib/libfastcv.a(libfastcvv_la-fastcvHOGV.o)
 .data          0x00000000002f0c28        0x0 lib/libfastcv.a(libfastcvv_la-fastcvHarrisV.o)
 .data          0x00000000002f0c28        0x0 lib/libfastcv.a(libfastcvv_la-fastcvHomographyV.o)
 .data          0x00000000002f0c28        0x0 lib/libfastcv.a(libfastcvv_la-fastcvHoughCircleV.o)
 .data          0x00000000002f0c28        0x0 lib/libfastcv.a(libfastcvv_la-fastcvHoughLineV.o)
 .data          0x00000000002f0c28        0x0 lib/libfastcv.a(libfastcvv_la-fastcvImageDiffV.o)
 .data          0x00000000002f0c28        0x0 lib/libfastcv.a(libfastcvv_la-fastcvImageIntensityV.o)
 .data          0x00000000002f0c28        0x0 lib/libfastcv.a(libfastcvv_la-fastcvImagePostProcV.o)
 .data          0x00000000002f0c28        0x0 lib/libfastcv.a(libfastcvv_la-fastcvIntegrateImageV.o)
 .data          0x00000000002f0c28        0x0 lib/libfastcv.a(libfastcvv_la-fastcvIntegrateImageYuvV.o)
 .data          0x00000000002f0c28        0x0 lib/libfastcv.a(libfastcvv_la-fastcvIppScaleV.o)
 .data          0x00000000002f0c28        0x0 lib/libfastcv.a(libfastcvv_la-fastcvIppTransformV.o)
 .data          0x00000000002f0c28        0x0 lib/libfastcv.a(libfastcvv_la-fastcvLBPV.o)
 .data          0x00000000002f0c28        0x0 lib/libfastcv.a(libfastcvv_la-fastcvMotionHistoryV.o)
 .data          0x00000000002f0c28        0x0 lib/libfastcv.a(libfastcvv_la-fastcvMserFxpV.o)
 .data          0x00000000002f0c28        0x0 lib/libfastcv.a(libfastcvv_la-fastcvNCCPatchV.o)
 .data          0x00000000002f0c28        0x0 lib/libfastcv.a(libfastcvv_la-fastcvPolygonV.o)
 .data          0x00000000002f0c28        0x0 lib/libfastcv.a(libfastcvv_la-fastcvPyramidV.o)
 .data          0x00000000002f0c28        0x0 lib/libfastcv.a(libfastcvv_la-fastcvRemapV.o)
 .data          0x00000000002f0c28        0x0 lib/libfastcv.a(libfastcvv_la-fastcvSADV.o)
 .data          0x00000000002f0c28       0x18 lib/libfastcv.a(libfastcvv_la-fastcvSSDV.o)
 .data          0x00000000002f0c40        0x0 lib/libfastcv.a(libfastcvv_la-fastcvSVMPredictV.o)
 .data          0x00000000002f0c40        0x0 lib/libfastcv.a(libfastcvv_la-fastcvSetV.o)
 .data          0x00000000002f0c40      0x2d8 lib/libfastcv.a(libfastcvv_la-fastcvSmoothV.o)
 .data          0x00000000002f0f18        0x0 lib/libfastcv.a(libfastcvv_la-fastcvThresholdV.o)
 .data          0x00000000002f0f18        0x0 lib/libfastcv.a(libfastcvv_la-fastcvTrackV.o)
 .data          0x00000000002f0f18        0x0 lib/libfastcv.a(libfastcvv_la-fastcvTransformV.o)
 .data          0x00000000002f0f18        0x0 lib/libfastcv.a(libfastcvv_la-fastcvUpsampleV.o)
 .data          0x00000000002f0f18        0x0 lib/libfastcv.a(libfastcvv_la-fastcvVectorV.o)
 .data          0x00000000002f0f18        0x0 lib/libfastcv.a(libIlpsources_la-fastcvBitCntIlpC.o)
 .data          0x00000000002f0f18        0x0 lib/libfastcv.a(libIlpsources_la-fastcvBlurIlpC.o)
 .data          0x00000000002f0f18        0x0 lib/libfastcv.a(libIlpsources_la-fastcvBoundingRectC.o)
 .data          0x00000000002f0f18        0x0 lib/libfastcv.a(libIlpsources_la-fastcvFilter1C.o)
 .data          0x00000000002f0f18        0x0 lib/libfastcv.a(libIlpsources_la-fastcvImagePostProcIlpC.o)
 .data          0x00000000002f0f18        0x0 lib/libfastcv.a(libIlpsources_la-fastcvScaleIlpC.o)
 .data          0x00000000002f0f18        0x0 lib/libfastcv.a(libfastcvIlpC_la-fastcvFastIlpC.o)
 .data          0x00000000002f0f18        0x0 lib/libfastcv.a(libfastcvFast10C_la-fastcvFast10C.o)
 .data          0x00000000002f0f18        0x0 lib/libfastcv.a(libfastcvMeanShiftC_la-fastcvMeanShiftC.o)
 .data          0x00000000002f0f18        0x0 lib/libfastcv.a(libfastcvPyramidC_la-fastcvPyramidC.o)
 .data          0x00000000002f0f18        0x0 lib/libfastcv.a(libfastcvHomographyC_la-fastcvHomographyC.o)
 .data          0x00000000002f0f18        0x0 lib/libfastcv.a(libfastcvThresholdC_la-fastcvThresholdC.o)
 .data          0x00000000002f0f18        0x0 lib/libfastcv.a(libfastcvBlurC_la-fastcvBlurC.o)
 .data          0x00000000002f0f18       0x84 lib/libfastcv.a(libfastcvFilterC_la-fastcvFilterC.o)
                0x00000000002f0f18                Shifts_Tbl
 .data          0x00000000002f0f9c        0x0 lib/libfastcv.a(libfastcv_la-fastcvManager_.o)
 .data          0x00000000002f0f9c        0x0 lib/libfastcv.a(libfastcv_la-fastcvUtils.o)
 .data          0x00000000002f0f9c        0x0 lib/libfastcv.a(fastcvIntegrateImageV2.o)
 .data          0x00000000002f0f9c        0x0 lib/libfastcv.a(fastcvIppDctV.o)
 .data          0x00000000002f0f9c        0x0 lib/libfastcv.a(fastcvIppIdctV.o)
 .data          0x00000000002f0f9c        0x0 lib/libfastcv.a(libfastcvv_la-fastcvColorIppPlanarV.o)
 .data          0x00000000002f0f9c        0x0 lib/libfastcv.a(libfastcvv_la-fastcvColorIppV.o)
 .data          0x00000000002f0f9c        0x0 lib/libfastcv.a(libfastcvv_la-fastcvColorRgb2RgbV.o)
 .data          0x00000000002f0f9c        0x0 lib/libfastcv.a(libfastcvv_la-fastcvIppDwtV.o)
 .data          0x00000000002f0f9c        0x0 lib/libfastcv.a(libfastcvv_la-fastcvIppIdwtV.o)
 .data          0x00000000002f0f9c        0x0 /media/ram/363029d1-6365-487a-b2e3-bd8d034c2ea4/fastcv/hexagondsp/Hexagon_SDK/3.5.2/tools/linaro/bin/../lib/gcc/arm-linux-gnueabihf/8.2.1/libgcc_eh.a(unwind-arm.o)
 .data          0x00000000002f0f9c        0x0 /media/ram/363029d1-6365-487a-b2e3-bd8d034c2ea4/fastcv/hexagondsp/Hexagon_SDK/3.5.2/tools/linaro/bin/../lib/gcc/arm-linux-gnueabihf/8.2.1/libgcc_eh.a(libunwind.o)
 .data          0x00000000002f0f9c        0x0 /media/ram/363029d1-6365-487a-b2e3-bd8d034c2ea4/fastcv/hexagondsp/Hexagon_SDK/3.5.2/tools/linaro/bin/../lib/gcc/arm-linux-gnueabihf/8.2.1/libgcc_eh.a(pr-support.o)
 .data          0x00000000002f0f9c        0x0 /media/ram/363029d1-6365-487a-b2e3-bd8d034c2ea4/fastcv/hexagondsp/Hexagon_SDK/3.5.2/tools/linaro/bin/../lib/gcc/arm-linux-gnueabihf/8.2.1/libgcc.a(_udivsi3.o)
 .data          0x00000000002f0f9c        0x0 /media/ram/363029d1-6365-487a-b2e3-bd8d034c2ea4/fastcv/hexagondsp/Hexagon_SDK/3.5.2/tools/linaro/bin/../lib/gcc/arm-linux-gnueabihf/8.2.1/libgcc.a(_divsi3.o)
 .data          0x00000000002f0f9c        0x0 /media/ram/363029d1-6365-487a-b2e3-bd8d034c2ea4/fastcv/hexagondsp/Hexagon_SDK/3.5.2/tools/linaro/bin/../lib/gcc/arm-linux-gnueabihf/8.2.1/libgcc.a(_arm_addsubdf3.o)
 .data          0x00000000002f0f9c        0x0 /media/ram/363029d1-6365-487a-b2e3-bd8d034c2ea4/fastcv/hexagondsp/Hexagon_SDK/3.5.2/tools/linaro/bin/../lib/gcc/arm-linux-gnueabihf/8.2.1/libgcc.a(_arm_addsubsf3.o)
 .data          0x00000000002f0f9c        0x0 /media/ram/363029d1-6365-487a-b2e3-bd8d034c2ea4/fastcv/hexagondsp/Hexagon_SDK/3.5.2/tools/linaro/bin/../lib/gcc/arm-linux-gnueabihf/8.2.1/libgcc.a(_aeabi_ldivmod.o)
 .data          0x00000000002f0f9c        0x0 /media/ram/363029d1-6365-487a-b2e3-bd8d034c2ea4/fastcv/hexagondsp/Hexagon_SDK/3.5.2/tools/linaro/bin/../lib/gcc/arm-linux-gnueabihf/8.2.1/libgcc.a(_dvmd_lnx.o)
 .data          0x00000000002f0f9c        0x0 /media/ram/363029d1-6365-487a-b2e3-bd8d034c2ea4/fastcv/hexagondsp/Hexagon_SDK/3.5.2/tools/linaro/bin/../lib/gcc/arm-linux-gnueabihf/8.2.1/libgcc.a(_powisf2.o)
 .data          0x00000000002f0f9c        0x0 /media/ram/363029d1-6365-487a-b2e3-bd8d034c2ea4/fastcv/hexagondsp/Hexagon_SDK/3.5.2/tools/linaro/bin/../lib/gcc/arm-linux-gnueabihf/8.2.1/libgcc.a(_udivmoddi4.o)
 .data          0x00000000002f0f9c        0x0 /media/ram/363029d1-6365-487a-b2e3-bd8d034c2ea4/fastcv/hexagondsp/Hexagon_SDK/3.5.2/tools/linaro/bin/../lib/gcc/arm-linux-gnueabihf/8.2.1/crtend.o
 .data          0x00000000002f0f9c        0x0 /media/ram/363029d1-6365-487a-b2e3-bd8d034c2ea4/fastcv/hexagondsp/Hexagon_SDK/3.5.2/tools/linaro/bin/../arm-linux-gnueabihf/libc/usr/lib/crtn.o

.tm_clone_table
                0x00000000002f0f9c        0x0
 .tm_clone_table
                0x00000000002f0f9c        0x0 /media/ram/363029d1-6365-487a-b2e3-bd8d034c2ea4/fastcv/hexagondsp/Hexagon_SDK/3.5.2/tools/linaro/bin/../lib/gcc/arm-linux-gnueabihf/8.2.1/crtbegin.o
 .tm_clone_table
                0x00000000002f0f9c        0x0 /media/ram/363029d1-6365-487a-b2e3-bd8d034c2ea4/fastcv/hexagondsp/Hexagon_SDK/3.5.2/tools/linaro/bin/../lib/gcc/arm-linux-gnueabihf/8.2.1/crtend.o

.data1
 *(.data1)
                0x00000000002f0f9c                _edata = .
                [!provide]                        PROVIDE (edata = .)
                0x00000000002f0f9c                . = .
                0x00000000002f0f9c                __bss_start = .
                0x00000000002f0f9c                __bss_start__ = .

.bss            0x00000000002f0fa0     0x1cd4
 *(.dynbss)
 .dynbss        0x00000000002f0fa0        0x0 /media/ram/363029d1-6365-487a-b2e3-bd8d034c2ea4/fastcv/hexagondsp/Hexagon_SDK/3.5.2/tools/linaro/bin/../arm-linux-gnueabihf/libc/usr/lib/crt1.o
 *(.bss .bss.* .gnu.linkonce.b.*)
 .bss           0x00000000002f0fa0        0x0 /media/ram/363029d1-6365-487a-b2e3-bd8d034c2ea4/fastcv/hexagondsp/Hexagon_SDK/3.5.2/tools/linaro/bin/../arm-linux-gnueabihf/libc/usr/lib/crt1.o
 .bss           0x00000000002f0fa0        0x0 /media/ram/363029d1-6365-487a-b2e3-bd8d034c2ea4/fastcv/hexagondsp/Hexagon_SDK/3.5.2/tools/linaro/bin/../arm-linux-gnueabihf/libc/usr/lib/crti.o
 .bss           0x00000000002f0fa0        0x1 /media/ram/363029d1-6365-487a-b2e3-bd8d034c2ea4/fastcv/hexagondsp/Hexagon_SDK/3.5.2/tools/linaro/bin/../lib/gcc/arm-linux-gnueabihf/8.2.1/crtbegin.o
 .bss           0x00000000002f0fa1        0x0 /media/ram/363029d1-6365-487a-b2e3-bd8d034c2ea4/fastcv/hexagondsp/Hexagon_SDK/3.5.2/tools/linaro/bin/../arm-linux-gnueabihf/libc/usr/lib/libc_nonshared.a(elf-init.oS)
 *fill*         0x00000000002f0fa1        0x3 
 .bss           0x00000000002f0fa4        0x1 UbuntuARM_Release/ImageEnhance.o
 *fill*         0x00000000002f0fa5        0x3 
 .bss._ZGVN7cvflann7anyimpl12SinglePolicyIN2cv6StringEE6policyE
                0x00000000002f0fa8        0x4 UbuntuARM_Release/ImageEnhance.o
                0x00000000002f0fa8                guard variable for cvflann::anyimpl::SinglePolicy<cv::String>::policy
 .bss._ZGVN7cvflann7anyimpl12SinglePolicyIjE6policyE
                0x00000000002f0fac        0x4 UbuntuARM_Release/ImageEnhance.o
                0x00000000002f0fac                guard variable for cvflann::anyimpl::SinglePolicy<unsigned int>::policy
 .bss._ZGVN7cvflann7anyimpl12SinglePolicyINS_20flann_centers_init_tEE6policyE
                0x00000000002f0fb0        0x4 UbuntuARM_Release/ImageEnhance.o
                0x00000000002f0fb0                guard variable for cvflann::anyimpl::SinglePolicy<cvflann::flann_centers_init_t>::policy
 .bss._ZGVN7cvflann7anyimpl12SinglePolicyINS_17flann_algorithm_tEE6policyE
                0x00000000002f0fb4        0x4 UbuntuARM_Release/ImageEnhance.o
                0x00000000002f0fb4                guard variable for cvflann::anyimpl::SinglePolicy<cvflann::flann_algorithm_t>::policy
 .bss._ZGVN7cvflann7anyimpl12SinglePolicyIbE6policyE
                0x00000000002f0fb8        0x4 UbuntuARM_Release/ImageEnhance.o
                0x00000000002f0fb8                guard variable for cvflann::anyimpl::SinglePolicy<bool>::policy
 .bss._ZGVN7cvflann7anyimpl12SinglePolicyIfE6policyE
                0x00000000002f0fbc        0x4 UbuntuARM_Release/ImageEnhance.o
                0x00000000002f0fbc                guard variable for cvflann::anyimpl::SinglePolicy<float>::policy
 .bss._ZGVN7cvflann7anyimpl12SinglePolicyIiE6policyE
                0x00000000002f0fc0        0x4 UbuntuARM_Release/ImageEnhance.o
                0x00000000002f0fc0                guard variable for cvflann::anyimpl::SinglePolicy<int>::policy
 .bss._ZGVN7cvflann7anyimpl12SinglePolicyIPKcE6policyE
                0x00000000002f0fc4        0x4 UbuntuARM_Release/ImageEnhance.o
                0x00000000002f0fc4                guard variable for cvflann::anyimpl::SinglePolicy<char const*>::policy
 .bss._ZGVN7cvflann7anyimpl12SinglePolicyINS0_9empty_anyEE6policyE
                0x00000000002f0fc8        0x4 UbuntuARM_Release/ImageEnhance.o
                0x00000000002f0fc8                guard variable for cvflann::anyimpl::SinglePolicy<cvflann::anyimpl::empty_any>::policy
 .bss           0x00000000002f0fcc        0x0 lib/libfastcv.a(libfastcv_la-fastcvManager.o)
 .bss           0x00000000002f0fcc        0x0 lib/libfastcv.a(libfastcv_la-fastcvMemAndroid.o)
 *fill*         0x00000000002f0fcc        0x4 
 .bss           0x00000000002f0fd0      0x5b8 lib/libfastcv.a(libfastcv_la-fastcvMem.o)
                0x00000000002f0fd0                CPU_initflag
                0x00000000002f0fd4                remote_fcvMemInit
                0x00000000002f0fd8                remote_fcvMemDeInit
 .bss           0x00000000002f1588      0xeb8 lib/libfastcv.a(libfastcv_la-fastcv.o)
                0x00000000002f1588                libLogPrint
                0x00000000002f158c                fcvImplTable
                0x00000000002f1d74                fcvInternalImplTable
                0x00000000002f1db4                fcvFilterMedian3x3u8_v2R_
                0x00000000002f1db8                fcvFilterGaussian3x3u8_v2R_
                0x00000000002f1dbc                fcvFilterGaussian5x5u8_v2R_
                0x00000000002f1dc0                fcvFilterGaussian11x11u8_v2R_
                0x00000000002f1dc4                fcvColorYCrCb420PseudoPlanarToRGB8888u8R_
                0x00000000002f1dc8                fcvColorYUV420toRGB565u8R_
                0x00000000002f1dcc                fcvColorYCrCbH1V1toRGB888u8R_
                0x00000000002f1dd0                fcvColorYCrCbH2V2toRGB888u8R_
                0x00000000002f1dd4                fcvColorYCrCbH2V1toRGB888u8R_
                0x00000000002f1dd8                fcvColorYCrCbH1V2toRGB888u8R_
                0x00000000002f1ddc                fcvColorRGB888toYCrCbu8_v2R_
                0x00000000002f1de0                fcvDescriptor17x17u8To36s8R_
                0x00000000002f1de4                fcvDescriptorSampledMeanAndVar36f32R_
                0x00000000002f1de8                fcvDotProducts8R_
                0x00000000002f1dec                fcvDotProductu8R_
                0x00000000002f1df0                fcvDotProduct36x1s8R_
                0x00000000002f1df4                fcvDotProduct36x4s8R_
                0x00000000002f1df8                fcvDotProductNorm36x4s8R_
                0x00000000002f1dfc                fcvDotProduct36x1u8R_
                0x00000000002f1e00                fcvDotProduct36x4u8R_
                0x00000000002f1e04                fcvDotProductNorm36x4u8R_
                0x00000000002f1e08                fcvDotProduct64x1s8R_
                0x00000000002f1e0c                fcvDotProduct64x4s8R_
                0x00000000002f1e10                fcvDotProductNorm64x4s8R_
                0x00000000002f1e14                fcvDotProduct64x1u8R_
                0x00000000002f1e18                fcvDotProduct64x4u8R_
                0x00000000002f1e1c                fcvDotProductNorm64x4u8R_
                0x00000000002f1e20                fcvDotProduct128x1s8R_
                0x00000000002f1e24                fcvDotProduct128x4s8R_
                0x00000000002f1e28                fcvDotProductNorm128x4s8R_
                0x00000000002f1e2c                fcvDotProduct128x1u8R_
                0x00000000002f1e30                fcvDotProduct128x4u8R_
                0x00000000002f1e34                fcvDotProductNorm128x4u8R_
                0x00000000002f1e38                fcvDotProduct8x8u8R_
                0x00000000002f1e3c                fcvDotProduct11x12u8R_
                0x00000000002f1e40                fcvFilterSobel3x3u8_v2R_
                0x00000000002f1e44                fcvFilterCanny3x3u8_v2R_
                0x00000000002f1e48                fcvFilterCanny3x3u8_v3R_
                0x00000000002f1e4c                fcvImageDiffu8_v2R_
                0x00000000002f1e50                fcvImageDiffs16_v2R_
                0x00000000002f1e54                fcvImageGradientInterleaveds16_v2R_
                0x00000000002f1e58                fcvImageGradientInterleavedf32_v2R_
                0x00000000002f1e5c                fcvImageGradientPlanars16_v2R_
                0x00000000002f1e60                fcvImageGradientPlanarf32_v2R_
                0x00000000002f1e64                fcvImageGradientSobelInterleaveds16_v2R_
                0x00000000002f1e68                fcvImageGradientSobelInterleaveds16_v3R_
                0x00000000002f1e6c                fcvImageGradientSobelInterleavedf32_v2R_
                0x00000000002f1e70                fcvImageGradientSobelPlanars16_v2R_
                0x00000000002f1e74                fcvImageGradientSobelPlanars16_v3R_
                0x00000000002f1e78                fcvImageGradientSobelPlanarf32_v2R_
                0x00000000002f1e7c                fcvImageGradientSobelPlanarf32f32_v2R_
                0x00000000002f1e80                fcvClusterEuclideanf32R_
                0x00000000002f1e84                fcvClusterEuclideanu8R_
                0x00000000002f1e88                fcvClusterEuclideanNormedf32R_
                0x00000000002f1e8c                fcvClusterEuclideanNormed36f32R_
                0x00000000002f1e90                fcvImageGradientSobelPlanars8_v2R_
                0x00000000002f1e94                fcvCornerFast9u8_v2R_
                0x00000000002f1e98                fcvCornerFast9Scoreu8_v3R_
                0x00000000002f1e9c                fcvCornerFast9InMasku8_v2R_
                0x00000000002f1ea0                fcvCornerFast9InMaskScoreu8_v3R_
                0x00000000002f1ea4                fcvCornerFast9Scoreu8_v4R_
                0x00000000002f1ea8                fcvCornerFast9InMaskScoreu8_v4R_
                0x00000000002f1eac                fcvCornerHarrisu8R_
                0x00000000002f1eb0                fcvLocalHarrisMaxu8R_
                0x00000000002f1eb4                fcvCornerHarrisInMasku8R_
                0x00000000002f1eb8                fcvGeomAffineFitf32R_
                0x00000000002f1ebc                fcvGeomAffineEvaluatef32R_
                0x00000000002f1ec0                fcvGeomHomographyFitf32R_
                0x00000000002f1ec4                fcvGeomHomographyEvaluatef32R_
                0x00000000002f1ec8                fcvGeomPoseRefineGNf32R_
                0x00000000002f1ecc                fcvGeomPoseUpdatef32R_
                0x00000000002f1ed0                fcvGeomPoseOptimizeGNf32R_
                0x00000000002f1ed4                fcvGeomPoseEvaluateErrorf32R_
                0x00000000002f1ed8                fcvGeomPoseEvaluatef32R_
                0x00000000002f1edc                fcvGeom3PointPoseEstimatef32R_
                0x00000000002f1ee0                fcvImageSegmentationRegionGrowR_
                0x00000000002f1ee4                fcvFilterCorr3x3s8_v2R_
                0x00000000002f1ee8                fcvFilterCorrSep9x9s16_v3R_
                0x00000000002f1eec                fcvFilterCorrSep11x11s16_v3R_
                0x00000000002f1ef0                fcvFilterCorrSep13x13s16_v3R_
                0x00000000002f1ef4                fcvFilterCorrSep15x15s16_v3R_
                0x00000000002f1ef8                fcvFilterCorrSep17x17s16_v3R_
                0x00000000002f1efc                fcvFilterCorrSepNxNs16R_
                0x00000000002f1f00                fcvImageIntensityStatsR_
                0x00000000002f1f04                fcvImageIntensityHistogramR_
                0x00000000002f1f08                fcvIntegrateImageu8_v2R_
                0x00000000002f1f0c                fcvIntegratePatchu8_v2R_
                0x00000000002f1f10                fcvIntegratePatch12x12u8_v2R_
                0x00000000002f1f14                fcvIntegratePatch18x18u8_v2R_
                0x00000000002f1f18                fcvIntegrateImageLineu8R_
                0x00000000002f1f1c                fcvIntegrateImageLine64u8R_
                0x00000000002f1f20                fcvNCCPatchOnCircle8x8u8_v2R_
                0x00000000002f1f24                fcvNCCPatchOnSquare8x8u8_v2R_
                0x00000000002f1f28                fcvVecNormalize36s8f32R_
                0x00000000002f1f2c                fcvSumOfAbsoluteDiffs8x8u8_v2R_
                0x00000000002f1f30                fcvSumOfAbsoluteDiffs16x16u8R_
                0x00000000002f1f34                fcvSumOfAbsoluteDiff8x8u8R_
                0x00000000002f1f38                fcvSumOfAbsoluteDiff16x16u8R_
                0x00000000002f1f3c                fcvScaleDownBy2u8_v2R_
                0x00000000002f1f40                fcvScaleDownBy4u8_v2R_
                0x00000000002f1f44                fcvScaleDown3To2u8R_
                0x00000000002f1f48                fcvScaleDownNNu8R_
                0x00000000002f1f4c                fcvScaleDownu8_v2R_
                0x00000000002f1f50                fcvScaleUpBy2Gaussian5x5u8_v2R_
                0x00000000002f1f54                fcvScaleDownBy2Gaussian5x5u8R_
                0x00000000002f1f58                fcvScaleDownBy2Gaussian5x5u8_v2R_
                0x00000000002f1f5c                fcvScaleDownBy2Gaussian5x5f32R_
                0x00000000002f1f60                fcvScaleDownBy2Gaussian5x5f32_v2R_
                0x00000000002f1f64                fcvSumOfSquaredDiffs36x4s8R_
                0x00000000002f1f68                fcvSumOfSquaredDiffs36xNs8R_
                0x00000000002f1f6c                fcvSort8Scoresf32R_
                0x00000000002f1f70                fcvFilterThresholdu8_v2R_
                0x00000000002f1f74                fcvTransformAffine8x8u8_v2R_
                0x00000000002f1f78                fcvWarpPerspectiveu8R_
                0x00000000002f1f7c                fcvWarpPerspectiveu8_v2R_
                0x00000000002f1f80                fcv3ChannelWarpPerspectiveu8R_
                0x00000000002f1f84                fcv3ChannelWarpPerspectiveu8_v2R_
                0x00000000002f1f88                fcvFilterDilate3x3u8_v2R_
                0x00000000002f1f8c                fcvFilterErode3x3u8_v2R_
                0x00000000002f1f90                fcvFilterGaussian5x5s16_v2R_
                0x00000000002f1f94                fcvFilterGaussian5x5s32_v2R_
                0x00000000002f1f98                fcvTransformAffineu8_v2R_
                0x00000000002f1f9c                fcvCopyRotated17x17u8R_
                0x00000000002f1fa0                fcvCopyR_
                0x00000000002f1fa4                fcvTrackLKOpticalFlowf32R_
                0x00000000002f1fa8                fcvTrackLKOpticalFlowu8R_
                0x00000000002f1fac                fcvPyramidCreatef32R_
                0x00000000002f1fb0                fcvPyramidCreateu8R_
                0x00000000002f1fb4                fcvPyramidAllocateR_
                0x00000000002f1fb8                fcvPyramidDeleteR_
                0x00000000002f1fbc                fcvPyramidSobelGradientCreatei16R_
                0x00000000002f1fc0                fcvPyramidSobelGradientCreatei8R_
                0x00000000002f1fc4                fcvPyramidSobelGradientCreatef32R_
                0x00000000002f1fc8                fcvBitCountu8R_
                0x00000000002f1fcc                fcvBitCount32x1u8R_
                0x00000000002f1fd0                fcvBitCount32x4u8R_
                0x00000000002f1fd4                fcvBitCount64x1u8R_
                0x00000000002f1fd8                fcvBitCount64x4u8R_
                0x00000000002f1fdc                fcvBitCountu32R_
                0x00000000002f1fe0                fcvHammingDistanceu8R_
                0x00000000002f1fe4                fcvHammingDistance32x1u8a4R_
                0x00000000002f1fe8                fcvHammingDistance64x1u8a4R_
                0x00000000002f1fec                fcvHammingDistance32x1u8R_
                0x00000000002f1ff0                fcvHammingDistance64x1u8R_
                0x00000000002f1ff4                fcvHammingDistance32x4u8a4R_
                0x00000000002f1ff8                fcvHammingDistance64x4u8a4R_
                0x00000000002f1ffc                fcvHammingDistance64x4u8R_
                0x00000000002f2000                fcvBitwiseOru8R_
                0x00000000002f2004                fcvBitwiseOrs32R_
                0x00000000002f2008                fcvColorRGB888ToGrayu8R_
                0x00000000002f200c                fcvTiltedIntegralu8s32R_
                0x00000000002f2010                fcvConvValids16R_
                0x00000000002f2014                fcvKMeansTreeSearch36x10s8R_
                0x00000000002f2018                fcvLinearSearch8x36s8R_
                0x00000000002f201c                fcvLinearSearchPrepare8x36s8_v2R_
                0x00000000002f2020                fcvImageDifff32_v2R_
                0x00000000002f2024                fcvImageDiffu8f32_v3R_
                0x00000000002f2028                fcvImageDiffu8s8_v2R_
                0x00000000002f202c                fcvKDTreeCreate36s8f32R_
                0x00000000002f2030                fcvKDTreeDestroy36s8f32R_
                0x00000000002f2034                fcvKDTreeQuery36s8f32R_
                0x00000000002f2038                fcvColorYUV420toRGB565u8Rotate180R_
                0x00000000002f203c                fcvTrackBMOpticalFlow16x16u8R_
                0x00000000002f2040                fcvBoundingRectangleR_
                0x00000000002f2044                fcvMserInitR_
                0x00000000002f2048                fcvMseru8R_
                0x00000000002f204c                fcvMserExtu8R_
                0x00000000002f2050                fcvMseru8_v2R_
                0x00000000002f2054                fcvMserExtu8_v2R_
                0x00000000002f2058                fcvMserExtu8_v3R_
                0x00000000002f205c                fcvMserSplitExtu8R_
                0x00000000002f2060                fcvMserReleaseR_
                0x00000000002f2064                fcvMserNN8InitR_
                0x00000000002f2068                fcvMserNN8u8R_
                0x00000000002f206c                fcvMserExtNN8u8R_
                0x00000000002f2070                fcvUpsampleVerticalu8R_
                0x00000000002f2074                fcvUpsampleHorizontalu8R_
                0x00000000002f2078                fcvUpsample2Du8R_
                0x00000000002f207c                fcvUpsampleVerticalInterleavedu8R_
                0x00000000002f2080                fcvUpsampleHorizontalInterleavedu8R_
                0x00000000002f2084                fcvUpsample2DInterleavedu8R_
                0x00000000002f2088                fcvColorRGB565ToYCbCr444Planaru8R_
                0x00000000002f208c                fcvColorRGB565ToYCbCr422Planaru8R_
                0x00000000002f2090                fcvColorRGB565ToYCbCr420Planaru8R_
                0x00000000002f2094                fcvColorRGB888ToYCbCr444Planaru8R_
                0x00000000002f2098                fcvColorRGB888ToYCbCr422Planaru8R_
                0x00000000002f209c                fcvColorRGB888ToYCbCr420Planaru8R_
                0x00000000002f20a0                fcvColorRGBA8888ToYCbCr444Planaru8R_
                0x00000000002f20a4                fcvColorRGBA8888ToYCbCr422Planaru8R_
                0x00000000002f20a8                fcvColorRGBA8888ToYCbCr420Planaru8R_
                0x00000000002f20ac                fcvColorRGB565ToYCbCr444PseudoPlanaru8R_
                0x00000000002f20b0                fcvColorRGB565ToYCbCr422PseudoPlanaru8R_
                0x00000000002f20b4                fcvColorRGB565ToYCbCr420PseudoPlanaru8R_
                0x00000000002f20b8                fcvColorRGB888ToYCbCr444PseudoPlanaru8R_
                0x00000000002f20bc                fcvColorRGB888ToYCbCr422PseudoPlanaru8R_
                0x00000000002f20c0                fcvColorRGB888ToYCbCr420PseudoPlanaru8R_
                0x00000000002f20c4                fcvColorRGBA8888ToYCbCr444PseudoPlanaru8R_
                0x00000000002f20c8                fcvColorRGBA8888ToYCbCr422PseudoPlanaru8R_
                0x00000000002f20cc                fcvColorRGBA8888ToYCbCr420PseudoPlanaru8R_
                0x00000000002f20d0                fcvColorRGB565ToRGB888u8R_
                0x00000000002f20d4                fcvColorRGB565ToRGBA8888u8R_
                0x00000000002f20d8                fcvColorRGB565ToBGR565u8R_
                0x00000000002f20dc                fcvColorRGB565ToBGR888u8R_
                0x00000000002f20e0                fcvColorRGB565ToBGRA8888u8R_
                0x00000000002f20e4                fcvColorRGB888ToRGB565u8R_
                0x00000000002f20e8                fcvColorRGB888ToRGBA8888u8R_
                0x00000000002f20ec                fcvColorRGB888ToBGR565u8R_
                0x00000000002f20f0                fcvColorRGB888ToBGR888u8R_
                0x00000000002f20f4                fcvColorRGB888ToBGRA8888u8R_
                0x00000000002f20f8                fcvColorRGBA8888ToRGB565u8R_
                0x00000000002f20fc                fcvColorRGBA8888ToRGB888u8R_
                0x00000000002f2100                fcvColorRGBA8888ToBGR565u8R_
                0x00000000002f2104                fcvColorRGBA8888ToBGR888u8R_
                0x00000000002f2108                fcvColorRGBA8888ToBGRA8888u8R_
                0x00000000002f210c                fcvColorRGBA8888ToLABu8R_
                0x00000000002f2110                fcvColorYCbCr444PlanarToYCbCr422Planaru8R_
                0x00000000002f2114                fcvColorYCbCr444PlanarToYCbCr420Planaru8R_
                0x00000000002f2118                fcvColorYCbCr444PlanarToYCbCr444PseudoPlanaru8R_
                0x00000000002f211c                fcvColorYCbCr444PlanarToYCbCr422PseudoPlanaru8R_
                0x00000000002f2120                fcvColorYCbCr444PlanarToYCbCr420PseudoPlanaru8R_
                0x00000000002f2124                fcvColorYCbCr422PlanarToYCbCr444Planaru8R_
                0x00000000002f2128                fcvColorYCbCr422PlanarToYCbCr420Planaru8R_
                0x00000000002f212c                fcvColorYCbCr422PlanarToYCbCr444PseudoPlanaru8R_
                0x00000000002f2130                fcvColorYCbCr422PlanarToYCbCr422PseudoPlanaru8R_
                0x00000000002f2134                fcvColorYCbCr422PlanarToYCbCr420PseudoPlanaru8R_
                0x00000000002f2138                fcvColorYCbCr420PlanarToYCbCr444Planaru8R_
                0x00000000002f213c                fcvColorYCbCr420PlanarToYCbCr422Planaru8R_
                0x00000000002f2140                fcvColorYCbCr420PlanarToYCbCr444PseudoPlanaru8R_
                0x00000000002f2144                fcvColorYCbCr420PlanarToYCbCr422PseudoPlanaru8R_
                0x00000000002f2148                fcvColorYCbCr420PlanarToYCbCr420PseudoPlanaru8R_
                0x00000000002f214c                fcvColorYCbCr444PseudoPlanarToYCbCr422PseudoPlanaru8R_
                0x00000000002f2150                fcvColorYCbCr444PseudoPlanarToYCbCr420PseudoPlanaru8R_
                0x00000000002f2154                fcvColorYCbCr444PseudoPlanarToYCbCr444Planaru8R_
                0x00000000002f2158                fcvColorYCbCr444PseudoPlanarToYCbCr422Planaru8R_
                0x00000000002f215c                fcvColorYCbCr444PseudoPlanarToYCbCr420Planaru8R_
                0x00000000002f2160                fcvColorYCbCr422PseudoPlanarToYCbCr444PseudoPlanaru8R_
                0x00000000002f2164                fcvColorYCbCr422PseudoPlanarToYCbCr420PseudoPlanaru8R_
                0x00000000002f2168                fcvColorYCbCr422PseudoPlanarToYCbCr444Planaru8R_
                0x00000000002f216c                fcvColorYCbCr422PseudoPlanarToYCbCr422Planaru8R_
                0x00000000002f2170                fcvColorYCbCr422PseudoPlanarToYCbCr420Planaru8R_
                0x00000000002f2174                fcvColorYCbCr420PseudoPlanarToYCbCr444PseudoPlanaru8R_
                0x00000000002f2178                fcvColorYCbCr420PseudoPlanarToYCbCr422PseudoPlanaru8R_
                0x00000000002f217c                fcvColorYCbCr420PseudoPlanarToYCbCr444Planaru8R_
                0x00000000002f2180                fcvColorYCbCr420PseudoPlanarToYCbCr422Planaru8R_
                0x00000000002f2184                fcvColorYCbCr420PseudoPlanarToYCbCr420Planaru8R_
                0x00000000002f2188                fcvColorYCbCr444PlanarToRGB565u8R_
                0x00000000002f218c                fcvColorYCbCr444PlanarToRGB888u8R_
                0x00000000002f2190                fcvColorYCbCr444PlanarToRGBA8888u8R_
                0x00000000002f2194                fcvColorYCbCr422PlanarToRGB565u8R_
                0x00000000002f2198                fcvColorYCbCr422PlanarToRGB888u8R_
                0x00000000002f219c                fcvColorYCbCr422PlanarToRGBA8888u8R_
                0x00000000002f21a0                fcvColorYCbCr420PlanarToRGB565u8R_
                0x00000000002f21a4                fcvColorYCbCr420PlanarToRGB888u8R_
                0x00000000002f21a8                fcvColorYCbCr420PlanarToRGBA8888u8R_
                0x00000000002f21ac                fcvColorYCbCr444PseudoPlanarToRGB565u8R_
                0x00000000002f21b0                fcvColorYCbCr444PseudoPlanarToRGB888u8R_
                0x00000000002f21b4                fcvColorYCbCr444PseudoPlanarToRGBA8888u8R_
                0x00000000002f21b8                fcvColorYCbCr422PseudoPlanarToRGB565u8R_
                0x00000000002f21bc                fcvColorYCbCr422PseudoPlanarToRGB888u8R_
                0x00000000002f21c0                fcvColorYCbCr422PseudoPlanarToRGBA8888u8R_
                0x00000000002f21c4                fcvColorYCbCr420PseudoPlanarToRGB565u8R_
                0x00000000002f21c8                fcvColorYCbCr420PseudoPlanarToRGB888u8R_
                0x00000000002f21cc                fcvColorYCbCr420PseudoPlanarToRGBA8888u8R_
                0x00000000002f21d0                fcvEdgeWeightings16R_
                0x00000000002f21d4                fcvDeinterleaveu8R_
                0x00000000002f21d8                fcvInterleaveu8R_
                0x00000000002f21dc                fcvDWTHaarTransposeu8R_
                0x00000000002f21e0                fcvDWT53TabTransposes16R_
                0x00000000002f21e4                fcvIDWT53TabTransposes16R_
                0x00000000002f21e8                fcvIDWTHaarTransposes16R_
                0x00000000002f21ec                fcvScaleUpPolyu8R_
                0x00000000002f21f0                fcvScaleUpPolyInterleaveu8R_
                0x00000000002f21f4                fcvScaleDownMNu8R_
                0x00000000002f21f8                fcvScaleDownMNInterleaveu8R_
                0x00000000002f21fc                fcvFindContoursExternalu8R_
                0x00000000002f2200                fcvFindContoursListu8R_
                0x00000000002f2204                fcvFindContoursCcompu8R_
                0x00000000002f2208                fcvFindContoursTreeu8R_
                0x00000000002f220c                fcvFindContoursAllocateR_
                0x00000000002f2210                fcvFindContoursDeleteR_
                0x00000000002f2214                fcvSolvef32R_
                0x00000000002f2218                fcvGetPerspectiveTransformf32R_
                0x00000000002f221c                fcvSetElementsu8R_
                0x00000000002f2220                fcvSetElementss32R_
                0x00000000002f2224                fcvSetElementsf32R_
                0x00000000002f2228                fcvSetElementsc4u8R_
                0x00000000002f222c                fcvSetElementsc4s32R_
                0x00000000002f2230                fcvSetElementsc4f32R_
                0x00000000002f2234                fcvSetElementsc3u8R_
                0x00000000002f2238                fcvSetElementsc3s32R_
                0x00000000002f223c                fcvSetElementsc3f32R_
                0x00000000002f2240                fcvAdaptiveThresholdGaussian3x3u8R_
                0x00000000002f2244                fcvAdaptiveThresholdGaussian5x5u8R_
                0x00000000002f2248                fcvAdaptiveThresholdGaussian11x11u8R_
                0x00000000002f224c                fcvAdaptiveThresholdMean3x3u8R_
                0x00000000002f2250                fcvAdaptiveThresholdMean5x5u8R_
                0x00000000002f2254                fcvAdaptiveThresholdMean11x11u8R_
                0x00000000002f2258                fcvBoxFilter3x3u8R_
                0x00000000002f225c                fcvBoxFilter5x5u8R_
                0x00000000002f2260                fcvBoxFilter11x11u8R_
                0x00000000002f2264                fcvBoxFilterNxNf32R_
                0x00000000002f2268                fcvBilateralFilter5x5u8R_
                0x00000000002f226c                fcvBilateralFilter7x7u8R_
                0x00000000002f2270                fcvBilateralFilter9x9u8R_
                0x00000000002f2274                fcvSegmentFGMasku8R_
                0x00000000002f2278                fcvDrawContouru8R_
                0x00000000002f227c                fcvDrawContourInterleavedu8R_
                0x00000000002f2280                fcvDrawContourPlanaru8R_
                0x00000000002f2284                fcvAbsDiffu8R_
                0x00000000002f2288                fcvAbsDiffs32R_
                0x00000000002f228c                fcvAbsDifff32R_
                0x00000000002f2290                fcvAbsDiffVu8R_
                0x00000000002f2294                fcvAbsDiffVs32R_
                0x00000000002f2298                fcvAbsDiffVf32R_
                0x00000000002f229c                fcvAbsDiffVc4u8R_
                0x00000000002f22a0                fcvAbsDiffVc4s32R_
                0x00000000002f22a4                fcvAbsDiffVc4f32R_
                0x00000000002f22a8                fcvAbsDiffVc3u8R_
                0x00000000002f22ac                fcvAbsDiffVc3s32R_
                0x00000000002f22b0                fcvAbsDiffVc3f32R_
                0x00000000002f22b4                fcvImageGradientScharrInterleaveds16R_
                0x00000000002f22b8                fcvColorRGB888ToRGB565Rotate180u8R_
                0x00000000002f22bc                fcvDWTHaaru8R_
                0x00000000002f22c0                fcvDWT53Tabs16R_
                0x00000000002f22c4                fcvIDWT53Tabs16R_
                0x00000000002f22c8                fcvIDWTHaars16R_
                0x00000000002f22cc                fcvDCTu8R_
                0x00000000002f22d0                fcvIDCTs16R_
                0x00000000002f22d4                fcvCornerFast10u8R_
                0x00000000002f22d8                fcvCornerFast10Scoreu8R_
                0x00000000002f22dc                fcvCornerFast10InMasku8R_
                0x00000000002f22e0                fcvCornerFast10InMaskScoreu8R_
                0x00000000002f22e4                fcvSVDf32R_
                0x00000000002f22e8                fcvFloodfillSimpleu8R_
                0x00000000002f22ec                fcvUpdateMotionHistoryu8s32R_
                0x00000000002f22f0                fcvIntegrateImageYCbCr420PseudoPlanaru8R_
                0x00000000002f22f4                fcvFindForegroundIntegrateImageYCbCr420u32R_
                0x00000000002f22f8                fcvAverages32R_
                0x00000000002f22fc                fcvAverageu8R_
                0x00000000002f2300                fcvRemapRGBA8888NNu8R_
                0x00000000002f2304                fcvRemapRGBA8888BLu8R_
                0x00000000002f2308                fcvCreateBGCodeBookModelR_
                0x00000000002f230c                fcvReleaseBGCodeBookModelR_
                0x00000000002f2310                fcvConfigBGCodeBookModelR_
                0x00000000002f2314                fcvBGCodeBookUpdateu8R_
                0x00000000002f2318                fcvBGCodeBookDiffu8R_
                0x00000000002f231c                fcvBGCodeBookClearStaleu8R_
                0x00000000002f2320                fcvGeomDistortPoint2x1f32R_
                0x00000000002f2324                fcvGeomDistortPoint2xNf32R_
                0x00000000002f2328                fcvGeomUndistortPoint2x1f32R_
                0x00000000002f232c                fcvGeomUndistortPoint2xNf32R_
                0x00000000002f2330                fcvGeomProjectPoint3x1f32R_
                0x00000000002f2334                fcvGeomProjectPoint3xNf32R_
                0x00000000002f2338                fcvMeanShiftu8R_
                0x00000000002f233c                fcvMeanShifts32R_
                0x00000000002f2340                fcvMeanShiftf32R_
                0x00000000002f2344                fcvConAdaTracku8R_
                0x00000000002f2348                fcvConAdaTracks32R_
                0x00000000002f234c                fcvConAdaTrackf32R_
                0x00000000002f2350                fcvJacobianSE2f32R_
                0x00000000002f2354                fcvSolveCholeskyf32R_
                0x00000000002f2358                fcvFillConvexPolyu8R_
                0x00000000002f235c                fcvPointPolygonTestR_
                0x00000000002f2360                fcvTransformAffineClippedu8R_
                0x00000000002f2364                fcvHoughCircleu8R_
                0x00000000002f2368                fcvFindConvexHullR_
                0x00000000002f236c                probeQ6TimeR_
                0x00000000002f2370                fcvRegiterBufR_
                0x00000000002f2374                fcvImageMomentsu8R_
                0x00000000002f2378                fcvImageMomentss32R_
                0x00000000002f237c                fcvImageMomentsf32R_
                0x00000000002f2380                fcvSolveLDLf32R_
                0x00000000002f2384                fcvDotProductf32R_
                0x00000000002f2388                fcv3ChannelTransformAffineClippedBCu8R_
                0x00000000002f238c                fcvFilterThresholdOtsuu8R_
                0x00000000002f2390                fcvImageDetectEdgePixelsu8R_
                0x00000000002f2394                fcvSumOfSquaredDiffsu8R_
                0x00000000002f2398                fcvTransposeu8R_
                0x00000000002f239c                fcvSumOfSquaredDiffsf32R_
                0x00000000002f23a0                fcvGeomHomographyEvaluatef32_v2R_
                0x00000000002f23a4                fcvTransposeu16R_
                0x00000000002f23a8                fcvTransposef32R_
                0x00000000002f23ac                fcvFlipu8R_
                0x00000000002f23b0                fcvFlipu16R_
                0x00000000002f23b4                fcvElementMultiplyu8u16R_
                0x00000000002f23b8                fcvElementMultiplyf32R_
                0x00000000002f23bc                fcvMatrixMultiplys8s32R_
                0x00000000002f23c0                fcvMatrixMultiplyf32R_
                0x00000000002f23c4                fcvBlockDotProductu8R_
                0x00000000002f23c8                fcvBlockDotProductf32R_
                0x00000000002f23cc                fcvAddu8u16R_
                0x00000000002f23d0                fcvAdds16R_
                0x00000000002f23d4                fcvAddf32R_
                0x00000000002f23d8                fcvIntegrateImageu8u64R_
                0x00000000002f23dc                fcvImageHistogramEqualizeu8R_
                0x00000000002f23e0                fcvImageSpatialHistogramu8R_
                0x00000000002f23e4                fcvScaleDownBLu8R_
                0x00000000002f23e8                fcvPyramidCreatef32_v2R_
                0x00000000002f23ec                fcvPyramidCreateu8_v2R_
                0x00000000002f23f0                fcvTrackLKOpticalFlowu8_v2R_
                0x00000000002f23f4                fcvSumOfSquaredDiffss8R_
                0x00000000002f23f8                fcvHoughLineu8R_
                0x00000000002f23fc                fcvPyramidAllocate_v2R_
                0x00000000002f2400                fcvPyramidDelete_v2R_
                0x00000000002f2404                fcvColorCbCrSwapu8R_
                0x00000000002f2408                fcvSharedMemAllocR_
                0x00000000002f240c                fcvSharedMemAlloc_
                0x00000000002f2410                fcvSharedMemFreeR_
                0x00000000002f2414                fcvSharedMemFree_
                0x00000000002f2418                fcvCornerHarrisAdaptiveu8R_
 .bss           0x00000000002f2440        0x0 lib/libfastcv.a(libfastcv_la-fastcvHeapStats.o)
 .bss           0x00000000002f2440        0x0 lib/libfastcv.a(libfastcv_la-fastcvHelper.o)
 .bss           0x00000000002f2440        0x0 lib/libfastcv.a(libfastcv_la-fastcvHW.o)
 .bss           0x00000000002f2440        0x0 lib/libfastcv.a(libfastcv_la-fastcvAbsDiffC.o)
 .bss           0x00000000002f2440        0x0 lib/libfastcv.a(libfastcv_la-fastcvAdaptiveThresholdC.o)
 .bss           0x00000000002f2440        0x0 lib/libfastcv.a(libfastcv_la-fastcvAffineC.o)
 .bss           0x00000000002f2440        0x0 lib/libfastcv.a(libfastcv_la-fastcvArithmC.o)
 .bss           0x00000000002f2440        0x0 lib/libfastcv.a(libfastcv_la-fastcvAverageC.o)
 .bss           0x00000000002f2440        0x0 lib/libfastcv.a(libfastcv_la-fastcvBGCodeBookC.o)
 .bss           0x00000000002f2440        0x0 lib/libfastcv.a(libfastcv_la-fastcvBitCntC.o)
 .bss           0x00000000002f2440        0x0 lib/libfastcv.a(libfastcv_la-fastcvBitwiseOpC.o)
 .bss           0x00000000002f2440        0x0 lib/libfastcv.a(libfastcv_la-fastcvCalib3DC.o)
 .bss           0x00000000002f2440        0x0 lib/libfastcv.a(libfastcv_la-fastcvCalibrateC.o)
 .bss           0x00000000002f2440        0x0 lib/libfastcv.a(libfastcv_la-fastcvChannelC.o)
 .bss           0x00000000002f2440        0x0 lib/libfastcv.a(libfastcv_la-fastcvColor2C.o)
 .bss           0x00000000002f2440        0x0 lib/libfastcv.a(libfastcv_la-fastcvColorC.o)
 .bss           0x00000000002f2440        0x0 lib/libfastcv.a(libfastcv_la-fastcvColorPpfYuvUtilsC.o)
 .bss           0x00000000002f2440        0x0 lib/libfastcv.a(libfastcv_la-fastcvColorRgb2LabC.o)
 .bss           0x00000000002f2440        0x0 lib/libfastcv.a(libfastcv_la-fastcvColorRgb2YuvC.o)
 .bss           0x00000000002f2440        0x0 lib/libfastcv.a(libfastcv_la-fastcvColorRgbConversionC.o)
 .bss           0x00000000002f2440        0x0 lib/libfastcv.a(libfastcv_la-fastcvColorYuvConversionC.o)
 .bss           0x00000000002f2440        0x0 lib/libfastcv.a(libfastcv_la-fastcvContourC.o)
 .bss           0x00000000002f2440        0x0 lib/libfastcv.a(libfastcv_la-fastcvCopyC.o)
 .bss           0x00000000002f2440        0x0 lib/libfastcv.a(libfastcv_la-fastcvCornerSubPixelC.o)
 .bss           0x00000000002f2440        0x0 lib/libfastcv.a(libfastcv_la-fastcvDepthFusionC.o)
 .bss           0x00000000002f2440        0x0 lib/libfastcv.a(libfastcv_la-fastcvDescriptor2C.o)
 .bss           0x00000000002f2440        0x0 lib/libfastcv.a(libfastcv_la-fastcvDescriptorC.o)
 .bss           0x00000000002f2440        0x0 lib/libfastcv.a(libfastcv_la-fastcvEucldeanC.o)
 .bss           0x00000000002f2440        0x0 lib/libfastcv.a(libfastcv_la-fastcvFloodFillC.o)
 .bss           0x00000000002f2440        0x0 lib/libfastcv.a(libfastcv_la-fastcvGeomC.o)
 .bss           0x00000000002f2440        0x0 lib/libfastcv.a(libfastcv_la-fastcvHarrisC.o)
 .bss           0x00000000002f2440        0x0 lib/libfastcv.a(libfastcv_la-fastcvHOGC.o)
 .bss           0x00000000002f2440        0x0 lib/libfastcv.a(libfastcv_la-fastcvHoughCircleC.o)
 .bss           0x00000000002f2440        0x0 lib/libfastcv.a(libfastcv_la-fastcvHoughLineC.o)
 .bss           0x00000000002f2440        0x0 lib/libfastcv.a(libfastcv_la-fastcvImageDiffC.o)
 .bss           0x00000000002f2440        0x0 lib/libfastcv.a(libfastcv_la-fastcvImageIntensityC.o)
 .bss           0x00000000002f2440        0x0 lib/libfastcv.a(libfastcv_la-fastcvImagePostProcC.o)
 .bss           0x00000000002f2440        0x0 lib/libfastcv.a(libfastcv_la-fastcvImageSegmentationC.o)
 .bss           0x00000000002f2440        0x0 lib/libfastcv.a(libfastcv_la-fastcvIntegrateImageC.o)
 .bss           0x00000000002f2440        0x0 lib/libfastcv.a(libfastcv_la-fastcvIntegrateImageYuvC.o)
 .bss           0x00000000002f2440        0x0 lib/libfastcv.a(libfastcv_la-fastcvIppScaleC.o)
 .bss           0x00000000002f2440        0x0 lib/libfastcv.a(libfastcv_la-fastcvIppTransformC.o)
 .bss           0x00000000002f2440        0x0 lib/libfastcv.a(libfastcv_la-fastcvKDTree36s8f32C.o)
 .bss           0x00000000002f2440        0x0 lib/libfastcv.a(libfastcv_la-fastcvKMeansTreeSearchC.o)
 .bss           0x00000000002f2440        0x0 lib/libfastcv.a(libfastcv_la-fastcvLBPC.o)
 .bss           0x00000000002f2440        0x0 lib/libfastcv.a(libfastcv_la-fastcvLinearSearchC.o)
 .bss           0x00000000002f2440        0x0 lib/libfastcv.a(libfastcv_la-fastcvMotionHistoryC.o)
 .bss           0x00000000002f2440        0x0 lib/libfastcv.a(libfastcv_la-fastcvMserFxpC.o)
 .bss           0x00000000002f2440        0x0 lib/libfastcv.a(libfastcv_la-fastcvNCCPatchC.o)
 .bss           0x00000000002f2440        0x0 lib/libfastcv.a(libfastcv_la-fastcvPolygonC.o)
 .bss           0x00000000002f2440        0x0 lib/libfastcv.a(libfastcv_la-fastcvRemapC.o)
 .bss           0x00000000002f2440        0x0 lib/libfastcv.a(libfastcv_la-fastcvSADC.o)
 .bss           0x00000000002f2440        0x0 lib/libfastcv.a(libfastcv_la-fastcvScaleC.o)
 .bss           0x00000000002f2440        0x0 lib/libfastcv.a(libfastcv_la-fastcvSegmentMaskC.o)
 .bss           0x00000000002f2440        0x0 lib/libfastcv.a(libfastcv_la-fastcvSetC.o)
 .bss           0x00000000002f2440        0x0 lib/libfastcv.a(libfastcv_la-fastcvSmoothC.o)
 .bss           0x00000000002f2440        0x0 lib/libfastcv.a(libfastcv_la-fastcvSolveC.o)
 .bss           0x00000000002f2440        0x0 lib/libfastcv.a(libfastcv_la-fastcvSVDC.o)
 .bss           0x00000000002f2440        0x0 lib/libfastcv.a(libfastcv_la-fastcvSVMPredictC.o)
 .bss           0x00000000002f2440        0x0 lib/libfastcv.a(libfastcv_la-fastcvTrackC.o)
 .bss           0x00000000002f2440        0x0 lib/libfastcv.a(libfastcv_la-fastcvTransformC.o)
 .bss           0x00000000002f2440        0x0 lib/libfastcv.a(libfastcv_la-fastcvUpsampleC.o)
 .bss           0x00000000002f2440        0x0 lib/libfastcv.a(libfastcv_la-fastcvVectorC.o)
 .bss           0x00000000002f2440        0x0 lib/libfastcv.a(libfastcv_la-fastcvWarpC.o)
 .bss           0x00000000002f2440       0x24 lib/libfastcv.a(libfastcv_la-fastcvHwAndroid.o)
                0x00000000002f2440                QDSP_initflag
                0x00000000002f2444                GPU_initflag
 .bss           0x00000000002f2464        0x4 lib/libfastcv.a(libfastcv_la-fastcvRemoteLibAndroid.o)
 .bss           0x00000000002f2468        0x0 lib/libfastcv.a(libfastcv_la-fastcvTrigonometricTable.o)
 .bss           0x00000000002f2468        0x0 lib/libfastcv.a(libfastcv_la-fastcvDotC.o)
 .bss           0x00000000002f2468        0x0 lib/libfastcv.a(libfastcv_la-fastcvEdgeC.o)
 .bss           0x00000000002f2468        0x0 lib/libfastcv.a(libfastcv_la-fastcvFastC.o)
 .bss           0x00000000002f2468        0x0 lib/libfastcv.a(libfastcv_la-fastcvRectangleC.o)
 .bss           0x00000000002f2468        0x0 lib/libfastcv.a(libfastcv_la-fastcvSSDC.o)
 .bss           0x00000000002f2468        0x0 lib/libfastcv.a(fastcvCalibrateV.o)
 .bss           0x00000000002f2468        0x0 lib/libfastcv.a(fastcvEdgeV2.o)
 .bss           0x00000000002f2468        0x0 lib/libfastcv.a(libfastcvAbsDiffV_la-fastcvAbsDiffV.o)
 .bss           0x00000000002f2468        0x0 lib/libfastcv.a(libfastcvAdaptiveThresholdV_la-fastcvAdaptiveThresholdV.o)
 .bss           0x00000000002f2468        0x0 lib/libfastcv.a(libfastcvBlurV_la-fastcvBlurV.o)
 .bss           0x00000000002f2468        0x0 lib/libfastcv.a(libfastcvDescriptorV_la-fastcvDescriptorV.o)
 .bss           0x00000000002f2468        0x0 lib/libfastcv.a(libfastcvDotV_la-fastcvDotV.o)
 .bss           0x00000000002f2468        0x0 lib/libfastcv.a(libfastcvFast10V_la-fastcvFast10V.o)
 .bss           0x00000000002f2468        0x0 lib/libfastcv.a(libfastcvFastV_la-fastcvFastV.o)
 .bss           0x00000000002f2468        0x0 lib/libfastcv.a(libfastcvFilter1V_la-fastcvFilter1V.o)
 .bss           0x00000000002f2468        0x8 lib/libfastcv.a(libfastcvFilterV_la-fastcvFilterV.o)
                0x00000000002f2468                _v_zero
 .bss           0x00000000002f2470        0x0 lib/libfastcv.a(libfastcvMeanShiftV_la-fastcvMeanShiftV.o)
 .bss           0x00000000002f2470        0x0 lib/libfastcv.a(libfastcvSVDV_la-fastcvSVDV.o)
 .bss           0x00000000002f2470      0x800 lib/libfastcv.a(libfastcvScaleV_la-fastcvScaleV.o)
                0x00000000002f2470                tmpRaster
 .bss           0x00000000002f2c70        0x0 lib/libfastcv.a(libfastcvWarpV_la-fastcvWarpV.o)
 .bss           0x00000000002f2c70        0x0 lib/libfastcv.a(libfastcvv_la-fastcvAffineV1.o)
 .bss           0x00000000002f2c70        0x0 lib/libfastcv.a(libfastcvv_la-fastcvArithmV.o)
 .bss           0x00000000002f2c70        0x0 lib/libfastcv.a(libfastcvv_la-fastcvAverageV.o)
 .bss           0x00000000002f2c70        0x0 lib/libfastcv.a(libfastcvv_la-fastcvBitCntWrapV.o)
 .bss           0x00000000002f2c70        0x0 lib/libfastcv.a(libfastcvv_la-fastcvBitwiseOpV.o)
 .bss           0x00000000002f2c70        0x0 lib/libfastcv.a(libfastcvv_la-fastcvBoundingRectV.o)
 .bss           0x00000000002f2c70        0x0 lib/libfastcv.a(libfastcvv_la-fastcvCalib3DV.o)
 .bss           0x00000000002f2c70        0x0 lib/libfastcv.a(libfastcvv_la-fastcvCalibrateV1.o)
 .bss           0x00000000002f2c70        0x0 lib/libfastcv.a(libfastcvv_la-fastcvChannelV.o)
 .bss           0x00000000002f2c70        0x0 lib/libfastcv.a(libfastcvv_la-fastcvColorPpfYuvUtilsV.o)
 .bss           0x00000000002f2c70        0x0 lib/libfastcv.a(libfastcvv_la-fastcvColorRgb2LabV.o)
 .bss           0x00000000002f2c70        0x0 lib/libfastcv.a(libfastcvv_la-fastcvColorRgb2YuvV.o)
 .bss           0x00000000002f2c70        0x0 lib/libfastcv.a(libfastcvv_la-fastcvColorRgbConversionV.o)
 .bss           0x00000000002f2c70        0x0 lib/libfastcv.a(libfastcvv_la-fastcvColorV.o)
 .bss           0x00000000002f2c70        0x0 lib/libfastcv.a(libfastcvv_la-fastcvColorYuvConversionV.o)
 .bss           0x00000000002f2c70        0x0 lib/libfastcv.a(libfastcvv_la-fastcvContourV.o)
 .bss           0x00000000002f2c70        0x0 lib/libfastcv.a(libfastcvv_la-fastcvCopyV.o)
 .bss           0x00000000002f2c70        0x0 lib/libfastcv.a(libfastcvv_la-fastcvCornerSubPixelV.o)
 .bss           0x00000000002f2c70        0x0 lib/libfastcv.a(libfastcvv_la-fastcvDepthFusionV.o)
 .bss           0x00000000002f2c70        0x0 lib/libfastcv.a(libfastcvv_la-fastcvDescriptor2V.o)
 .bss           0x00000000002f2c70        0x0 lib/libfastcv.a(libfastcvv_la-fastcvEdgeV.o)
 .bss           0x00000000002f2c70        0x0 lib/libfastcv.a(libfastcvv_la-fastcvEucldeanV.o)
 .bss           0x00000000002f2c70        0x0 lib/libfastcv.a(libfastcvv_la-fastcvFloodFillV.o)
 .bss           0x00000000002f2c70        0x0 lib/libfastcv.a(libfastcvv_la-fastcvGeomV.o)
 .bss           0x00000000002f2c70        0x0 lib/libfastcv.a(libfastcvv_la-fastcvHOGV.o)
 .bss           0x00000000002f2c70        0x0 lib/libfastcv.a(libfastcvv_la-fastcvHarrisV.o)
 .bss           0x00000000002f2c70        0x0 lib/libfastcv.a(libfastcvv_la-fastcvHomographyV.o)
 .bss           0x00000000002f2c70        0x0 lib/libfastcv.a(libfastcvv_la-fastcvHoughCircleV.o)
 .bss           0x00000000002f2c70        0x0 lib/libfastcv.a(libfastcvv_la-fastcvHoughLineV.o)
 .bss           0x00000000002f2c70        0x0 lib/libfastcv.a(libfastcvv_la-fastcvImageDiffV.o)
 .bss           0x00000000002f2c70        0x0 lib/libfastcv.a(libfastcvv_la-fastcvImageIntensityV.o)
 .bss           0x00000000002f2c70        0x0 lib/libfastcv.a(libfastcvv_la-fastcvImagePostProcV.o)
 .bss           0x00000000002f2c70        0x0 lib/libfastcv.a(libfastcvv_la-fastcvIntegrateImageV.o)
 .bss           0x00000000002f2c70        0x0 lib/libfastcv.a(libfastcvv_la-fastcvIntegrateImageYuvV.o)
 .bss           0x00000000002f2c70        0x0 lib/libfastcv.a(libfastcvv_la-fastcvIppScaleV.o)
 .bss           0x00000000002f2c70        0x0 lib/libfastcv.a(libfastcvv_la-fastcvIppTransformV.o)
 .bss           0x00000000002f2c70        0x0 lib/libfastcv.a(libfastcvv_la-fastcvLBPV.o)
 .bss           0x00000000002f2c70        0x0 lib/libfastcv.a(libfastcvv_la-fastcvMotionHistoryV.o)
 .bss           0x00000000002f2c70        0x0 lib/libfastcv.a(libfastcvv_la-fastcvMserFxpV.o)
 .bss           0x00000000002f2c70        0x0 lib/libfastcv.a(libfastcvv_la-fastcvNCCPatchV.o)
 .bss           0x00000000002f2c70        0x0 lib/libfastcv.a(libfastcvv_la-fastcvPolygonV.o)
 .bss           0x00000000002f2c70        0x0 lib/libfastcv.a(libfastcvv_la-fastcvPyramidV.o)
 .bss           0x00000000002f2c70        0x0 lib/libfastcv.a(libfastcvv_la-fastcvRemapV.o)
 .bss           0x00000000002f2c70        0x0 lib/libfastcv.a(libfastcvv_la-fastcvSADV.o)
 .bss           0x00000000002f2c70        0x0 lib/libfastcv.a(libfastcvv_la-fastcvSSDV.o)
 .bss           0x00000000002f2c70        0x0 lib/libfastcv.a(libfastcvv_la-fastcvSVMPredictV.o)
 .bss           0x00000000002f2c70        0x0 lib/libfastcv.a(libfastcvv_la-fastcvSetV.o)
 .bss           0x00000000002f2c70        0x0 lib/libfastcv.a(libfastcvv_la-fastcvSmoothV.o)
 .bss           0x00000000002f2c70        0x0 lib/libfastcv.a(libfastcvv_la-fastcvThresholdV.o)
 .bss           0x00000000002f2c70        0x0 lib/libfastcv.a(libfastcvv_la-fastcvTrackV.o)
 .bss           0x00000000002f2c70        0x0 lib/libfastcv.a(libfastcvv_la-fastcvTransformV.o)
 .bss           0x00000000002f2c70        0x0 lib/libfastcv.a(libfastcvv_la-fastcvUpsampleV.o)
 .bss           0x00000000002f2c70        0x0 lib/libfastcv.a(libfastcvv_la-fastcvVectorV.o)
 .bss           0x00000000002f2c70        0x0 lib/libfastcv.a(libIlpsources_la-fastcvBitCntIlpC.o)
 .bss           0x00000000002f2c70        0x0 lib/libfastcv.a(libIlpsources_la-fastcvBlurIlpC.o)
 .bss           0x00000000002f2c70        0x0 lib/libfastcv.a(libIlpsources_la-fastcvBoundingRectC.o)
 .bss           0x00000000002f2c70        0x0 lib/libfastcv.a(libIlpsources_la-fastcvFilter1C.o)
 .bss           0x00000000002f2c70        0x0 lib/libfastcv.a(libIlpsources_la-fastcvImagePostProcIlpC.o)
 .bss           0x00000000002f2c70        0x0 lib/libfastcv.a(libIlpsources_la-fastcvScaleIlpC.o)
 .bss           0x00000000002f2c70        0x0 lib/libfastcv.a(libfastcvIlpC_la-fastcvFastIlpC.o)
 .bss           0x00000000002f2c70        0x0 lib/libfastcv.a(libfastcvFast10C_la-fastcvFast10C.o)
 .bss           0x00000000002f2c70        0x0 lib/libfastcv.a(libfastcvMeanShiftC_la-fastcvMeanShiftC.o)
 .bss           0x00000000002f2c70        0x0 lib/libfastcv.a(libfastcvPyramidC_la-fastcvPyramidC.o)
 .bss           0x00000000002f2c70        0x0 lib/libfastcv.a(libfastcvHomographyC_la-fastcvHomographyC.o)
 .bss           0x00000000002f2c70        0x0 lib/libfastcv.a(libfastcvThresholdC_la-fastcvThresholdC.o)
 .bss           0x00000000002f2c70        0x0 lib/libfastcv.a(libfastcvBlurC_la-fastcvBlurC.o)
 .bss           0x00000000002f2c70        0x0 lib/libfastcv.a(libfastcvFilterC_la-fastcvFilterC.o)
 .bss           0x00000000002f2c70        0x0 lib/libfastcv.a(libfastcv_la-fastcvManager_.o)
 .bss           0x00000000002f2c70        0x4 lib/libfastcv.a(libfastcv_la-fastcvUtils.o)
 .bss           0x00000000002f2c74        0x0 lib/libfastcv.a(fastcvIntegrateImageV2.o)
 .bss           0x00000000002f2c74        0x0 lib/libfastcv.a(fastcvIppDctV.o)
 .bss           0x00000000002f2c74        0x0 lib/libfastcv.a(fastcvIppIdctV.o)
 .bss           0x00000000002f2c74        0x0 lib/libfastcv.a(libfastcvv_la-fastcvColorIppPlanarV.o)
 .bss           0x00000000002f2c74        0x0 lib/libfastcv.a(libfastcvv_la-fastcvColorIppV.o)
 .bss           0x00000000002f2c74        0x0 lib/libfastcv.a(libfastcvv_la-fastcvColorRgb2RgbV.o)
 .bss           0x00000000002f2c74        0x0 lib/libfastcv.a(libfastcvv_la-fastcvIppDwtV.o)
 .bss           0x00000000002f2c74        0x0 lib/libfastcv.a(libfastcvv_la-fastcvIppIdwtV.o)
 .bss           0x00000000002f2c74        0x0 /media/ram/363029d1-6365-487a-b2e3-bd8d034c2ea4/fastcv/hexagondsp/Hexagon_SDK/3.5.2/tools/linaro/bin/../lib/gcc/arm-linux-gnueabihf/8.2.1/libgcc_eh.a(unwind-arm.o)
 .bss           0x00000000002f2c74        0x0 /media/ram/363029d1-6365-487a-b2e3-bd8d034c2ea4/fastcv/hexagondsp/Hexagon_SDK/3.5.2/tools/linaro/bin/../lib/gcc/arm-linux-gnueabihf/8.2.1/libgcc_eh.a(libunwind.o)
 .bss           0x00000000002f2c74        0x0 /media/ram/363029d1-6365-487a-b2e3-bd8d034c2ea4/fastcv/hexagondsp/Hexagon_SDK/3.5.2/tools/linaro/bin/../lib/gcc/arm-linux-gnueabihf/8.2.1/libgcc_eh.a(pr-support.o)
 .bss           0x00000000002f2c74        0x0 /media/ram/363029d1-6365-487a-b2e3-bd8d034c2ea4/fastcv/hexagondsp/Hexagon_SDK/3.5.2/tools/linaro/bin/../lib/gcc/arm-linux-gnueabihf/8.2.1/libgcc.a(_udivsi3.o)
 .bss           0x00000000002f2c74        0x0 /media/ram/363029d1-6365-487a-b2e3-bd8d034c2ea4/fastcv/hexagondsp/Hexagon_SDK/3.5.2/tools/linaro/bin/../lib/gcc/arm-linux-gnueabihf/8.2.1/libgcc.a(_divsi3.o)
 .bss           0x00000000002f2c74        0x0 /media/ram/363029d1-6365-487a-b2e3-bd8d034c2ea4/fastcv/hexagondsp/Hexagon_SDK/3.5.2/tools/linaro/bin/../lib/gcc/arm-linux-gnueabihf/8.2.1/libgcc.a(_arm_addsubdf3.o)
 .bss           0x00000000002f2c74        0x0 /media/ram/363029d1-6365-487a-b2e3-bd8d034c2ea4/fastcv/hexagondsp/Hexagon_SDK/3.5.2/tools/linaro/bin/../lib/gcc/arm-linux-gnueabihf/8.2.1/libgcc.a(_arm_addsubsf3.o)
 .bss           0x00000000002f2c74        0x0 /media/ram/363029d1-6365-487a-b2e3-bd8d034c2ea4/fastcv/hexagondsp/Hexagon_SDK/3.5.2/tools/linaro/bin/../lib/gcc/arm-linux-gnueabihf/8.2.1/libgcc.a(_aeabi_ldivmod.o)
 .bss           0x00000000002f2c74        0x0 /media/ram/363029d1-6365-487a-b2e3-bd8d034c2ea4/fastcv/hexagondsp/Hexagon_SDK/3.5.2/tools/linaro/bin/../lib/gcc/arm-linux-gnueabihf/8.2.1/libgcc.a(_dvmd_lnx.o)
 .bss           0x00000000002f2c74        0x0 /media/ram/363029d1-6365-487a-b2e3-bd8d034c2ea4/fastcv/hexagondsp/Hexagon_SDK/3.5.2/tools/linaro/bin/../lib/gcc/arm-linux-gnueabihf/8.2.1/libgcc.a(_powisf2.o)
 .bss           0x00000000002f2c74        0x0 /media/ram/363029d1-6365-487a-b2e3-bd8d034c2ea4/fastcv/hexagondsp/Hexagon_SDK/3.5.2/tools/linaro/bin/../lib/gcc/arm-linux-gnueabihf/8.2.1/libgcc.a(_udivmoddi4.o)
 .bss           0x00000000002f2c74        0x0 /media/ram/363029d1-6365-487a-b2e3-bd8d034c2ea4/fastcv/hexagondsp/Hexagon_SDK/3.5.2/tools/linaro/bin/../lib/gcc/arm-linux-gnueabihf/8.2.1/crtend.o
 .bss           0x00000000002f2c74        0x0 /media/ram/363029d1-6365-487a-b2e3-bd8d034c2ea4/fastcv/hexagondsp/Hexagon_SDK/3.5.2/tools/linaro/bin/../arm-linux-gnueabihf/libc/usr/lib/crtn.o
 *(COMMON)
                0x00000000002f2c74                . = ALIGN ((. != 0x0)?0x4:0x1)
                0x00000000002f2c74                _bss_end__ = .
                0x00000000002f2c74                __bss_end__ = .
                0x00000000002f2c74                . = ALIGN (0x4)
                0x00000000002f2c74                . = SEGMENT_START ("ldata-segment", .)
                0x00000000002f2c74                . = ALIGN (0x4)
                0x00000000002f2c74                __end__ = .
                0x00000000002f2c74                _end = .
                [!provide]                        PROVIDE (end = .)
                0x00000000002f2c74                . = DATA_SEGMENT_END (.)

.stab
 *(.stab)

.stabstr
 *(.stabstr)

.stab.excl
 *(.stab.excl)

.stab.exclstr
 *(.stab.exclstr)

.stab.index
 *(.stab.index)

.stab.indexstr
 *(.stab.indexstr)

.comment        0x0000000000000000       0xa9
 *(.comment)
 .comment       0x0000000000000000       0x5e /media/ram/363029d1-6365-487a-b2e3-bd8d034c2ea4/fastcv/hexagondsp/Hexagon_SDK/3.5.2/tools/linaro/bin/../arm-linux-gnueabihf/libc/usr/lib/crt1.o
                                         0xbe (size before relaxing)
 .comment       0x000000000000005e       0x5f /media/ram/363029d1-6365-487a-b2e3-bd8d034c2ea4/fastcv/hexagondsp/Hexagon_SDK/3.5.2/tools/linaro/bin/../lib/gcc/arm-linux-gnueabihf/8.2.1/crtbegin.o
 .comment       0x000000000000005e       0x5f /media/ram/363029d1-6365-487a-b2e3-bd8d034c2ea4/fastcv/hexagondsp/Hexagon_SDK/3.5.2/tools/linaro/bin/../arm-linux-gnueabihf/libc/usr/lib/libc_nonshared.a(elf-init.oS)
 .comment       0x000000000000005e       0x5f UbuntuARM_Release/ImageEnhance.o
 .comment       0x000000000000005e       0x4b lib/libfastcv.a(libfastcv_la-fastcvManager.o)
                                         0x4c (size before relaxing)
 .comment       0x00000000000000a9       0x4c lib/libfastcv.a(libfastcv_la-fastcvMemAndroid.o)
 .comment       0x00000000000000a9       0x4c lib/libfastcv.a(libfastcv_la-fastcvMem.o)
 .comment       0x00000000000000a9       0x4c lib/libfastcv.a(libfastcv_la-fastcv.o)
 .comment       0x00000000000000a9       0x4c lib/libfastcv.a(libfastcv_la-fastcvHeapStats.o)
 .comment       0x00000000000000a9       0x4c lib/libfastcv.a(libfastcv_la-fastcvHelper.o)
 .comment       0x00000000000000a9       0x4c lib/libfastcv.a(libfastcv_la-fastcvHW.o)
 .comment       0x00000000000000a9       0x4c lib/libfastcv.a(libfastcv_la-fastcvAbsDiffC.o)
 .comment       0x00000000000000a9       0x4c lib/libfastcv.a(libfastcv_la-fastcvAdaptiveThresholdC.o)
 .comment       0x00000000000000a9       0x4c lib/libfastcv.a(libfastcv_la-fastcvAffineC.o)
 .comment       0x00000000000000a9       0x4c lib/libfastcv.a(libfastcv_la-fastcvArithmC.o)
 .comment       0x00000000000000a9       0x4c lib/libfastcv.a(libfastcv_la-fastcvAverageC.o)
 .comment       0x00000000000000a9       0x4c lib/libfastcv.a(libfastcv_la-fastcvBGCodeBookC.o)
 .comment       0x00000000000000a9       0x4c lib/libfastcv.a(libfastcv_la-fastcvBitCntC.o)
 .comment       0x00000000000000a9       0x4c lib/libfastcv.a(libfastcv_la-fastcvBitwiseOpC.o)
 .comment       0x00000000000000a9       0x4c lib/libfastcv.a(libfastcv_la-fastcvCalib3DC.o)
 .comment       0x00000000000000a9       0x4c lib/libfastcv.a(libfastcv_la-fastcvCalibrateC.o)
 .comment       0x00000000000000a9       0x4c lib/libfastcv.a(libfastcv_la-fastcvChannelC.o)
 .comment       0x00000000000000a9       0x4c lib/libfastcv.a(libfastcv_la-fastcvColor2C.o)
 .comment       0x00000000000000a9       0x4c lib/libfastcv.a(libfastcv_la-fastcvColorC.o)
 .comment       0x00000000000000a9       0x4c lib/libfastcv.a(libfastcv_la-fastcvColorPpfYuvUtilsC.o)
 .comment       0x00000000000000a9       0x4c lib/libfastcv.a(libfastcv_la-fastcvColorRgb2LabC.o)
 .comment       0x00000000000000a9       0x4c lib/libfastcv.a(libfastcv_la-fastcvColorRgb2YuvC.o)
 .comment       0x00000000000000a9       0x4c lib/libfastcv.a(libfastcv_la-fastcvColorRgbConversionC.o)
 .comment       0x00000000000000a9       0x4c lib/libfastcv.a(libfastcv_la-fastcvColorYuvConversionC.o)
 .comment       0x00000000000000a9       0x4c lib/libfastcv.a(libfastcv_la-fastcvContourC.o)
 .comment       0x00000000000000a9       0x4c lib/libfastcv.a(libfastcv_la-fastcvCopyC.o)
 .comment       0x00000000000000a9       0x4c lib/libfastcv.a(libfastcv_la-fastcvCornerSubPixelC.o)
 .comment       0x00000000000000a9       0x4c lib/libfastcv.a(libfastcv_la-fastcvDepthFusionC.o)
 .comment       0x00000000000000a9       0x4c lib/libfastcv.a(libfastcv_la-fastcvDescriptor2C.o)
 .comment       0x00000000000000a9       0x4c lib/libfastcv.a(libfastcv_la-fastcvDescriptorC.o)
 .comment       0x00000000000000a9       0x4c lib/libfastcv.a(libfastcv_la-fastcvEucldeanC.o)
 .comment       0x00000000000000a9       0x4c lib/libfastcv.a(libfastcv_la-fastcvFloodFillC.o)
 .comment       0x00000000000000a9       0x4c lib/libfastcv.a(libfastcv_la-fastcvGeomC.o)
 .comment       0x00000000000000a9       0x4c lib/libfastcv.a(libfastcv_la-fastcvHarrisC.o)
 .comment       0x00000000000000a9       0x4c lib/libfastcv.a(libfastcv_la-fastcvHOGC.o)
 .comment       0x00000000000000a9       0x4c lib/libfastcv.a(libfastcv_la-fastcvHoughCircleC.o)
 .comment       0x00000000000000a9       0x4c lib/libfastcv.a(libfastcv_la-fastcvHoughLineC.o)
 .comment       0x00000000000000a9       0x4c lib/libfastcv.a(libfastcv_la-fastcvImageDiffC.o)
 .comment       0x00000000000000a9       0x4c lib/libfastcv.a(libfastcv_la-fastcvImageIntensityC.o)
 .comment       0x00000000000000a9       0x4c lib/libfastcv.a(libfastcv_la-fastcvImagePostProcC.o)
 .comment       0x00000000000000a9       0x4c lib/libfastcv.a(libfastcv_la-fastcvImageSegmentationC.o)
 .comment       0x00000000000000a9       0x4c lib/libfastcv.a(libfastcv_la-fastcvIntegrateImageC.o)
 .comment       0x00000000000000a9       0x4c lib/libfastcv.a(libfastcv_la-fastcvIntegrateImageYuvC.o)
 .comment       0x00000000000000a9       0x4c lib/libfastcv.a(libfastcv_la-fastcvIppScaleC.o)
 .comment       0x00000000000000a9       0x4c lib/libfastcv.a(libfastcv_la-fastcvIppTransformC.o)
 .comment       0x00000000000000a9       0x4c lib/libfastcv.a(libfastcv_la-fastcvKDTree36s8f32C.o)
 .comment       0x00000000000000a9       0x4c lib/libfastcv.a(libfastcv_la-fastcvKMeansTreeSearchC.o)
 .comment       0x00000000000000a9       0x4c lib/libfastcv.a(libfastcv_la-fastcvLBPC.o)
 .comment       0x00000000000000a9       0x4c lib/libfastcv.a(libfastcv_la-fastcvLinearSearchC.o)
 .comment       0x00000000000000a9       0x4c lib/libfastcv.a(libfastcv_la-fastcvMotionHistoryC.o)
 .comment       0x00000000000000a9       0x4c lib/libfastcv.a(libfastcv_la-fastcvMserFxpC.o)
 .comment       0x00000000000000a9       0x4c lib/libfastcv.a(libfastcv_la-fastcvNCCPatchC.o)
 .comment       0x00000000000000a9       0x4c lib/libfastcv.a(libfastcv_la-fastcvPolygonC.o)
 .comment       0x00000000000000a9       0x4c lib/libfastcv.a(libfastcv_la-fastcvRemapC.o)
 .comment       0x00000000000000a9       0x4c lib/libfastcv.a(libfastcv_la-fastcvSADC.o)
 .comment       0x00000000000000a9       0x4c lib/libfastcv.a(libfastcv_la-fastcvScaleC.o)
 .comment       0x00000000000000a9       0x4c lib/libfastcv.a(libfastcv_la-fastcvSegmentMaskC.o)
 .comment       0x00000000000000a9       0x4c lib/libfastcv.a(libfastcv_la-fastcvSetC.o)
 .comment       0x00000000000000a9       0x4c lib/libfastcv.a(libfastcv_la-fastcvSmoothC.o)
 .comment       0x00000000000000a9       0x4c lib/libfastcv.a(libfastcv_la-fastcvSolveC.o)
 .comment       0x00000000000000a9       0x4c lib/libfastcv.a(libfastcv_la-fastcvSVDC.o)
 .comment       0x00000000000000a9       0x4c lib/libfastcv.a(libfastcv_la-fastcvSVMPredictC.o)
 .comment       0x00000000000000a9       0x4c lib/libfastcv.a(libfastcv_la-fastcvTrackC.o)
 .comment       0x00000000000000a9       0x4c lib/libfastcv.a(libfastcv_la-fastcvTransformC.o)
 .comment       0x00000000000000a9       0x4c lib/libfastcv.a(libfastcv_la-fastcvUpsampleC.o)
 .comment       0x00000000000000a9       0x4c lib/libfastcv.a(libfastcv_la-fastcvVectorC.o)
 .comment       0x00000000000000a9       0x4c lib/libfastcv.a(libfastcv_la-fastcvWarpC.o)
 .comment       0x00000000000000a9       0x4c lib/libfastcv.a(libfastcv_la-fastcvHwAndroid.o)
 .comment       0x00000000000000a9       0x4c lib/libfastcv.a(libfastcv_la-fastcvRemoteLibAndroid.o)
 .comment       0x00000000000000a9       0x4c lib/libfastcv.a(libfastcv_la-fastcvTrigonometricTable.o)
 .comment       0x00000000000000a9       0x4c lib/libfastcv.a(libfastcv_la-fastcvDotC.o)
 .comment       0x00000000000000a9       0x4c lib/libfastcv.a(libfastcv_la-fastcvEdgeC.o)
 .comment       0x00000000000000a9       0x4c lib/libfastcv.a(libfastcv_la-fastcvFastC.o)
 .comment       0x00000000000000a9       0x4c lib/libfastcv.a(libfastcv_la-fastcvRectangleC.o)
 .comment       0x00000000000000a9       0x4c lib/libfastcv.a(libfastcv_la-fastcvSSDC.o)
 .comment       0x00000000000000a9       0x4c lib/libfastcv.a(libfastcvAbsDiffV_la-fastcvAbsDiffV.o)
 .comment       0x00000000000000a9       0x4c lib/libfastcv.a(libfastcvAdaptiveThresholdV_la-fastcvAdaptiveThresholdV.o)
 .comment       0x00000000000000a9       0x4c lib/libfastcv.a(libfastcvBlurV_la-fastcvBlurV.o)
 .comment       0x00000000000000a9       0x4c lib/libfastcv.a(libfastcvDescriptorV_la-fastcvDescriptorV.o)
 .comment       0x00000000000000a9       0x4c lib/libfastcv.a(libfastcvDotV_la-fastcvDotV.o)
 .comment       0x00000000000000a9       0x4c lib/libfastcv.a(libfastcvFast10V_la-fastcvFast10V.o)
 .comment       0x00000000000000a9       0x4c lib/libfastcv.a(libfastcvFastV_la-fastcvFastV.o)
 .comment       0x00000000000000a9       0x4c lib/libfastcv.a(libfastcvFilter1V_la-fastcvFilter1V.o)
 .comment       0x00000000000000a9       0x4c lib/libfastcv.a(libfastcvFilterV_la-fastcvFilterV.o)
 .comment       0x00000000000000a9       0x4c lib/libfastcv.a(libfastcvMeanShiftV_la-fastcvMeanShiftV.o)
 .comment       0x00000000000000a9       0x4c lib/libfastcv.a(libfastcvSVDV_la-fastcvSVDV.o)
 .comment       0x00000000000000a9       0x4c lib/libfastcv.a(libfastcvScaleV_la-fastcvScaleV.o)
 .comment       0x00000000000000a9       0x4c lib/libfastcv.a(libfastcvWarpV_la-fastcvWarpV.o)
 .comment       0x00000000000000a9       0x4c lib/libfastcv.a(libfastcvv_la-fastcvAffineV1.o)
 .comment       0x00000000000000a9       0x4c lib/libfastcv.a(libfastcvv_la-fastcvArithmV.o)
 .comment       0x00000000000000a9       0x4c lib/libfastcv.a(libfastcvv_la-fastcvAverageV.o)
 .comment       0x00000000000000a9       0x4c lib/libfastcv.a(libfastcvv_la-fastcvBitCntWrapV.o)
 .comment       0x00000000000000a9       0x4c lib/libfastcv.a(libfastcvv_la-fastcvBitwiseOpV.o)
 .comment       0x00000000000000a9       0x4c lib/libfastcv.a(libfastcvv_la-fastcvBoundingRectV.o)
 .comment       0x00000000000000a9       0x4c lib/libfastcv.a(libfastcvv_la-fastcvCalib3DV.o)
 .comment       0x00000000000000a9       0x4c lib/libfastcv.a(libfastcvv_la-fastcvCalibrateV1.o)
 .comment       0x00000000000000a9       0x4c lib/libfastcv.a(libfastcvv_la-fastcvChannelV.o)
 .comment       0x00000000000000a9       0x4c lib/libfastcv.a(libfastcvv_la-fastcvColorPpfYuvUtilsV.o)
 .comment       0x00000000000000a9       0x4c lib/libfastcv.a(libfastcvv_la-fastcvColorRgb2LabV.o)
 .comment       0x00000000000000a9       0x4c lib/libfastcv.a(libfastcvv_la-fastcvColorRgb2YuvV.o)
 .comment       0x00000000000000a9       0x4c lib/libfastcv.a(libfastcvv_la-fastcvColorRgbConversionV.o)
 .comment       0x00000000000000a9       0x4c lib/libfastcv.a(libfastcvv_la-fastcvColorV.o)
 .comment       0x00000000000000a9       0x4c lib/libfastcv.a(libfastcvv_la-fastcvColorYuvConversionV.o)
 .comment       0x00000000000000a9       0x4c lib/libfastcv.a(libfastcvv_la-fastcvContourV.o)
 .comment       0x00000000000000a9       0x4c lib/libfastcv.a(libfastcvv_la-fastcvCopyV.o)
 .comment       0x00000000000000a9       0x4c lib/libfastcv.a(libfastcvv_la-fastcvCornerSubPixelV.o)
 .comment       0x00000000000000a9       0x4c lib/libfastcv.a(libfastcvv_la-fastcvDepthFusionV.o)
 .comment       0x00000000000000a9       0x4c lib/libfastcv.a(libfastcvv_la-fastcvDescriptor2V.o)
 .comment       0x00000000000000a9       0x4c lib/libfastcv.a(libfastcvv_la-fastcvEdgeV.o)
 .comment       0x00000000000000a9       0x4c lib/libfastcv.a(libfastcvv_la-fastcvEucldeanV.o)
 .comment       0x00000000000000a9       0x4c lib/libfastcv.a(libfastcvv_la-fastcvFloodFillV.o)
 .comment       0x00000000000000a9       0x4c lib/libfastcv.a(libfastcvv_la-fastcvGeomV.o)
 .comment       0x00000000000000a9       0x4c lib/libfastcv.a(libfastcvv_la-fastcvHOGV.o)
 .comment       0x00000000000000a9       0x4c lib/libfastcv.a(libfastcvv_la-fastcvHarrisV.o)
 .comment       0x00000000000000a9       0x4c lib/libfastcv.a(libfastcvv_la-fastcvHomographyV.o)
 .comment       0x00000000000000a9       0x4c lib/libfastcv.a(libfastcvv_la-fastcvHoughCircleV.o)
 .comment       0x00000000000000a9       0x4c lib/libfastcv.a(libfastcvv_la-fastcvHoughLineV.o)
 .comment       0x00000000000000a9       0x4c lib/libfastcv.a(libfastcvv_la-fastcvImageDiffV.o)
 .comment       0x00000000000000a9       0x4c lib/libfastcv.a(libfastcvv_la-fastcvImageIntensityV.o)
 .comment       0x00000000000000a9       0x4c lib/libfastcv.a(libfastcvv_la-fastcvImagePostProcV.o)
 .comment       0x00000000000000a9       0x4c lib/libfastcv.a(libfastcvv_la-fastcvIntegrateImageV.o)
 .comment       0x00000000000000a9       0x4c lib/libfastcv.a(libfastcvv_la-fastcvIntegrateImageYuvV.o)
 .comment       0x00000000000000a9       0x4c lib/libfastcv.a(libfastcvv_la-fastcvIppScaleV.o)
 .comment       0x00000000000000a9       0x4c lib/libfastcv.a(libfastcvv_la-fastcvIppTransformV.o)
 .comment       0x00000000000000a9       0x4c lib/libfastcv.a(libfastcvv_la-fastcvLBPV.o)
 .comment       0x00000000000000a9       0x4c lib/libfastcv.a(libfastcvv_la-fastcvMotionHistoryV.o)
 .comment       0x00000000000000a9       0x4c lib/libfastcv.a(libfastcvv_la-fastcvMserFxpV.o)
 .comment       0x00000000000000a9       0x4c lib/libfastcv.a(libfastcvv_la-fastcvNCCPatchV.o)
 .comment       0x00000000000000a9       0x4c lib/libfastcv.a(libfastcvv_la-fastcvPolygonV.o)
 .comment       0x00000000000000a9       0x4c lib/libfastcv.a(libfastcvv_la-fastcvPyramidV.o)
 .comment       0x00000000000000a9       0x4c lib/libfastcv.a(libfastcvv_la-fastcvRemapV.o)
 .comment       0x00000000000000a9       0x4c lib/libfastcv.a(libfastcvv_la-fastcvSADV.o)
 .comment       0x00000000000000a9       0x4c lib/libfastcv.a(libfastcvv_la-fastcvSSDV.o)
 .comment       0x00000000000000a9       0x4c lib/libfastcv.a(libfastcvv_la-fastcvSVMPredictV.o)
 .comment       0x00000000000000a9       0x4c lib/libfastcv.a(libfastcvv_la-fastcvSetV.o)
 .comment       0x00000000000000a9       0x4c lib/libfastcv.a(libfastcvv_la-fastcvSmoothV.o)
 .comment       0x00000000000000a9       0x4c lib/libfastcv.a(libfastcvv_la-fastcvThresholdV.o)
 .comment       0x00000000000000a9       0x4c lib/libfastcv.a(libfastcvv_la-fastcvTrackV.o)
 .comment       0x00000000000000a9       0x4c lib/libfastcv.a(libfastcvv_la-fastcvTransformV.o)
 .comment       0x00000000000000a9       0x4c lib/libfastcv.a(libfastcvv_la-fastcvUpsampleV.o)
 .comment       0x00000000000000a9       0x4c lib/libfastcv.a(libfastcvv_la-fastcvVectorV.o)
 .comment       0x00000000000000a9       0x4c lib/libfastcv.a(libIlpsources_la-fastcvBitCntIlpC.o)
 .comment       0x00000000000000a9       0x4c lib/libfastcv.a(libIlpsources_la-fastcvBlurIlpC.o)
 .comment       0x00000000000000a9       0x4c lib/libfastcv.a(libIlpsources_la-fastcvBoundingRectC.o)
 .comment       0x00000000000000a9       0x4c lib/libfastcv.a(libIlpsources_la-fastcvFilter1C.o)
 .comment       0x00000000000000a9       0x4c lib/libfastcv.a(libIlpsources_la-fastcvImagePostProcIlpC.o)
 .comment       0x00000000000000a9       0x4c lib/libfastcv.a(libIlpsources_la-fastcvScaleIlpC.o)
 .comment       0x00000000000000a9       0x4c lib/libfastcv.a(libfastcvIlpC_la-fastcvFastIlpC.o)
 .comment       0x00000000000000a9       0x4c lib/libfastcv.a(libfastcvFast10C_la-fastcvFast10C.o)
 .comment       0x00000000000000a9       0x4c lib/libfastcv.a(libfastcvMeanShiftC_la-fastcvMeanShiftC.o)
 .comment       0x00000000000000a9       0x4c lib/libfastcv.a(libfastcvPyramidC_la-fastcvPyramidC.o)
 .comment       0x00000000000000a9       0x4c lib/libfastcv.a(libfastcvHomographyC_la-fastcvHomographyC.o)
 .comment       0x00000000000000a9       0x4c lib/libfastcv.a(libfastcvThresholdC_la-fastcvThresholdC.o)
 .comment       0x00000000000000a9       0x4c lib/libfastcv.a(libfastcvBlurC_la-fastcvBlurC.o)
 .comment       0x00000000000000a9       0x4c lib/libfastcv.a(libfastcvFilterC_la-fastcvFilterC.o)
 .comment       0x00000000000000a9       0x4c lib/libfastcv.a(libfastcv_la-fastcvManager_.o)
 .comment       0x00000000000000a9       0x4c lib/libfastcv.a(libfastcv_la-fastcvUtils.o)
 .comment       0x00000000000000a9       0x4c lib/libfastcv.a(libfastcvv_la-fastcvColorIppPlanarV.o)
 .comment       0x00000000000000a9       0x4c lib/libfastcv.a(libfastcvv_la-fastcvColorIppV.o)
 .comment       0x00000000000000a9       0x4c lib/libfastcv.a(libfastcvv_la-fastcvColorRgb2RgbV.o)
 .comment       0x00000000000000a9       0x4c lib/libfastcv.a(libfastcvv_la-fastcvIppDwtV.o)
 .comment       0x00000000000000a9       0x4c lib/libfastcv.a(libfastcvv_la-fastcvIppIdwtV.o)
 .comment       0x00000000000000a9       0x5f /media/ram/363029d1-6365-487a-b2e3-bd8d034c2ea4/fastcv/hexagondsp/Hexagon_SDK/3.5.2/tools/linaro/bin/../lib/gcc/arm-linux-gnueabihf/8.2.1/libgcc_eh.a(unwind-arm.o)
 .comment       0x00000000000000a9       0x5f /media/ram/363029d1-6365-487a-b2e3-bd8d034c2ea4/fastcv/hexagondsp/Hexagon_SDK/3.5.2/tools/linaro/bin/../lib/gcc/arm-linux-gnueabihf/8.2.1/libgcc_eh.a(pr-support.o)
 .comment       0x00000000000000a9       0x5f /media/ram/363029d1-6365-487a-b2e3-bd8d034c2ea4/fastcv/hexagondsp/Hexagon_SDK/3.5.2/tools/linaro/bin/../lib/gcc/arm-linux-gnueabihf/8.2.1/libgcc.a(_powisf2.o)
 .comment       0x00000000000000a9       0x5f /media/ram/363029d1-6365-487a-b2e3-bd8d034c2ea4/fastcv/hexagondsp/Hexagon_SDK/3.5.2/tools/linaro/bin/../lib/gcc/arm-linux-gnueabihf/8.2.1/libgcc.a(_udivmoddi4.o)
 .comment       0x00000000000000a9       0x5f /media/ram/363029d1-6365-487a-b2e3-bd8d034c2ea4/fastcv/hexagondsp/Hexagon_SDK/3.5.2/tools/linaro/bin/../lib/gcc/arm-linux-gnueabihf/8.2.1/crtend.o

.ARM.attributes
                0x0000000000000000       0x3b
 .ARM.attributes
                0x0000000000000000       0x35 /media/ram/363029d1-6365-487a-b2e3-bd8d034c2ea4/fastcv/hexagondsp/Hexagon_SDK/3.5.2/tools/linaro/bin/../arm-linux-gnueabihf/libc/usr/lib/crt1.o
 .ARM.attributes
                0x0000000000000035       0x25 /media/ram/363029d1-6365-487a-b2e3-bd8d034c2ea4/fastcv/hexagondsp/Hexagon_SDK/3.5.2/tools/linaro/bin/../arm-linux-gnueabihf/libc/usr/lib/crti.o
 .ARM.attributes
                0x000000000000005a       0x35 /media/ram/363029d1-6365-487a-b2e3-bd8d034c2ea4/fastcv/hexagondsp/Hexagon_SDK/3.5.2/tools/linaro/bin/../lib/gcc/arm-linux-gnueabihf/8.2.1/crtbegin.o
 .ARM.attributes
                0x000000000000008f       0x37 /media/ram/363029d1-6365-487a-b2e3-bd8d034c2ea4/fastcv/hexagondsp/Hexagon_SDK/3.5.2/tools/linaro/bin/../arm-linux-gnueabihf/libc/usr/lib/libc_nonshared.a(elf-init.oS)
 .ARM.attributes
                0x00000000000000c6       0x35 UbuntuARM_Release/ImageEnhance.o
 .ARM.attributes
                0x00000000000000fb       0x4d lib/libfastcv.a(libfastcv_la-fastcvManager.o)
 .ARM.attributes
                0x0000000000000148       0x4d lib/libfastcv.a(libfastcv_la-fastcvMemAndroid.o)
 .ARM.attributes
                0x0000000000000195       0x4d lib/libfastcv.a(libfastcv_la-fastcvMem.o)
 .ARM.attributes
                0x00000000000001e2       0x4d lib/libfastcv.a(libfastcv_la-fastcv.o)
 .ARM.attributes
                0x000000000000022f       0x4d lib/libfastcv.a(libfastcv_la-fastcvHeapStats.o)
 .ARM.attributes
                0x000000000000027c       0x4d lib/libfastcv.a(libfastcv_la-fastcvHelper.o)
 .ARM.attributes
                0x00000000000002c9       0x4d lib/libfastcv.a(libfastcv_la-fastcvHW.o)
 .ARM.attributes
                0x0000000000000316       0x4d lib/libfastcv.a(libfastcv_la-fastcvAbsDiffC.o)
 .ARM.attributes
                0x0000000000000363       0x4d lib/libfastcv.a(libfastcv_la-fastcvAdaptiveThresholdC.o)
 .ARM.attributes
                0x00000000000003b0       0x4d lib/libfastcv.a(libfastcv_la-fastcvAffineC.o)
 .ARM.attributes
                0x00000000000003fd       0x4d lib/libfastcv.a(libfastcv_la-fastcvArithmC.o)
 .ARM.attributes
                0x000000000000044a       0x4d lib/libfastcv.a(libfastcv_la-fastcvAverageC.o)
 .ARM.attributes
                0x0000000000000497       0x4d lib/libfastcv.a(libfastcv_la-fastcvBGCodeBookC.o)
 .ARM.attributes
                0x00000000000004e4       0x4d lib/libfastcv.a(libfastcv_la-fastcvBitCntC.o)
 .ARM.attributes
                0x0000000000000531       0x4d lib/libfastcv.a(libfastcv_la-fastcvBitwiseOpC.o)
 .ARM.attributes
                0x000000000000057e       0x4d lib/libfastcv.a(libfastcv_la-fastcvCalib3DC.o)
 .ARM.attributes
                0x00000000000005cb       0x4d lib/libfastcv.a(libfastcv_la-fastcvCalibrateC.o)
 .ARM.attributes
                0x0000000000000618       0x4d lib/libfastcv.a(libfastcv_la-fastcvChannelC.o)
 .ARM.attributes
                0x0000000000000665       0x4d lib/libfastcv.a(libfastcv_la-fastcvColor2C.o)
 .ARM.attributes
                0x00000000000006b2       0x4d lib/libfastcv.a(libfastcv_la-fastcvColorC.o)
 .ARM.attributes
                0x00000000000006ff       0x4d lib/libfastcv.a(libfastcv_la-fastcvColorPpfYuvUtilsC.o)
 .ARM.attributes
                0x000000000000074c       0x4d lib/libfastcv.a(libfastcv_la-fastcvColorRgb2LabC.o)
 .ARM.attributes
                0x0000000000000799       0x4d lib/libfastcv.a(libfastcv_la-fastcvColorRgb2YuvC.o)
 .ARM.attributes
                0x00000000000007e6       0x4d lib/libfastcv.a(libfastcv_la-fastcvColorRgbConversionC.o)
 .ARM.attributes
                0x0000000000000833       0x4d lib/libfastcv.a(libfastcv_la-fastcvColorYuvConversionC.o)
 .ARM.attributes
                0x0000000000000880       0x4d lib/libfastcv.a(libfastcv_la-fastcvContourC.o)
 .ARM.attributes
                0x00000000000008cd       0x4d lib/libfastcv.a(libfastcv_la-fastcvCopyC.o)
 .ARM.attributes
                0x000000000000091a       0x4d lib/libfastcv.a(libfastcv_la-fastcvCornerSubPixelC.o)
 .ARM.attributes
                0x0000000000000967       0x4d lib/libfastcv.a(libfastcv_la-fastcvDepthFusionC.o)
 .ARM.attributes
                0x00000000000009b4       0x4d lib/libfastcv.a(libfastcv_la-fastcvDescriptor2C.o)
 .ARM.attributes
                0x0000000000000a01       0x4d lib/libfastcv.a(libfastcv_la-fastcvDescriptorC.o)
 .ARM.attributes
                0x0000000000000a4e       0x4d lib/libfastcv.a(libfastcv_la-fastcvEucldeanC.o)
 .ARM.attributes
                0x0000000000000a9b       0x4d lib/libfastcv.a(libfastcv_la-fastcvFloodFillC.o)
 .ARM.attributes
                0x0000000000000ae8       0x4d lib/libfastcv.a(libfastcv_la-fastcvGeomC.o)
 .ARM.attributes
                0x0000000000000b35       0x4d lib/libfastcv.a(libfastcv_la-fastcvHarrisC.o)
 .ARM.attributes
                0x0000000000000b82       0x4d lib/libfastcv.a(libfastcv_la-fastcvHOGC.o)
 .ARM.attributes
                0x0000000000000bcf       0x4d lib/libfastcv.a(libfastcv_la-fastcvHoughCircleC.o)
 .ARM.attributes
                0x0000000000000c1c       0x4d lib/libfastcv.a(libfastcv_la-fastcvHoughLineC.o)
 .ARM.attributes
                0x0000000000000c69       0x4d lib/libfastcv.a(libfastcv_la-fastcvImageDiffC.o)
 .ARM.attributes
                0x0000000000000cb6       0x4d lib/libfastcv.a(libfastcv_la-fastcvImageIntensityC.o)
 .ARM.attributes
                0x0000000000000d03       0x4d lib/libfastcv.a(libfastcv_la-fastcvImagePostProcC.o)
 .ARM.attributes
                0x0000000000000d50       0x4d lib/libfastcv.a(libfastcv_la-fastcvImageSegmentationC.o)
 .ARM.attributes
                0x0000000000000d9d       0x4d lib/libfastcv.a(libfastcv_la-fastcvIntegrateImageC.o)
 .ARM.attributes
                0x0000000000000dea       0x4d lib/libfastcv.a(libfastcv_la-fastcvIntegrateImageYuvC.o)
 .ARM.attributes
                0x0000000000000e37       0x4d lib/libfastcv.a(libfastcv_la-fastcvIppScaleC.o)
 .ARM.attributes
                0x0000000000000e84       0x4d lib/libfastcv.a(libfastcv_la-fastcvIppTransformC.o)
 .ARM.attributes
                0x0000000000000ed1       0x4d lib/libfastcv.a(libfastcv_la-fastcvKDTree36s8f32C.o)
 .ARM.attributes
                0x0000000000000f1e       0x4d lib/libfastcv.a(libfastcv_la-fastcvKMeansTreeSearchC.o)
 .ARM.attributes
                0x0000000000000f6b       0x4d lib/libfastcv.a(libfastcv_la-fastcvLBPC.o)
 .ARM.attributes
                0x0000000000000fb8       0x4d lib/libfastcv.a(libfastcv_la-fastcvLinearSearchC.o)
 .ARM.attributes
                0x0000000000001005       0x4d lib/libfastcv.a(libfastcv_la-fastcvMotionHistoryC.o)
 .ARM.attributes
                0x0000000000001052       0x4d lib/libfastcv.a(libfastcv_la-fastcvMserFxpC.o)
 .ARM.attributes
                0x000000000000109f       0x4d lib/libfastcv.a(libfastcv_la-fastcvNCCPatchC.o)
 .ARM.attributes
                0x00000000000010ec       0x4d lib/libfastcv.a(libfastcv_la-fastcvPolygonC.o)
 .ARM.attributes
                0x0000000000001139       0x4d lib/libfastcv.a(libfastcv_la-fastcvRemapC.o)
 .ARM.attributes
                0x0000000000001186       0x4d lib/libfastcv.a(libfastcv_la-fastcvSADC.o)
 .ARM.attributes
                0x00000000000011d3       0x4d lib/libfastcv.a(libfastcv_la-fastcvScaleC.o)
 .ARM.attributes
                0x0000000000001220       0x4d lib/libfastcv.a(libfastcv_la-fastcvSegmentMaskC.o)
 .ARM.attributes
                0x000000000000126d       0x4d lib/libfastcv.a(libfastcv_la-fastcvSetC.o)
 .ARM.attributes
                0x00000000000012ba       0x4d lib/libfastcv.a(libfastcv_la-fastcvSmoothC.o)
 .ARM.attributes
                0x0000000000001307       0x4d lib/libfastcv.a(libfastcv_la-fastcvSolveC.o)
 .ARM.attributes
                0x0000000000001354       0x4d lib/libfastcv.a(libfastcv_la-fastcvSVDC.o)
 .ARM.attributes
                0x00000000000013a1       0x4d lib/libfastcv.a(libfastcv_la-fastcvSVMPredictC.o)
 .ARM.attributes
                0x00000000000013ee       0x4d lib/libfastcv.a(libfastcv_la-fastcvTrackC.o)
 .ARM.attributes
                0x000000000000143b       0x4d lib/libfastcv.a(libfastcv_la-fastcvTransformC.o)
 .ARM.attributes
                0x0000000000001488       0x4d lib/libfastcv.a(libfastcv_la-fastcvUpsampleC.o)
 .ARM.attributes
                0x00000000000014d5       0x4d lib/libfastcv.a(libfastcv_la-fastcvVectorC.o)
 .ARM.attributes
                0x0000000000001522       0x4d lib/libfastcv.a(libfastcv_la-fastcvWarpC.o)
 .ARM.attributes
                0x000000000000156f       0x4d lib/libfastcv.a(libfastcv_la-fastcvHwAndroid.o)
 .ARM.attributes
                0x00000000000015bc       0x4d lib/libfastcv.a(libfastcv_la-fastcvRemoteLibAndroid.o)
 .ARM.attributes
                0x0000000000001609       0x49 lib/libfastcv.a(libfastcv_la-fastcvTrigonometricTable.o)
 .ARM.attributes
                0x0000000000001652       0x4d lib/libfastcv.a(libfastcv_la-fastcvDotC.o)
 .ARM.attributes
                0x000000000000169f       0x4d lib/libfastcv.a(libfastcv_la-fastcvEdgeC.o)
 .ARM.attributes
                0x00000000000016ec       0x4d lib/libfastcv.a(libfastcv_la-fastcvFastC.o)
 .ARM.attributes
                0x0000000000001739       0x4d lib/libfastcv.a(libfastcv_la-fastcvRectangleC.o)
 .ARM.attributes
                0x0000000000001786       0x4d lib/libfastcv.a(libfastcv_la-fastcvSSDC.o)
 .ARM.attributes
                0x00000000000017d3       0x21 lib/libfastcv.a(fastcvCalibrateV.o)
 .ARM.attributes
                0x00000000000017f4       0x21 lib/libfastcv.a(fastcvEdgeV2.o)
 .ARM.attributes
                0x0000000000001815       0x4d lib/libfastcv.a(libfastcvAbsDiffV_la-fastcvAbsDiffV.o)
 .ARM.attributes
                0x0000000000001862       0x4d lib/libfastcv.a(libfastcvAdaptiveThresholdV_la-fastcvAdaptiveThresholdV.o)
 .ARM.attributes
                0x00000000000018af       0x4d lib/libfastcv.a(libfastcvBlurV_la-fastcvBlurV.o)
 .ARM.attributes
                0x00000000000018fc       0x4d lib/libfastcv.a(libfastcvDescriptorV_la-fastcvDescriptorV.o)
 .ARM.attributes
                0x0000000000001949       0x4d lib/libfastcv.a(libfastcvDotV_la-fastcvDotV.o)
 .ARM.attributes
                0x0000000000001996       0x4d lib/libfastcv.a(libfastcvFast10V_la-fastcvFast10V.o)
 .ARM.attributes
                0x00000000000019e3       0x4d lib/libfastcv.a(libfastcvFastV_la-fastcvFastV.o)
 .ARM.attributes
                0x0000000000001a30       0x4d lib/libfastcv.a(libfastcvFilter1V_la-fastcvFilter1V.o)
 .ARM.attributes
                0x0000000000001a7d       0x4d lib/libfastcv.a(libfastcvFilterV_la-fastcvFilterV.o)
 .ARM.attributes
                0x0000000000001aca       0x4d lib/libfastcv.a(libfastcvMeanShiftV_la-fastcvMeanShiftV.o)
 .ARM.attributes
                0x0000000000001b17       0x4d lib/libfastcv.a(libfastcvSVDV_la-fastcvSVDV.o)
 .ARM.attributes
                0x0000000000001b64       0x4d lib/libfastcv.a(libfastcvScaleV_la-fastcvScaleV.o)
 .ARM.attributes
                0x0000000000001bb1       0x4d lib/libfastcv.a(libfastcvWarpV_la-fastcvWarpV.o)
 .ARM.attributes
                0x0000000000001bfe       0x4d lib/libfastcv.a(libfastcvv_la-fastcvAffineV1.o)
 .ARM.attributes
                0x0000000000001c4b       0x4d lib/libfastcv.a(libfastcvv_la-fastcvArithmV.o)
 .ARM.attributes
                0x0000000000001c98       0x4d lib/libfastcv.a(libfastcvv_la-fastcvAverageV.o)
 .ARM.attributes
                0x0000000000001ce5       0x4d lib/libfastcv.a(libfastcvv_la-fastcvBitCntWrapV.o)
 .ARM.attributes
                0x0000000000001d32       0x4d lib/libfastcv.a(libfastcvv_la-fastcvBitwiseOpV.o)
 .ARM.attributes
                0x0000000000001d7f       0x4d lib/libfastcv.a(libfastcvv_la-fastcvBoundingRectV.o)
 .ARM.attributes
                0x0000000000001dcc       0x4d lib/libfastcv.a(libfastcvv_la-fastcvCalib3DV.o)
 .ARM.attributes
                0x0000000000001e19       0x4d lib/libfastcv.a(libfastcvv_la-fastcvCalibrateV1.o)
 .ARM.attributes
                0x0000000000001e66       0x4d lib/libfastcv.a(libfastcvv_la-fastcvChannelV.o)
 .ARM.attributes
                0x0000000000001eb3       0x4d lib/libfastcv.a(libfastcvv_la-fastcvColorPpfYuvUtilsV.o)
 .ARM.attributes
                0x0000000000001f00       0x4d lib/libfastcv.a(libfastcvv_la-fastcvColorRgb2LabV.o)
 .ARM.attributes
                0x0000000000001f4d       0x4d lib/libfastcv.a(libfastcvv_la-fastcvColorRgb2YuvV.o)
 .ARM.attributes
                0x0000000000001f9a       0x4d lib/libfastcv.a(libfastcvv_la-fastcvColorRgbConversionV.o)
 .ARM.attributes
                0x0000000000001fe7       0x4d lib/libfastcv.a(libfastcvv_la-fastcvColorV.o)
 .ARM.attributes
                0x0000000000002034       0x4d lib/libfastcv.a(libfastcvv_la-fastcvColorYuvConversionV.o)
 .ARM.attributes
                0x0000000000002081       0x4d lib/libfastcv.a(libfastcvv_la-fastcvContourV.o)
 .ARM.attributes
                0x00000000000020ce       0x4d lib/libfastcv.a(libfastcvv_la-fastcvCopyV.o)
 .ARM.attributes
                0x000000000000211b       0x4d lib/libfastcv.a(libfastcvv_la-fastcvCornerSubPixelV.o)
 .ARM.attributes
                0x0000000000002168       0x4d lib/libfastcv.a(libfastcvv_la-fastcvDepthFusionV.o)
 .ARM.attributes
                0x00000000000021b5       0x4d lib/libfastcv.a(libfastcvv_la-fastcvDescriptor2V.o)
 .ARM.attributes
                0x0000000000002202       0x4d lib/libfastcv.a(libfastcvv_la-fastcvEdgeV.o)
 .ARM.attributes
                0x000000000000224f       0x4d lib/libfastcv.a(libfastcvv_la-fastcvEucldeanV.o)
 .ARM.attributes
                0x000000000000229c       0x4d lib/libfastcv.a(libfastcvv_la-fastcvFloodFillV.o)
 .ARM.attributes
                0x00000000000022e9       0x4d lib/libfastcv.a(libfastcvv_la-fastcvGeomV.o)
 .ARM.attributes
                0x0000000000002336       0x4d lib/libfastcv.a(libfastcvv_la-fastcvHOGV.o)
 .ARM.attributes
                0x0000000000002383       0x4d lib/libfastcv.a(libfastcvv_la-fastcvHarrisV.o)
 .ARM.attributes
                0x00000000000023d0       0x4d lib/libfastcv.a(libfastcvv_la-fastcvHomographyV.o)
 .ARM.attributes
                0x000000000000241d       0x4d lib/libfastcv.a(libfastcvv_la-fastcvHoughCircleV.o)
 .ARM.attributes
                0x000000000000246a       0x4d lib/libfastcv.a(libfastcvv_la-fastcvHoughLineV.o)
 .ARM.attributes
                0x00000000000024b7       0x4d lib/libfastcv.a(libfastcvv_la-fastcvImageDiffV.o)
 .ARM.attributes
                0x0000000000002504       0x4d lib/libfastcv.a(libfastcvv_la-fastcvImageIntensityV.o)
 .ARM.attributes
                0x0000000000002551       0x4d lib/libfastcv.a(libfastcvv_la-fastcvImagePostProcV.o)
 .ARM.attributes
                0x000000000000259e       0x4d lib/libfastcv.a(libfastcvv_la-fastcvIntegrateImageV.o)
 .ARM.attributes
                0x00000000000025eb       0x4d lib/libfastcv.a(libfastcvv_la-fastcvIntegrateImageYuvV.o)
 .ARM.attributes
                0x0000000000002638       0x4d lib/libfastcv.a(libfastcvv_la-fastcvIppScaleV.o)
 .ARM.attributes
                0x0000000000002685       0x4d lib/libfastcv.a(libfastcvv_la-fastcvIppTransformV.o)
 .ARM.attributes
                0x00000000000026d2       0x4d lib/libfastcv.a(libfastcvv_la-fastcvLBPV.o)
 .ARM.attributes
                0x000000000000271f       0x4d lib/libfastcv.a(libfastcvv_la-fastcvMotionHistoryV.o)
 .ARM.attributes
                0x000000000000276c       0x4d lib/libfastcv.a(libfastcvv_la-fastcvMserFxpV.o)
 .ARM.attributes
                0x00000000000027b9       0x4d lib/libfastcv.a(libfastcvv_la-fastcvNCCPatchV.o)
 .ARM.attributes
                0x0000000000002806       0x4d lib/libfastcv.a(libfastcvv_la-fastcvPolygonV.o)
 .ARM.attributes
                0x0000000000002853       0x4d lib/libfastcv.a(libfastcvv_la-fastcvPyramidV.o)
 .ARM.attributes
                0x00000000000028a0       0x4d lib/libfastcv.a(libfastcvv_la-fastcvRemapV.o)
 .ARM.attributes
                0x00000000000028ed       0x4d lib/libfastcv.a(libfastcvv_la-fastcvSADV.o)
 .ARM.attributes
                0x000000000000293a       0x4d lib/libfastcv.a(libfastcvv_la-fastcvSSDV.o)
 .ARM.attributes
                0x0000000000002987       0x4d lib/libfastcv.a(libfastcvv_la-fastcvSVMPredictV.o)
 .ARM.attributes
                0x00000000000029d4       0x4d lib/libfastcv.a(libfastcvv_la-fastcvSetV.o)
 .ARM.attributes
                0x0000000000002a21       0x4d lib/libfastcv.a(libfastcvv_la-fastcvSmoothV.o)
 .ARM.attributes
                0x0000000000002a6e       0x4d lib/libfastcv.a(libfastcvv_la-fastcvThresholdV.o)
 .ARM.attributes
                0x0000000000002abb       0x4d lib/libfastcv.a(libfastcvv_la-fastcvTrackV.o)
 .ARM.attributes
                0x0000000000002b08       0x4d lib/libfastcv.a(libfastcvv_la-fastcvTransformV.o)
 .ARM.attributes
                0x0000000000002b55       0x4d lib/libfastcv.a(libfastcvv_la-fastcvUpsampleV.o)
 .ARM.attributes
                0x0000000000002ba2       0x4d lib/libfastcv.a(libfastcvv_la-fastcvVectorV.o)
 .ARM.attributes
                0x0000000000002bef       0x4d lib/libfastcv.a(libIlpsources_la-fastcvBitCntIlpC.o)
 .ARM.attributes
                0x0000000000002c3c       0x4d lib/libfastcv.a(libIlpsources_la-fastcvBlurIlpC.o)
 .ARM.attributes
                0x0000000000002c89       0x4d lib/libfastcv.a(libIlpsources_la-fastcvBoundingRectC.o)
 .ARM.attributes
                0x0000000000002cd6       0x4d lib/libfastcv.a(libIlpsources_la-fastcvFilter1C.o)
 .ARM.attributes
                0x0000000000002d23       0x4d lib/libfastcv.a(libIlpsources_la-fastcvImagePostProcIlpC.o)
 .ARM.attributes
                0x0000000000002d70       0x4d lib/libfastcv.a(libIlpsources_la-fastcvScaleIlpC.o)
 .ARM.attributes
                0x0000000000002dbd       0x4d lib/libfastcv.a(libfastcvIlpC_la-fastcvFastIlpC.o)
 .ARM.attributes
                0x0000000000002e0a       0x4d lib/libfastcv.a(libfastcvFast10C_la-fastcvFast10C.o)
 .ARM.attributes
                0x0000000000002e57       0x4d lib/libfastcv.a(libfastcvMeanShiftC_la-fastcvMeanShiftC.o)
 .ARM.attributes
                0x0000000000002ea4       0x4d lib/libfastcv.a(libfastcvPyramidC_la-fastcvPyramidC.o)
 .ARM.attributes
                0x0000000000002ef1       0x4d lib/libfastcv.a(libfastcvHomographyC_la-fastcvHomographyC.o)
 .ARM.attributes
                0x0000000000002f3e       0x4d lib/libfastcv.a(libfastcvThresholdC_la-fastcvThresholdC.o)
 .ARM.attributes
                0x0000000000002f8b       0x4d lib/libfastcv.a(libfastcvBlurC_la-fastcvBlurC.o)
 .ARM.attributes
                0x0000000000002fd8       0x4d lib/libfastcv.a(libfastcvFilterC_la-fastcvFilterC.o)
 .ARM.attributes
                0x0000000000003025       0x4d lib/libfastcv.a(libfastcv_la-fastcvManager_.o)
 .ARM.attributes
                0x0000000000003072       0x4d lib/libfastcv.a(libfastcv_la-fastcvUtils.o)
 .ARM.attributes
                0x00000000000030bf       0x21 lib/libfastcv.a(fastcvIntegrateImageV2.o)
 .ARM.attributes
                0x00000000000030e0       0x21 lib/libfastcv.a(fastcvIppDctV.o)
 .ARM.attributes
                0x0000000000003101       0x21 lib/libfastcv.a(fastcvIppIdctV.o)
 .ARM.attributes
                0x0000000000003122       0x4d lib/libfastcv.a(libfastcvv_la-fastcvColorIppPlanarV.o)
 .ARM.attributes
                0x000000000000316f       0x4d lib/libfastcv.a(libfastcvv_la-fastcvColorIppV.o)
 .ARM.attributes
                0x00000000000031bc       0x4d lib/libfastcv.a(libfastcvv_la-fastcvColorRgb2RgbV.o)
 .ARM.attributes
                0x0000000000003209       0x4d lib/libfastcv.a(libfastcvv_la-fastcvIppDwtV.o)
 .ARM.attributes
                0x0000000000003256       0x4d lib/libfastcv.a(libfastcvv_la-fastcvIppIdwtV.o)
 .ARM.attributes
                0x00000000000032a3       0x35 /media/ram/363029d1-6365-487a-b2e3-bd8d034c2ea4/fastcv/hexagondsp/Hexagon_SDK/3.5.2/tools/linaro/bin/../lib/gcc/arm-linux-gnueabihf/8.2.1/libgcc_eh.a(unwind-arm.o)
 .ARM.attributes
                0x00000000000032d8       0x23 /media/ram/363029d1-6365-487a-b2e3-bd8d034c2ea4/fastcv/hexagondsp/Hexagon_SDK/3.5.2/tools/linaro/bin/../lib/gcc/arm-linux-gnueabihf/8.2.1/libgcc_eh.a(libunwind.o)
 .ARM.attributes
                0x00000000000032fb       0x35 /media/ram/363029d1-6365-487a-b2e3-bd8d034c2ea4/fastcv/hexagondsp/Hexagon_SDK/3.5.2/tools/linaro/bin/../lib/gcc/arm-linux-gnueabihf/8.2.1/libgcc_eh.a(pr-support.o)
 .ARM.attributes
                0x0000000000003330       0x23 /media/ram/363029d1-6365-487a-b2e3-bd8d034c2ea4/fastcv/hexagondsp/Hexagon_SDK/3.5.2/tools/linaro/bin/../lib/gcc/arm-linux-gnueabihf/8.2.1/libgcc.a(_udivsi3.o)
 .ARM.attributes
                0x0000000000003353       0x23 /media/ram/363029d1-6365-487a-b2e3-bd8d034c2ea4/fastcv/hexagondsp/Hexagon_SDK/3.5.2/tools/linaro/bin/../lib/gcc/arm-linux-gnueabihf/8.2.1/libgcc.a(_divsi3.o)
 .ARM.attributes
                0x0000000000003376       0x23 /media/ram/363029d1-6365-487a-b2e3-bd8d034c2ea4/fastcv/hexagondsp/Hexagon_SDK/3.5.2/tools/linaro/bin/../lib/gcc/arm-linux-gnueabihf/8.2.1/libgcc.a(_arm_addsubdf3.o)
 .ARM.attributes
                0x0000000000003399       0x23 /media/ram/363029d1-6365-487a-b2e3-bd8d034c2ea4/fastcv/hexagondsp/Hexagon_SDK/3.5.2/tools/linaro/bin/../lib/gcc/arm-linux-gnueabihf/8.2.1/libgcc.a(_arm_addsubsf3.o)
 .ARM.attributes
                0x00000000000033bc       0x23 /media/ram/363029d1-6365-487a-b2e3-bd8d034c2ea4/fastcv/hexagondsp/Hexagon_SDK/3.5.2/tools/linaro/bin/../lib/gcc/arm-linux-gnueabihf/8.2.1/libgcc.a(_aeabi_ldivmod.o)
 .ARM.attributes
                0x00000000000033df       0x23 /media/ram/363029d1-6365-487a-b2e3-bd8d034c2ea4/fastcv/hexagondsp/Hexagon_SDK/3.5.2/tools/linaro/bin/../lib/gcc/arm-linux-gnueabihf/8.2.1/libgcc.a(_dvmd_lnx.o)
 .ARM.attributes
                0x0000000000003402       0x35 /media/ram/363029d1-6365-487a-b2e3-bd8d034c2ea4/fastcv/hexagondsp/Hexagon_SDK/3.5.2/tools/linaro/bin/../lib/gcc/arm-linux-gnueabihf/8.2.1/libgcc.a(_powisf2.o)
 .ARM.attributes
                0x0000000000003437       0x35 /media/ram/363029d1-6365-487a-b2e3-bd8d034c2ea4/fastcv/hexagondsp/Hexagon_SDK/3.5.2/tools/linaro/bin/../lib/gcc/arm-linux-gnueabihf/8.2.1/libgcc.a(_udivmoddi4.o)
 .ARM.attributes
                0x000000000000346c       0x35 /media/ram/363029d1-6365-487a-b2e3-bd8d034c2ea4/fastcv/hexagondsp/Hexagon_SDK/3.5.2/tools/linaro/bin/../lib/gcc/arm-linux-gnueabihf/8.2.1/crtend.o
 .ARM.attributes
                0x00000000000034a1       0x25 /media/ram/363029d1-6365-487a-b2e3-bd8d034c2ea4/fastcv/hexagondsp/Hexagon_SDK/3.5.2/tools/linaro/bin/../arm-linux-gnueabihf/libc/usr/lib/crtn.o

fastcvIppDctV   0x0000000000000000        0x0
 fastcvIppDctV  0x0000000000000000        0x0 lib/libfastcv.a(fastcvIppDctV.o)

fastcvIppIdct   0x0000000000000000        0x0
 fastcvIppIdct  0x0000000000000000        0x0 lib/libfastcv.a(fastcvIppIdctV.o)

.debug
 *(.debug)

.line
 *(.line)

.debug_srcinfo
 *(.debug_srcinfo)

.debug_sfnames
 *(.debug_sfnames)

.debug_aranges  0x0000000000000000      0x218
 *(.debug_aranges)
 .debug_aranges
                0x0000000000000000       0x38 /media/ram/363029d1-6365-487a-b2e3-bd8d034c2ea4/fastcv/hexagondsp/Hexagon_SDK/3.5.2/tools/linaro/bin/../arm-linux-gnueabihf/libc/usr/lib/crt1.o
 .debug_aranges
                0x0000000000000038       0x30 /media/ram/363029d1-6365-487a-b2e3-bd8d034c2ea4/fastcv/hexagondsp/Hexagon_SDK/3.5.2/tools/linaro/bin/../arm-linux-gnueabihf/libc/usr/lib/crti.o
 .debug_aranges
                0x0000000000000068       0x20 /media/ram/363029d1-6365-487a-b2e3-bd8d034c2ea4/fastcv/hexagondsp/Hexagon_SDK/3.5.2/tools/linaro/bin/../arm-linux-gnueabihf/libc/usr/lib/libc_nonshared.a(elf-init.oS)
 .debug_aranges
                0x0000000000000088       0x20 /media/ram/363029d1-6365-487a-b2e3-bd8d034c2ea4/fastcv/hexagondsp/Hexagon_SDK/3.5.2/tools/linaro/bin/../lib/gcc/arm-linux-gnueabihf/8.2.1/libgcc_eh.a(unwind-arm.o)
 .debug_aranges
                0x00000000000000a8       0x20 /media/ram/363029d1-6365-487a-b2e3-bd8d034c2ea4/fastcv/hexagondsp/Hexagon_SDK/3.5.2/tools/linaro/bin/../lib/gcc/arm-linux-gnueabihf/8.2.1/libgcc_eh.a(libunwind.o)
 .debug_aranges
                0x00000000000000c8       0x28 /media/ram/363029d1-6365-487a-b2e3-bd8d034c2ea4/fastcv/hexagondsp/Hexagon_SDK/3.5.2/tools/linaro/bin/../lib/gcc/arm-linux-gnueabihf/8.2.1/libgcc_eh.a(pr-support.o)
 .debug_aranges
                0x00000000000000f0       0x20 /media/ram/363029d1-6365-487a-b2e3-bd8d034c2ea4/fastcv/hexagondsp/Hexagon_SDK/3.5.2/tools/linaro/bin/../lib/gcc/arm-linux-gnueabihf/8.2.1/libgcc.a(_udivsi3.o)
 .debug_aranges
                0x0000000000000110       0x20 /media/ram/363029d1-6365-487a-b2e3-bd8d034c2ea4/fastcv/hexagondsp/Hexagon_SDK/3.5.2/tools/linaro/bin/../lib/gcc/arm-linux-gnueabihf/8.2.1/libgcc.a(_divsi3.o)
 .debug_aranges
                0x0000000000000130       0x20 /media/ram/363029d1-6365-487a-b2e3-bd8d034c2ea4/fastcv/hexagondsp/Hexagon_SDK/3.5.2/tools/linaro/bin/../lib/gcc/arm-linux-gnueabihf/8.2.1/libgcc.a(_arm_addsubdf3.o)
 .debug_aranges
                0x0000000000000150       0x20 /media/ram/363029d1-6365-487a-b2e3-bd8d034c2ea4/fastcv/hexagondsp/Hexagon_SDK/3.5.2/tools/linaro/bin/../lib/gcc/arm-linux-gnueabihf/8.2.1/libgcc.a(_arm_addsubsf3.o)
 .debug_aranges
                0x0000000000000170       0x20 /media/ram/363029d1-6365-487a-b2e3-bd8d034c2ea4/fastcv/hexagondsp/Hexagon_SDK/3.5.2/tools/linaro/bin/../lib/gcc/arm-linux-gnueabihf/8.2.1/libgcc.a(_aeabi_ldivmod.o)
 .debug_aranges
                0x0000000000000190       0x20 /media/ram/363029d1-6365-487a-b2e3-bd8d034c2ea4/fastcv/hexagondsp/Hexagon_SDK/3.5.2/tools/linaro/bin/../lib/gcc/arm-linux-gnueabihf/8.2.1/libgcc.a(_dvmd_lnx.o)
 .debug_aranges
                0x00000000000001b0       0x20 /media/ram/363029d1-6365-487a-b2e3-bd8d034c2ea4/fastcv/hexagondsp/Hexagon_SDK/3.5.2/tools/linaro/bin/../lib/gcc/arm-linux-gnueabihf/8.2.1/libgcc.a(_powisf2.o)
 .debug_aranges
                0x00000000000001d0       0x20 /media/ram/363029d1-6365-487a-b2e3-bd8d034c2ea4/fastcv/hexagondsp/Hexagon_SDK/3.5.2/tools/linaro/bin/../lib/gcc/arm-linux-gnueabihf/8.2.1/libgcc.a(_udivmoddi4.o)
 .debug_aranges
                0x00000000000001f0       0x28 /media/ram/363029d1-6365-487a-b2e3-bd8d034c2ea4/fastcv/hexagondsp/Hexagon_SDK/3.5.2/tools/linaro/bin/../arm-linux-gnueabihf/libc/usr/lib/crtn.o

.debug_pubnames
 *(.debug_pubnames)

.debug_info     0x0000000000000000     0x4b4b
 *(.debug_info .gnu.linkonce.wi.*)
 .debug_info    0x0000000000000000       0x62 /media/ram/363029d1-6365-487a-b2e3-bd8d034c2ea4/fastcv/hexagondsp/Hexagon_SDK/3.5.2/tools/linaro/bin/../arm-linux-gnueabihf/libc/usr/lib/crt1.o
 .debug_info    0x0000000000000062       0x22 /media/ram/363029d1-6365-487a-b2e3-bd8d034c2ea4/fastcv/hexagondsp/Hexagon_SDK/3.5.2/tools/linaro/bin/../arm-linux-gnueabihf/libc/usr/lib/crti.o
 .debug_info    0x0000000000000084      0x1ac /media/ram/363029d1-6365-487a-b2e3-bd8d034c2ea4/fastcv/hexagondsp/Hexagon_SDK/3.5.2/tools/linaro/bin/../arm-linux-gnueabihf/libc/usr/lib/libc_nonshared.a(elf-init.oS)
 .debug_info    0x0000000000000230     0x2287 /media/ram/363029d1-6365-487a-b2e3-bd8d034c2ea4/fastcv/hexagondsp/Hexagon_SDK/3.5.2/tools/linaro/bin/../lib/gcc/arm-linux-gnueabihf/8.2.1/libgcc_eh.a(unwind-arm.o)
 .debug_info    0x00000000000024b7       0x26 /media/ram/363029d1-6365-487a-b2e3-bd8d034c2ea4/fastcv/hexagondsp/Hexagon_SDK/3.5.2/tools/linaro/bin/../lib/gcc/arm-linux-gnueabihf/8.2.1/libgcc_eh.a(libunwind.o)
 .debug_info    0x00000000000024dd      0x9e4 /media/ram/363029d1-6365-487a-b2e3-bd8d034c2ea4/fastcv/hexagondsp/Hexagon_SDK/3.5.2/tools/linaro/bin/../lib/gcc/arm-linux-gnueabihf/8.2.1/libgcc_eh.a(pr-support.o)
 .debug_info    0x0000000000002ec1       0x26 /media/ram/363029d1-6365-487a-b2e3-bd8d034c2ea4/fastcv/hexagondsp/Hexagon_SDK/3.5.2/tools/linaro/bin/../lib/gcc/arm-linux-gnueabihf/8.2.1/libgcc.a(_udivsi3.o)
 .debug_info    0x0000000000002ee7       0x26 /media/ram/363029d1-6365-487a-b2e3-bd8d034c2ea4/fastcv/hexagondsp/Hexagon_SDK/3.5.2/tools/linaro/bin/../lib/gcc/arm-linux-gnueabihf/8.2.1/libgcc.a(_divsi3.o)
 .debug_info    0x0000000000002f0d       0x26 /media/ram/363029d1-6365-487a-b2e3-bd8d034c2ea4/fastcv/hexagondsp/Hexagon_SDK/3.5.2/tools/linaro/bin/../lib/gcc/arm-linux-gnueabihf/8.2.1/libgcc.a(_arm_addsubdf3.o)
 .debug_info    0x0000000000002f33       0x26 /media/ram/363029d1-6365-487a-b2e3-bd8d034c2ea4/fastcv/hexagondsp/Hexagon_SDK/3.5.2/tools/linaro/bin/../lib/gcc/arm-linux-gnueabihf/8.2.1/libgcc.a(_arm_addsubsf3.o)
 .debug_info    0x0000000000002f59       0x26 /media/ram/363029d1-6365-487a-b2e3-bd8d034c2ea4/fastcv/hexagondsp/Hexagon_SDK/3.5.2/tools/linaro/bin/../lib/gcc/arm-linux-gnueabihf/8.2.1/libgcc.a(_aeabi_ldivmod.o)
 .debug_info    0x0000000000002f7f       0x26 /media/ram/363029d1-6365-487a-b2e3-bd8d034c2ea4/fastcv/hexagondsp/Hexagon_SDK/3.5.2/tools/linaro/bin/../lib/gcc/arm-linux-gnueabihf/8.2.1/libgcc.a(_dvmd_lnx.o)
 .debug_info    0x0000000000002fa5      0xd7b /media/ram/363029d1-6365-487a-b2e3-bd8d034c2ea4/fastcv/hexagondsp/Hexagon_SDK/3.5.2/tools/linaro/bin/../lib/gcc/arm-linux-gnueabihf/8.2.1/libgcc.a(_powisf2.o)
 .debug_info    0x0000000000003d20      0xe09 /media/ram/363029d1-6365-487a-b2e3-bd8d034c2ea4/fastcv/hexagondsp/Hexagon_SDK/3.5.2/tools/linaro/bin/../lib/gcc/arm-linux-gnueabihf/8.2.1/libgcc.a(_udivmoddi4.o)
 .debug_info    0x0000000000004b29       0x22 /media/ram/363029d1-6365-487a-b2e3-bd8d034c2ea4/fastcv/hexagondsp/Hexagon_SDK/3.5.2/tools/linaro/bin/../arm-linux-gnueabihf/libc/usr/lib/crtn.o

.debug_abbrev   0x0000000000000000      0xcbe
 *(.debug_abbrev)
 .debug_abbrev  0x0000000000000000       0x49 /media/ram/363029d1-6365-487a-b2e3-bd8d034c2ea4/fastcv/hexagondsp/Hexagon_SDK/3.5.2/tools/linaro/bin/../arm-linux-gnueabihf/libc/usr/lib/crt1.o
 .debug_abbrev  0x0000000000000049       0x12 /media/ram/363029d1-6365-487a-b2e3-bd8d034c2ea4/fastcv/hexagondsp/Hexagon_SDK/3.5.2/tools/linaro/bin/../arm-linux-gnueabihf/libc/usr/lib/crti.o
 .debug_abbrev  0x000000000000005b      0x131 /media/ram/363029d1-6365-487a-b2e3-bd8d034c2ea4/fastcv/hexagondsp/Hexagon_SDK/3.5.2/tools/linaro/bin/../arm-linux-gnueabihf/libc/usr/lib/libc_nonshared.a(elf-init.oS)
 .debug_abbrev  0x000000000000018c      0x49f /media/ram/363029d1-6365-487a-b2e3-bd8d034c2ea4/fastcv/hexagondsp/Hexagon_SDK/3.5.2/tools/linaro/bin/../lib/gcc/arm-linux-gnueabihf/8.2.1/libgcc_eh.a(unwind-arm.o)
 .debug_abbrev  0x000000000000062b       0x14 /media/ram/363029d1-6365-487a-b2e3-bd8d034c2ea4/fastcv/hexagondsp/Hexagon_SDK/3.5.2/tools/linaro/bin/../lib/gcc/arm-linux-gnueabihf/8.2.1/libgcc_eh.a(libunwind.o)
 .debug_abbrev  0x000000000000063f      0x2c7 /media/ram/363029d1-6365-487a-b2e3-bd8d034c2ea4/fastcv/hexagondsp/Hexagon_SDK/3.5.2/tools/linaro/bin/../lib/gcc/arm-linux-gnueabihf/8.2.1/libgcc_eh.a(pr-support.o)
 .debug_abbrev  0x0000000000000906       0x14 /media/ram/363029d1-6365-487a-b2e3-bd8d034c2ea4/fastcv/hexagondsp/Hexagon_SDK/3.5.2/tools/linaro/bin/../lib/gcc/arm-linux-gnueabihf/8.2.1/libgcc.a(_udivsi3.o)
 .debug_abbrev  0x000000000000091a       0x14 /media/ram/363029d1-6365-487a-b2e3-bd8d034c2ea4/fastcv/hexagondsp/Hexagon_SDK/3.5.2/tools/linaro/bin/../lib/gcc/arm-linux-gnueabihf/8.2.1/libgcc.a(_divsi3.o)
 .debug_abbrev  0x000000000000092e       0x14 /media/ram/363029d1-6365-487a-b2e3-bd8d034c2ea4/fastcv/hexagondsp/Hexagon_SDK/3.5.2/tools/linaro/bin/../lib/gcc/arm-linux-gnueabihf/8.2.1/libgcc.a(_arm_addsubdf3.o)
 .debug_abbrev  0x0000000000000942       0x14 /media/ram/363029d1-6365-487a-b2e3-bd8d034c2ea4/fastcv/hexagondsp/Hexagon_SDK/3.5.2/tools/linaro/bin/../lib/gcc/arm-linux-gnueabihf/8.2.1/libgcc.a(_arm_addsubsf3.o)
 .debug_abbrev  0x0000000000000956       0x14 /media/ram/363029d1-6365-487a-b2e3-bd8d034c2ea4/fastcv/hexagondsp/Hexagon_SDK/3.5.2/tools/linaro/bin/../lib/gcc/arm-linux-gnueabihf/8.2.1/libgcc.a(_aeabi_ldivmod.o)
 .debug_abbrev  0x000000000000096a       0x14 /media/ram/363029d1-6365-487a-b2e3-bd8d034c2ea4/fastcv/hexagondsp/Hexagon_SDK/3.5.2/tools/linaro/bin/../lib/gcc/arm-linux-gnueabihf/8.2.1/libgcc.a(_dvmd_lnx.o)
 .debug_abbrev  0x000000000000097e      0x196 /media/ram/363029d1-6365-487a-b2e3-bd8d034c2ea4/fastcv/hexagondsp/Hexagon_SDK/3.5.2/tools/linaro/bin/../lib/gcc/arm-linux-gnueabihf/8.2.1/libgcc.a(_powisf2.o)
 .debug_abbrev  0x0000000000000b14      0x198 /media/ram/363029d1-6365-487a-b2e3-bd8d034c2ea4/fastcv/hexagondsp/Hexagon_SDK/3.5.2/tools/linaro/bin/../lib/gcc/arm-linux-gnueabihf/8.2.1/libgcc.a(_udivmoddi4.o)
 .debug_abbrev  0x0000000000000cac       0x12 /media/ram/363029d1-6365-487a-b2e3-bd8d034c2ea4/fastcv/hexagondsp/Hexagon_SDK/3.5.2/tools/linaro/bin/../arm-linux-gnueabihf/libc/usr/lib/crtn.o

.debug_line     0x0000000000000000     0x2d6a
 *(.debug_line .debug_line.* .debug_line_end)
 .debug_line    0x0000000000000000       0x80 /media/ram/363029d1-6365-487a-b2e3-bd8d034c2ea4/fastcv/hexagondsp/Hexagon_SDK/3.5.2/tools/linaro/bin/../arm-linux-gnueabihf/libc/usr/lib/crt1.o
 .debug_line    0x0000000000000080       0x6c /media/ram/363029d1-6365-487a-b2e3-bd8d034c2ea4/fastcv/hexagondsp/Hexagon_SDK/3.5.2/tools/linaro/bin/../arm-linux-gnueabihf/libc/usr/lib/crti.o
 .debug_line    0x00000000000000ec      0x14e /media/ram/363029d1-6365-487a-b2e3-bd8d034c2ea4/fastcv/hexagondsp/Hexagon_SDK/3.5.2/tools/linaro/bin/../arm-linux-gnueabihf/libc/usr/lib/libc_nonshared.a(elf-init.oS)
 .debug_line    0x000000000000023a     0x1355 /media/ram/363029d1-6365-487a-b2e3-bd8d034c2ea4/fastcv/hexagondsp/Hexagon_SDK/3.5.2/tools/linaro/bin/../lib/gcc/arm-linux-gnueabihf/8.2.1/libgcc_eh.a(unwind-arm.o)
 .debug_line    0x000000000000158f       0xf8 /media/ram/363029d1-6365-487a-b2e3-bd8d034c2ea4/fastcv/hexagondsp/Hexagon_SDK/3.5.2/tools/linaro/bin/../lib/gcc/arm-linux-gnueabihf/8.2.1/libgcc_eh.a(libunwind.o)
 .debug_line    0x0000000000001687      0x5b6 /media/ram/363029d1-6365-487a-b2e3-bd8d034c2ea4/fastcv/hexagondsp/Hexagon_SDK/3.5.2/tools/linaro/bin/../lib/gcc/arm-linux-gnueabihf/8.2.1/libgcc_eh.a(pr-support.o)
 .debug_line    0x0000000000001c3d       0xc8 /media/ram/363029d1-6365-487a-b2e3-bd8d034c2ea4/fastcv/hexagondsp/Hexagon_SDK/3.5.2/tools/linaro/bin/../lib/gcc/arm-linux-gnueabihf/8.2.1/libgcc.a(_udivsi3.o)
 .debug_line    0x0000000000001d05       0xd4 /media/ram/363029d1-6365-487a-b2e3-bd8d034c2ea4/fastcv/hexagondsp/Hexagon_SDK/3.5.2/tools/linaro/bin/../lib/gcc/arm-linux-gnueabihf/8.2.1/libgcc.a(_divsi3.o)
 .debug_line    0x0000000000001dd9      0x1ad /media/ram/363029d1-6365-487a-b2e3-bd8d034c2ea4/fastcv/hexagondsp/Hexagon_SDK/3.5.2/tools/linaro/bin/../lib/gcc/arm-linux-gnueabihf/8.2.1/libgcc.a(_arm_addsubdf3.o)
 .debug_line    0x0000000000001f86      0x14a /media/ram/363029d1-6365-487a-b2e3-bd8d034c2ea4/fastcv/hexagondsp/Hexagon_SDK/3.5.2/tools/linaro/bin/../lib/gcc/arm-linux-gnueabihf/8.2.1/libgcc.a(_arm_addsubsf3.o)
 .debug_line    0x00000000000020d0       0xc9 /media/ram/363029d1-6365-487a-b2e3-bd8d034c2ea4/fastcv/hexagondsp/Hexagon_SDK/3.5.2/tools/linaro/bin/../lib/gcc/arm-linux-gnueabihf/8.2.1/libgcc.a(_aeabi_ldivmod.o)
 .debug_line    0x0000000000002199       0xb0 /media/ram/363029d1-6365-487a-b2e3-bd8d034c2ea4/fastcv/hexagondsp/Hexagon_SDK/3.5.2/tools/linaro/bin/../lib/gcc/arm-linux-gnueabihf/8.2.1/libgcc.a(_dvmd_lnx.o)
 .debug_line    0x0000000000002249      0x503 /media/ram/363029d1-6365-487a-b2e3-bd8d034c2ea4/fastcv/hexagondsp/Hexagon_SDK/3.5.2/tools/linaro/bin/../lib/gcc/arm-linux-gnueabihf/8.2.1/libgcc.a(_powisf2.o)
 .debug_line    0x000000000000274c      0x5ca /media/ram/363029d1-6365-487a-b2e3-bd8d034c2ea4/fastcv/hexagondsp/Hexagon_SDK/3.5.2/tools/linaro/bin/../lib/gcc/arm-linux-gnueabihf/8.2.1/libgcc.a(_udivmoddi4.o)
 .debug_line    0x0000000000002d16       0x54 /media/ram/363029d1-6365-487a-b2e3-bd8d034c2ea4/fastcv/hexagondsp/Hexagon_SDK/3.5.2/tools/linaro/bin/../arm-linux-gnueabihf/libc/usr/lib/crtn.o

.debug_frame    0x0000000000000000      0x620
 *(.debug_frame)
 .debug_frame   0x0000000000000000       0x44 /media/ram/363029d1-6365-487a-b2e3-bd8d034c2ea4/fastcv/hexagondsp/Hexagon_SDK/3.5.2/tools/linaro/bin/../arm-linux-gnueabihf/libc/usr/lib/libc_nonshared.a(elf-init.oS)
 .debug_frame   0x0000000000000044      0x2f0 /media/ram/363029d1-6365-487a-b2e3-bd8d034c2ea4/fastcv/hexagondsp/Hexagon_SDK/3.5.2/tools/linaro/bin/../lib/gcc/arm-linux-gnueabihf/8.2.1/libgcc_eh.a(unwind-arm.o)
 .debug_frame   0x0000000000000334       0xf4 /media/ram/363029d1-6365-487a-b2e3-bd8d034c2ea4/fastcv/hexagondsp/Hexagon_SDK/3.5.2/tools/linaro/bin/../lib/gcc/arm-linux-gnueabihf/8.2.1/libgcc_eh.a(pr-support.o)
 .debug_frame   0x0000000000000428       0x20 /media/ram/363029d1-6365-487a-b2e3-bd8d034c2ea4/fastcv/hexagondsp/Hexagon_SDK/3.5.2/tools/linaro/bin/../lib/gcc/arm-linux-gnueabihf/8.2.1/libgcc.a(_udivsi3.o)
 .debug_frame   0x0000000000000448       0x20 /media/ram/363029d1-6365-487a-b2e3-bd8d034c2ea4/fastcv/hexagondsp/Hexagon_SDK/3.5.2/tools/linaro/bin/../lib/gcc/arm-linux-gnueabihf/8.2.1/libgcc.a(_divsi3.o)
 .debug_frame   0x0000000000000468       0xac /media/ram/363029d1-6365-487a-b2e3-bd8d034c2ea4/fastcv/hexagondsp/Hexagon_SDK/3.5.2/tools/linaro/bin/../lib/gcc/arm-linux-gnueabihf/8.2.1/libgcc.a(_arm_addsubdf3.o)
 .debug_frame   0x0000000000000514       0x4c /media/ram/363029d1-6365-487a-b2e3-bd8d034c2ea4/fastcv/hexagondsp/Hexagon_SDK/3.5.2/tools/linaro/bin/../lib/gcc/arm-linux-gnueabihf/8.2.1/libgcc.a(_arm_addsubsf3.o)
 .debug_frame   0x0000000000000560       0x44 /media/ram/363029d1-6365-487a-b2e3-bd8d034c2ea4/fastcv/hexagondsp/Hexagon_SDK/3.5.2/tools/linaro/bin/../lib/gcc/arm-linux-gnueabihf/8.2.1/libgcc.a(_aeabi_ldivmod.o)
 .debug_frame   0x00000000000005a4       0x28 /media/ram/363029d1-6365-487a-b2e3-bd8d034c2ea4/fastcv/hexagondsp/Hexagon_SDK/3.5.2/tools/linaro/bin/../lib/gcc/arm-linux-gnueabihf/8.2.1/libgcc.a(_dvmd_lnx.o)
 .debug_frame   0x00000000000005cc       0x20 /media/ram/363029d1-6365-487a-b2e3-bd8d034c2ea4/fastcv/hexagondsp/Hexagon_SDK/3.5.2/tools/linaro/bin/../lib/gcc/arm-linux-gnueabihf/8.2.1/libgcc.a(_powisf2.o)
 .debug_frame   0x00000000000005ec       0x34 /media/ram/363029d1-6365-487a-b2e3-bd8d034c2ea4/fastcv/hexagondsp/Hexagon_SDK/3.5.2/tools/linaro/bin/../lib/gcc/arm-linux-gnueabihf/8.2.1/libgcc.a(_udivmoddi4.o)

.debug_str      0x0000000000000000     0x28ce
 *(.debug_str)
 .debug_str     0x0000000000000000      0x187 /media/ram/363029d1-6365-487a-b2e3-bd8d034c2ea4/fastcv/hexagondsp/Hexagon_SDK/3.5.2/tools/linaro/bin/../arm-linux-gnueabihf/libc/usr/lib/crt1.o
                                        0x335 (size before relaxing)
 .debug_str     0x0000000000000187       0x16 /media/ram/363029d1-6365-487a-b2e3-bd8d034c2ea4/fastcv/hexagondsp/Hexagon_SDK/3.5.2/tools/linaro/bin/../arm-linux-gnueabihf/libc/usr/lib/crti.o
                                         0x87 (size before relaxing)
 .debug_str     0x000000000000019d      0x1b9 /media/ram/363029d1-6365-487a-b2e3-bd8d034c2ea4/fastcv/hexagondsp/Hexagon_SDK/3.5.2/tools/linaro/bin/../arm-linux-gnueabihf/libc/usr/lib/libc_nonshared.a(elf-init.oS)
                                        0x234 (size before relaxing)
 .debug_str     0x0000000000000356      0xe9a /media/ram/363029d1-6365-487a-b2e3-bd8d034c2ea4/fastcv/hexagondsp/Hexagon_SDK/3.5.2/tools/linaro/bin/../lib/gcc/arm-linux-gnueabihf/8.2.1/libgcc_eh.a(unwind-arm.o)
                                        0xfc3 (size before relaxing)
 .debug_str     0x00000000000011f0       0x7b /media/ram/363029d1-6365-487a-b2e3-bd8d034c2ea4/fastcv/hexagondsp/Hexagon_SDK/3.5.2/tools/linaro/bin/../lib/gcc/arm-linux-gnueabihf/8.2.1/libgcc_eh.a(libunwind.o)
                                        0x11c (size before relaxing)
 .debug_str     0x000000000000126b      0x12a /media/ram/363029d1-6365-487a-b2e3-bd8d034c2ea4/fastcv/hexagondsp/Hexagon_SDK/3.5.2/tools/linaro/bin/../lib/gcc/arm-linux-gnueabihf/8.2.1/libgcc_eh.a(pr-support.o)
                                        0x5ed (size before relaxing)
 .debug_str     0x0000000000001395       0x7b /media/ram/363029d1-6365-487a-b2e3-bd8d034c2ea4/fastcv/hexagondsp/Hexagon_SDK/3.5.2/tools/linaro/bin/../lib/gcc/arm-linux-gnueabihf/8.2.1/libgcc.a(_udivsi3.o)
                                        0x11c (size before relaxing)
 .debug_str     0x0000000000001410      0x11c /media/ram/363029d1-6365-487a-b2e3-bd8d034c2ea4/fastcv/hexagondsp/Hexagon_SDK/3.5.2/tools/linaro/bin/../lib/gcc/arm-linux-gnueabihf/8.2.1/libgcc.a(_divsi3.o)
 .debug_str     0x0000000000001410       0x7c /media/ram/363029d1-6365-487a-b2e3-bd8d034c2ea4/fastcv/hexagondsp/Hexagon_SDK/3.5.2/tools/linaro/bin/../lib/gcc/arm-linux-gnueabihf/8.2.1/libgcc.a(_arm_addsubdf3.o)
                                        0x11d (size before relaxing)
 .debug_str     0x000000000000148c       0x7c /media/ram/363029d1-6365-487a-b2e3-bd8d034c2ea4/fastcv/hexagondsp/Hexagon_SDK/3.5.2/tools/linaro/bin/../lib/gcc/arm-linux-gnueabihf/8.2.1/libgcc.a(_arm_addsubsf3.o)
                                        0x11d (size before relaxing)
 .debug_str     0x0000000000001508       0x77 /media/ram/363029d1-6365-487a-b2e3-bd8d034c2ea4/fastcv/hexagondsp/Hexagon_SDK/3.5.2/tools/linaro/bin/../lib/gcc/arm-linux-gnueabihf/8.2.1/libgcc.a(_aeabi_ldivmod.o)
                                        0x118 (size before relaxing)
 .debug_str     0x000000000000157f      0x11c /media/ram/363029d1-6365-487a-b2e3-bd8d034c2ea4/fastcv/hexagondsp/Hexagon_SDK/3.5.2/tools/linaro/bin/../lib/gcc/arm-linux-gnueabihf/8.2.1/libgcc.a(_dvmd_lnx.o)
 .debug_str     0x000000000000157f     0x131c /media/ram/363029d1-6365-487a-b2e3-bd8d034c2ea4/fastcv/hexagondsp/Hexagon_SDK/3.5.2/tools/linaro/bin/../lib/gcc/arm-linux-gnueabihf/8.2.1/libgcc.a(_powisf2.o)
                                       0x171e (size before relaxing)
 .debug_str     0x000000000000289b       0x1d /media/ram/363029d1-6365-487a-b2e3-bd8d034c2ea4/fastcv/hexagondsp/Hexagon_SDK/3.5.2/tools/linaro/bin/../lib/gcc/arm-linux-gnueabihf/8.2.1/libgcc.a(_udivmoddi4.o)
                                       0x1737 (size before relaxing)
 .debug_str     0x00000000000028b8       0x16 /media/ram/363029d1-6365-487a-b2e3-bd8d034c2ea4/fastcv/hexagondsp/Hexagon_SDK/3.5.2/tools/linaro/bin/../arm-linux-gnueabihf/libc/usr/lib/crtn.o
                                         0x87 (size before relaxing)

.debug_loc      0x0000000000000000     0x2815
 *(.debug_loc)
 .debug_loc     0x0000000000000000       0xcb /media/ram/363029d1-6365-487a-b2e3-bd8d034c2ea4/fastcv/hexagondsp/Hexagon_SDK/3.5.2/tools/linaro/bin/../arm-linux-gnueabihf/libc/usr/lib/libc_nonshared.a(elf-init.oS)
 .debug_loc     0x00000000000000cb     0x1f0c /media/ram/363029d1-6365-487a-b2e3-bd8d034c2ea4/fastcv/hexagondsp/Hexagon_SDK/3.5.2/tools/linaro/bin/../lib/gcc/arm-linux-gnueabihf/8.2.1/libgcc_eh.a(unwind-arm.o)
 .debug_loc     0x0000000000001fd7      0x54c /media/ram/363029d1-6365-487a-b2e3-bd8d034c2ea4/fastcv/hexagondsp/Hexagon_SDK/3.5.2/tools/linaro/bin/../lib/gcc/arm-linux-gnueabihf/8.2.1/libgcc_eh.a(pr-support.o)
 .debug_loc     0x0000000000002523       0x7b /media/ram/363029d1-6365-487a-b2e3-bd8d034c2ea4/fastcv/hexagondsp/Hexagon_SDK/3.5.2/tools/linaro/bin/../lib/gcc/arm-linux-gnueabihf/8.2.1/libgcc.a(_powisf2.o)
 .debug_loc     0x000000000000259e      0x277 /media/ram/363029d1-6365-487a-b2e3-bd8d034c2ea4/fastcv/hexagondsp/Hexagon_SDK/3.5.2/tools/linaro/bin/../lib/gcc/arm-linux-gnueabihf/8.2.1/libgcc.a(_udivmoddi4.o)

.debug_macinfo
 *(.debug_macinfo)

.debug_weaknames
 *(.debug_weaknames)

.debug_funcnames
 *(.debug_funcnames)

.debug_typenames
 *(.debug_typenames)

.debug_varnames
 *(.debug_varnames)

.debug_pubtypes
 *(.debug_pubtypes)

.debug_ranges   0x0000000000000000      0x170
 *(.debug_ranges)
 .debug_ranges  0x0000000000000000       0x28 /media/ram/363029d1-6365-487a-b2e3-bd8d034c2ea4/fastcv/hexagondsp/Hexagon_SDK/3.5.2/tools/linaro/bin/../arm-linux-gnueabihf/libc/usr/lib/crti.o
 .debug_ranges  0x0000000000000028      0x110 /media/ram/363029d1-6365-487a-b2e3-bd8d034c2ea4/fastcv/hexagondsp/Hexagon_SDK/3.5.2/tools/linaro/bin/../lib/gcc/arm-linux-gnueabihf/8.2.1/libgcc_eh.a(unwind-arm.o)
 .debug_ranges  0x0000000000000138       0x18 /media/ram/363029d1-6365-487a-b2e3-bd8d034c2ea4/fastcv/hexagondsp/Hexagon_SDK/3.5.2/tools/linaro/bin/../lib/gcc/arm-linux-gnueabihf/8.2.1/libgcc_eh.a(pr-support.o)
 .debug_ranges  0x0000000000000150       0x20 /media/ram/363029d1-6365-487a-b2e3-bd8d034c2ea4/fastcv/hexagondsp/Hexagon_SDK/3.5.2/tools/linaro/bin/../arm-linux-gnueabihf/libc/usr/lib/crtn.o

.debug_macro
 *(.debug_macro)

.debug_addr
 *(.debug_addr)

.gnu.attributes
 *(.gnu.attributes)

.note.gnu.arm.ident
 *(.note.gnu.arm.ident)

/DISCARD/
 *(.note.GNU-stack)
 *(.gnu_debuglink)
 *(.gnu.lto_*)
OUTPUT(UbuntuARM_Release/lowLightEnhancement elf32-littlearm)
